Archive member included because of file (symbol)

c:/altera/10.1sp1/nios2eds/bin/gnu/h-i686-mingw32/bin/../lib/gcc/nios2-elf/4.1.2/../../../../nios2-elf/lib/mno-hw-mul\libm.a(lib_a-s_cos.o)
                              obj/FFT/simpleDFT.o (cos)
c:/altera/10.1sp1/nios2eds/bin/gnu/h-i686-mingw32/bin/../lib/gcc/nios2-elf/4.1.2/../../../../nios2-elf/lib/mno-hw-mul\libm.a(lib_a-s_sin.o)
                              obj/FFT/simpleDFT.o (sin)
c:/altera/10.1sp1/nios2eds/bin/gnu/h-i686-mingw32/bin/../lib/gcc/nios2-elf/4.1.2/../../../../nios2-elf/lib/mno-hw-mul\libm.a(lib_a-w_sqrt.o)
                              obj/FFT/simpleDFT.o (sqrt)
c:/altera/10.1sp1/nios2eds/bin/gnu/h-i686-mingw32/bin/../lib/gcc/nios2-elf/4.1.2/../../../../nios2-elf/lib/mno-hw-mul\libm.a(lib_a-wf_sqrt.o)
                              obj/FFT/simpleDFT.o (sqrtf)
c:/altera/10.1sp1/nios2eds/bin/gnu/h-i686-mingw32/bin/../lib/gcc/nios2-elf/4.1.2/../../../../nios2-elf/lib/mno-hw-mul\libm.a(lib_a-e_rem_pio2.o)
                              c:/altera/10.1sp1/nios2eds/bin/gnu/h-i686-mingw32/bin/../lib/gcc/nios2-elf/4.1.2/../../../../nios2-elf/lib/mno-hw-mul\libm.a(lib_a-s_cos.o) (__ieee754_rem_pio2)
c:/altera/10.1sp1/nios2eds/bin/gnu/h-i686-mingw32/bin/../lib/gcc/nios2-elf/4.1.2/../../../../nios2-elf/lib/mno-hw-mul\libm.a(lib_a-e_sqrt.o)
                              c:/altera/10.1sp1/nios2eds/bin/gnu/h-i686-mingw32/bin/../lib/gcc/nios2-elf/4.1.2/../../../../nios2-elf/lib/mno-hw-mul\libm.a(lib_a-w_sqrt.o) (__ieee754_sqrt)
c:/altera/10.1sp1/nios2eds/bin/gnu/h-i686-mingw32/bin/../lib/gcc/nios2-elf/4.1.2/../../../../nios2-elf/lib/mno-hw-mul\libm.a(lib_a-ef_sqrt.o)
                              c:/altera/10.1sp1/nios2eds/bin/gnu/h-i686-mingw32/bin/../lib/gcc/nios2-elf/4.1.2/../../../../nios2-elf/lib/mno-hw-mul\libm.a(lib_a-wf_sqrt.o) (__ieee754_sqrtf)
c:/altera/10.1sp1/nios2eds/bin/gnu/h-i686-mingw32/bin/../lib/gcc/nios2-elf/4.1.2/../../../../nios2-elf/lib/mno-hw-mul\libm.a(lib_a-k_cos.o)
                              c:/altera/10.1sp1/nios2eds/bin/gnu/h-i686-mingw32/bin/../lib/gcc/nios2-elf/4.1.2/../../../../nios2-elf/lib/mno-hw-mul\libm.a(lib_a-s_cos.o) (__kernel_cos)
c:/altera/10.1sp1/nios2eds/bin/gnu/h-i686-mingw32/bin/../lib/gcc/nios2-elf/4.1.2/../../../../nios2-elf/lib/mno-hw-mul\libm.a(lib_a-k_rem_pio2.o)
                              c:/altera/10.1sp1/nios2eds/bin/gnu/h-i686-mingw32/bin/../lib/gcc/nios2-elf/4.1.2/../../../../nios2-elf/lib/mno-hw-mul\libm.a(lib_a-e_rem_pio2.o) (__kernel_rem_pio2)
c:/altera/10.1sp1/nios2eds/bin/gnu/h-i686-mingw32/bin/../lib/gcc/nios2-elf/4.1.2/../../../../nios2-elf/lib/mno-hw-mul\libm.a(lib_a-k_sin.o)
                              c:/altera/10.1sp1/nios2eds/bin/gnu/h-i686-mingw32/bin/../lib/gcc/nios2-elf/4.1.2/../../../../nios2-elf/lib/mno-hw-mul\libm.a(lib_a-s_cos.o) (__kernel_sin)
c:/altera/10.1sp1/nios2eds/bin/gnu/h-i686-mingw32/bin/../lib/gcc/nios2-elf/4.1.2/../../../../nios2-elf/lib/mno-hw-mul\libm.a(lib_a-s_fabs.o)
                              c:/altera/10.1sp1/nios2eds/bin/gnu/h-i686-mingw32/bin/../lib/gcc/nios2-elf/4.1.2/../../../../nios2-elf/lib/mno-hw-mul\libm.a(lib_a-e_rem_pio2.o) (fabs)
c:/altera/10.1sp1/nios2eds/bin/gnu/h-i686-mingw32/bin/../lib/gcc/nios2-elf/4.1.2/../../../../nios2-elf/lib/mno-hw-mul\libm.a(lib_a-s_floor.o)
                              c:/altera/10.1sp1/nios2eds/bin/gnu/h-i686-mingw32/bin/../lib/gcc/nios2-elf/4.1.2/../../../../nios2-elf/lib/mno-hw-mul\libm.a(lib_a-k_rem_pio2.o) (floor)
c:/altera/10.1sp1/nios2eds/bin/gnu/h-i686-mingw32/bin/../lib/gcc/nios2-elf/4.1.2/../../../../nios2-elf/lib/mno-hw-mul\libm.a(lib_a-s_isnand.o)
                              c:/altera/10.1sp1/nios2eds/bin/gnu/h-i686-mingw32/bin/../lib/gcc/nios2-elf/4.1.2/../../../../nios2-elf/lib/mno-hw-mul\libm.a(lib_a-w_sqrt.o) (__isnand)
c:/altera/10.1sp1/nios2eds/bin/gnu/h-i686-mingw32/bin/../lib/gcc/nios2-elf/4.1.2/../../../../nios2-elf/lib/mno-hw-mul\libm.a(lib_a-s_lib_ver.o)
                              c:/altera/10.1sp1/nios2eds/bin/gnu/h-i686-mingw32/bin/../lib/gcc/nios2-elf/4.1.2/../../../../nios2-elf/lib/mno-hw-mul\libm.a(lib_a-w_sqrt.o) (__fdlib_version)
c:/altera/10.1sp1/nios2eds/bin/gnu/h-i686-mingw32/bin/../lib/gcc/nios2-elf/4.1.2/../../../../nios2-elf/lib/mno-hw-mul\libm.a(lib_a-s_matherr.o)
                              c:/altera/10.1sp1/nios2eds/bin/gnu/h-i686-mingw32/bin/../lib/gcc/nios2-elf/4.1.2/../../../../nios2-elf/lib/mno-hw-mul\libm.a(lib_a-w_sqrt.o) (matherr)
c:/altera/10.1sp1/nios2eds/bin/gnu/h-i686-mingw32/bin/../lib/gcc/nios2-elf/4.1.2/../../../../nios2-elf/lib/mno-hw-mul\libm.a(lib_a-s_scalbn.o)
                              c:/altera/10.1sp1/nios2eds/bin/gnu/h-i686-mingw32/bin/../lib/gcc/nios2-elf/4.1.2/../../../../nios2-elf/lib/mno-hw-mul\libm.a(lib_a-k_rem_pio2.o) (scalbn)
c:/altera/10.1sp1/nios2eds/bin/gnu/h-i686-mingw32/bin/../lib/gcc/nios2-elf/4.1.2/../../../../nios2-elf/lib/mno-hw-mul\libm.a(lib_a-sf_isnan.o)
                              c:/altera/10.1sp1/nios2eds/bin/gnu/h-i686-mingw32/bin/../lib/gcc/nios2-elf/4.1.2/../../../../nios2-elf/lib/mno-hw-mul\libm.a(lib_a-wf_sqrt.o) (isnanf)
c:/altera/10.1sp1/nios2eds/bin/gnu/h-i686-mingw32/bin/../lib/gcc/nios2-elf/4.1.2/../../../../nios2-elf/lib/mno-hw-mul\libm.a(lib_a-s_copysign.o)
                              c:/altera/10.1sp1/nios2eds/bin/gnu/h-i686-mingw32/bin/../lib/gcc/nios2-elf/4.1.2/../../../../nios2-elf/lib/mno-hw-mul\libm.a(lib_a-s_scalbn.o) (copysign)
c:/altera/10.1sp1/nios2eds/bin/gnu/h-i686-mingw32/bin/../lib/gcc/nios2-elf/4.1.2/mno-hw-mul\libgcc.a(_muldi3.o)
                              obj/fixedpoint2_16.o (__muldi3)
c:/altera/10.1sp1/nios2eds/bin/gnu/h-i686-mingw32/bin/../lib/gcc/nios2-elf/4.1.2/mno-hw-mul\libgcc.a(_addsub_sf.o)
                              obj/FFT/simpleDFT.o (__subsf3)
c:/altera/10.1sp1/nios2eds/bin/gnu/h-i686-mingw32/bin/../lib/gcc/nios2-elf/4.1.2/mno-hw-mul\libgcc.a(_mul_sf.o)
                              obj/AquisicaoRede.o (__mulsf3)
c:/altera/10.1sp1/nios2eds/bin/gnu/h-i686-mingw32/bin/../lib/gcc/nios2-elf/4.1.2/mno-hw-mul\libgcc.a(_div_sf.o)
                              obj/FFT/simpleDFT.o (__divsf3)
c:/altera/10.1sp1/nios2eds/bin/gnu/h-i686-mingw32/bin/../lib/gcc/nios2-elf/4.1.2/mno-hw-mul\libgcc.a(_ge_sf.o)
                              obj/fixedpoint2_16.o (__gesf2)
c:/altera/10.1sp1/nios2eds/bin/gnu/h-i686-mingw32/bin/../lib/gcc/nios2-elf/4.1.2/mno-hw-mul\libgcc.a(_lt_sf.o)
                              c:/altera/10.1sp1/nios2eds/bin/gnu/h-i686-mingw32/bin/../lib/gcc/nios2-elf/4.1.2/../../../../nios2-elf/lib/mno-hw-mul\libm.a(lib_a-wf_sqrt.o) (__ltsf2)
c:/altera/10.1sp1/nios2eds/bin/gnu/h-i686-mingw32/bin/../lib/gcc/nios2-elf/4.1.2/mno-hw-mul\libgcc.a(_si_to_sf.o)
                              obj/FFT/simpleDFT.o (__floatsisf)
c:/altera/10.1sp1/nios2eds/bin/gnu/h-i686-mingw32/bin/../lib/gcc/nios2-elf/4.1.2/mno-hw-mul\libgcc.a(_sf_to_si.o)
                              obj/FFT/simpleDFT.o (__fixsfsi)
c:/altera/10.1sp1/nios2eds/bin/gnu/h-i686-mingw32/bin/../lib/gcc/nios2-elf/4.1.2/mno-hw-mul\libgcc.a(_sf_to_df.o)
                              obj/AquisicaoRede.o (__extendsfdf2)
c:/altera/10.1sp1/nios2eds/bin/gnu/h-i686-mingw32/bin/../lib/gcc/nios2-elf/4.1.2/mno-hw-mul\libgcc.a(_thenan_sf.o)
                              c:/altera/10.1sp1/nios2eds/bin/gnu/h-i686-mingw32/bin/../lib/gcc/nios2-elf/4.1.2/mno-hw-mul\libgcc.a(_addsub_sf.o) (__thenan_sf)
c:/altera/10.1sp1/nios2eds/bin/gnu/h-i686-mingw32/bin/../lib/gcc/nios2-elf/4.1.2/mno-hw-mul\libgcc.a(_addsub_df.o)
                              c:/altera/10.1sp1/nios2eds/bin/gnu/h-i686-mingw32/bin/../lib/gcc/nios2-elf/4.1.2/../../../../nios2-elf/lib/mno-hw-mul\libm.a(lib_a-s_cos.o) (__subdf3)
c:/altera/10.1sp1/nios2eds/bin/gnu/h-i686-mingw32/bin/../lib/gcc/nios2-elf/4.1.2/mno-hw-mul\libgcc.a(_mul_df.o)
                              obj/AquisicaoRede.o (__muldf3)
c:/altera/10.1sp1/nios2eds/bin/gnu/h-i686-mingw32/bin/../lib/gcc/nios2-elf/4.1.2/mno-hw-mul\libgcc.a(_div_df.o)
                              obj/FFT/simpleDFT.o (__divdf3)
c:/altera/10.1sp1/nios2eds/bin/gnu/h-i686-mingw32/bin/../lib/gcc/nios2-elf/4.1.2/mno-hw-mul\libgcc.a(_eq_df.o)
                              c:/altera/10.1sp1/nios2eds/bin/gnu/h-i686-mingw32/bin/../lib/gcc/nios2-elf/4.1.2/../../../../nios2-elf/lib/mno-hw-mul\libm.a(lib_a-e_rem_pio2.o) (__eqdf2)
c:/altera/10.1sp1/nios2eds/bin/gnu/h-i686-mingw32/bin/../lib/gcc/nios2-elf/4.1.2/mno-hw-mul\libgcc.a(_gt_df.o)
                              c:/altera/10.1sp1/nios2eds/bin/gnu/h-i686-mingw32/bin/../lib/gcc/nios2-elf/4.1.2/../../../../nios2-elf/lib/mno-hw-mul\libm.a(lib_a-s_floor.o) (__gtdf2)
c:/altera/10.1sp1/nios2eds/bin/gnu/h-i686-mingw32/bin/../lib/gcc/nios2-elf/4.1.2/mno-hw-mul\libgcc.a(_ge_df.o)
                              c:/altera/10.1sp1/nios2eds/bin/gnu/h-i686-mingw32/bin/../lib/gcc/nios2-elf/4.1.2/../../../../nios2-elf/lib/mno-hw-mul\libm.a(lib_a-k_rem_pio2.o) (__gedf2)
c:/altera/10.1sp1/nios2eds/bin/gnu/h-i686-mingw32/bin/../lib/gcc/nios2-elf/4.1.2/mno-hw-mul\libgcc.a(_lt_df.o)
                              c:/altera/10.1sp1/nios2eds/bin/gnu/h-i686-mingw32/bin/../lib/gcc/nios2-elf/4.1.2/../../../../nios2-elf/lib/mno-hw-mul\libm.a(lib_a-w_sqrt.o) (__ltdf2)
c:/altera/10.1sp1/nios2eds/bin/gnu/h-i686-mingw32/bin/../lib/gcc/nios2-elf/4.1.2/mno-hw-mul\libgcc.a(_si_to_df.o)
                              obj/FFT/simpleDFT.o (__floatsidf)
c:/altera/10.1sp1/nios2eds/bin/gnu/h-i686-mingw32/bin/../lib/gcc/nios2-elf/4.1.2/mno-hw-mul\libgcc.a(_df_to_si.o)
                              obj/fixedpoint2_16.o (__fixdfsi)
c:/altera/10.1sp1/nios2eds/bin/gnu/h-i686-mingw32/bin/../lib/gcc/nios2-elf/4.1.2/mno-hw-mul\libgcc.a(_make_df.o)
                              c:/altera/10.1sp1/nios2eds/bin/gnu/h-i686-mingw32/bin/../lib/gcc/nios2-elf/4.1.2/mno-hw-mul\libgcc.a(_sf_to_df.o) (__make_dp)
c:/altera/10.1sp1/nios2eds/bin/gnu/h-i686-mingw32/bin/../lib/gcc/nios2-elf/4.1.2/mno-hw-mul\libgcc.a(_df_to_sf.o)
                              obj/AquisicaoRede.o (__truncdfsf2)
c:/altera/10.1sp1/nios2eds/bin/gnu/h-i686-mingw32/bin/../lib/gcc/nios2-elf/4.1.2/mno-hw-mul\libgcc.a(_thenan_df.o)
                              c:/altera/10.1sp1/nios2eds/bin/gnu/h-i686-mingw32/bin/../lib/gcc/nios2-elf/4.1.2/mno-hw-mul\libgcc.a(_addsub_df.o) (__thenan_df)
c:/altera/10.1sp1/nios2eds/bin/gnu/h-i686-mingw32/bin/../lib/gcc/nios2-elf/4.1.2/mno-hw-mul\libgcc.a(_usi_to_df.o)
                              obj/FFT/simpleDFT.o (__floatunsidf)
c:/altera/10.1sp1/nios2eds/bin/gnu/h-i686-mingw32/bin/../lib/gcc/nios2-elf/4.1.2/mno-hw-mul\libgcc.a(lib2-divmod.o)
                              obj/DanWindow/DanWindow.o (__divsi3)
c:/altera/10.1sp1/nios2eds/bin/gnu/h-i686-mingw32/bin/../lib/gcc/nios2-elf/4.1.2/mno-hw-mul\libgcc.a(lib2-mul.o)
                              obj/DanWindow/DanWindow.o (__mulsi3)
c:/altera/10.1sp1/nios2eds/bin/gnu/h-i686-mingw32/bin/../lib/gcc/nios2-elf/4.1.2/mno-hw-mul\libgcc.a(_clzsi2.o)
                              c:/altera/10.1sp1/nios2eds/bin/gnu/h-i686-mingw32/bin/../lib/gcc/nios2-elf/4.1.2/mno-hw-mul\libgcc.a(_si_to_sf.o) (__clzsi2)
c:/altera/10.1sp1/nios2eds/bin/gnu/h-i686-mingw32/bin/../lib/gcc/nios2-elf/4.1.2/mno-hw-mul\libgcc.a(_pack_sf.o)
                              c:/altera/10.1sp1/nios2eds/bin/gnu/h-i686-mingw32/bin/../lib/gcc/nios2-elf/4.1.2/mno-hw-mul\libgcc.a(_addsub_sf.o) (__pack_f)
c:/altera/10.1sp1/nios2eds/bin/gnu/h-i686-mingw32/bin/../lib/gcc/nios2-elf/4.1.2/mno-hw-mul\libgcc.a(_unpack_sf.o)
                              c:/altera/10.1sp1/nios2eds/bin/gnu/h-i686-mingw32/bin/../lib/gcc/nios2-elf/4.1.2/mno-hw-mul\libgcc.a(_addsub_sf.o) (__unpack_f)
c:/altera/10.1sp1/nios2eds/bin/gnu/h-i686-mingw32/bin/../lib/gcc/nios2-elf/4.1.2/mno-hw-mul\libgcc.a(_fpcmp_parts_sf.o)
                              c:/altera/10.1sp1/nios2eds/bin/gnu/h-i686-mingw32/bin/../lib/gcc/nios2-elf/4.1.2/mno-hw-mul\libgcc.a(_ge_sf.o) (__fpcmp_parts_f)
c:/altera/10.1sp1/nios2eds/bin/gnu/h-i686-mingw32/bin/../lib/gcc/nios2-elf/4.1.2/mno-hw-mul\libgcc.a(_make_sf.o)
                              c:/altera/10.1sp1/nios2eds/bin/gnu/h-i686-mingw32/bin/../lib/gcc/nios2-elf/4.1.2/mno-hw-mul\libgcc.a(_df_to_sf.o) (__make_fp)
c:/altera/10.1sp1/nios2eds/bin/gnu/h-i686-mingw32/bin/../lib/gcc/nios2-elf/4.1.2/mno-hw-mul\libgcc.a(_pack_df.o)
                              c:/altera/10.1sp1/nios2eds/bin/gnu/h-i686-mingw32/bin/../lib/gcc/nios2-elf/4.1.2/mno-hw-mul\libgcc.a(_addsub_df.o) (__pack_d)
c:/altera/10.1sp1/nios2eds/bin/gnu/h-i686-mingw32/bin/../lib/gcc/nios2-elf/4.1.2/mno-hw-mul\libgcc.a(_unpack_df.o)
                              c:/altera/10.1sp1/nios2eds/bin/gnu/h-i686-mingw32/bin/../lib/gcc/nios2-elf/4.1.2/mno-hw-mul\libgcc.a(_addsub_df.o) (__unpack_d)
c:/altera/10.1sp1/nios2eds/bin/gnu/h-i686-mingw32/bin/../lib/gcc/nios2-elf/4.1.2/mno-hw-mul\libgcc.a(_fpcmp_parts_df.o)
                              c:/altera/10.1sp1/nios2eds/bin/gnu/h-i686-mingw32/bin/../lib/gcc/nios2-elf/4.1.2/mno-hw-mul\libgcc.a(_eq_df.o) (__fpcmp_parts_d)
c:/altera/10.1sp1/nios2eds/bin/gnu/h-i686-mingw32/bin/../lib/gcc/nios2-elf/4.1.2/mno-hw-mul\libgcc.a(_clz.o)
                              c:/altera/10.1sp1/nios2eds/bin/gnu/h-i686-mingw32/bin/../lib/gcc/nios2-elf/4.1.2/mno-hw-mul\libgcc.a(_clzsi2.o) (__clz_tab)
c:/altera/10.1sp1/nios2eds/bin/gnu/h-i686-mingw32/bin/../lib/gcc/nios2-elf/4.1.2/../../../../nios2-elf/lib/mno-hw-mul\libc.a(lib_a-ctype_.o)
                              obj/network_utilities.o (__ctype_ptr)
c:/altera/10.1sp1/nios2eds/bin/gnu/h-i686-mingw32/bin/../lib/gcc/nios2-elf/4.1.2/../../../../nios2-elf/lib/mno-hw-mul\libc.a(lib_a-errno.o)
                              c:/altera/10.1sp1/nios2eds/bin/gnu/h-i686-mingw32/bin/../lib/gcc/nios2-elf/4.1.2/../../../../nios2-elf/lib/mno-hw-mul\libm.a(lib_a-w_sqrt.o) (__errno)
c:/altera/10.1sp1/nios2eds/bin/gnu/h-i686-mingw32/bin/../lib/gcc/nios2-elf/4.1.2/../../../../nios2-elf/lib/mno-hw-mul\libc.a(lib_a-fprintf.o)
                              obj/alt_error_handler.o (fprintf)
c:/altera/10.1sp1/nios2eds/bin/gnu/h-i686-mingw32/bin/../lib/gcc/nios2-elf/4.1.2/../../../../nios2-elf/lib/mno-hw-mul\libc.a(lib_a-fwrite.o)
                              obj/alt_error_handler.o (fwrite)
c:/altera/10.1sp1/nios2eds/bin/gnu/h-i686-mingw32/bin/../lib/gcc/nios2-elf/4.1.2/../../../../nios2-elf/lib/mno-hw-mul\libc.a(lib_a-getc.o)
                              obj/network_utilities.o (getc)
c:/altera/10.1sp1/nios2eds/bin/gnu/h-i686-mingw32/bin/../lib/gcc/nios2-elf/4.1.2/../../../../nios2-elf/lib/mno-hw-mul\libc.a(lib_a-impure.o)
                              obj/alt_error_handler.o (_impure_ptr)
c:/altera/10.1sp1/nios2eds/bin/gnu/h-i686-mingw32/bin/../lib/gcc/nios2-elf/4.1.2/../../../../nios2-elf/lib/mno-hw-mul\libc.a(lib_a-malign.o)
                              obj/alt_video_display/alt_video_display.o (memalign)
c:/altera/10.1sp1/nios2eds/bin/gnu/h-i686-mingw32/bin/../lib/gcc/nios2-elf/4.1.2/../../../../nios2-elf/lib/mno-hw-mul\libc.a(lib_a-malignr.o)
                              c:/altera/10.1sp1/nios2eds/bin/gnu/h-i686-mingw32/bin/../lib/gcc/nios2-elf/4.1.2/../../../../nios2-elf/lib/mno-hw-mul\libc.a(lib_a-malign.o) (_memalign_r)
c:/altera/10.1sp1/nios2eds/bin/gnu/h-i686-mingw32/bin/../lib/gcc/nios2-elf/4.1.2/../../../../nios2-elf/lib/mno-hw-mul\libc.a(lib_a-malloc.o)
                              obj/alt_video_display/alt_video_display.o (free)
c:/altera/10.1sp1/nios2eds/bin/gnu/h-i686-mingw32/bin/../lib/gcc/nios2-elf/4.1.2/../../../../nios2-elf/lib/mno-hw-mul\libc.a(lib_a-mallocr.o)
                              c:/altera/10.1sp1/nios2eds/bin/gnu/h-i686-mingw32/bin/../lib/gcc/nios2-elf/4.1.2/../../../../nios2-elf/lib/mno-hw-mul\libc.a(lib_a-malignr.o) (_malloc_r)
c:/altera/10.1sp1/nios2eds/bin/gnu/h-i686-mingw32/bin/../lib/gcc/nios2-elf/4.1.2/../../../../nios2-elf/lib/mno-hw-mul\libc.a(lib_a-memcpy.o)
                              obj/graphics_lib/simple_graphics.o (memcpy)
c:/altera/10.1sp1/nios2eds/bin/gnu/h-i686-mingw32/bin/../lib/gcc/nios2-elf/4.1.2/../../../../nios2-elf/lib/mno-hw-mul\libc.a(lib_a-memset.o)
                              obj/alt_video_display/alt_video_display.o (memset)
c:/altera/10.1sp1/nios2eds/bin/gnu/h-i686-mingw32/bin/../lib/gcc/nios2-elf/4.1.2/../../../../nios2-elf/lib/mno-hw-mul\libc.a(lib_a-perror.o)
                              obj/alt_error_handler.o (perror)
c:/altera/10.1sp1/nios2eds/bin/gnu/h-i686-mingw32/bin/../lib/gcc/nios2-elf/4.1.2/../../../../nios2-elf/lib/mno-hw-mul\libc.a(lib_a-printf.o)
                              obj/AquisicaoRede.o (printf)
c:/altera/10.1sp1/nios2eds/bin/gnu/h-i686-mingw32/bin/../lib/gcc/nios2-elf/4.1.2/../../../../nios2-elf/lib/mno-hw-mul\libc.a(lib_a-putc.o)
                              obj/network_utilities.o (putc)
c:/altera/10.1sp1/nios2eds/bin/gnu/h-i686-mingw32/bin/../lib/gcc/nios2-elf/4.1.2/../../../../nios2-elf/lib/mno-hw-mul\libc.a(lib_a-putchar.o)
                              obj/network_utilities.o (putchar)
c:/altera/10.1sp1/nios2eds/bin/gnu/h-i686-mingw32/bin/../lib/gcc/nios2-elf/4.1.2/../../../../nios2-elf/lib/mno-hw-mul\libc.a(lib_a-puts.o)
                              obj/AquisicaoRede.o (puts)
c:/altera/10.1sp1/nios2eds/bin/gnu/h-i686-mingw32/bin/../lib/gcc/nios2-elf/4.1.2/../../../../nios2-elf/lib/mno-hw-mul\libc.a(lib_a-rget.o)
                              c:/altera/10.1sp1/nios2eds/bin/gnu/h-i686-mingw32/bin/../lib/gcc/nios2-elf/4.1.2/../../../../nios2-elf/lib/mno-hw-mul\libc.a(lib_a-getc.o) (__srget_r)
c:/altera/10.1sp1/nios2eds/bin/gnu/h-i686-mingw32/bin/../lib/gcc/nios2-elf/4.1.2/../../../../nios2-elf/lib/mno-hw-mul\libc.a(lib_a-sbrkr.o)
                              c:/altera/10.1sp1/nios2eds/bin/gnu/h-i686-mingw32/bin/../lib/gcc/nios2-elf/4.1.2/../../../../nios2-elf/lib/mno-hw-mul\libc.a(lib_a-mallocr.o) (_sbrk_r)
c:/altera/10.1sp1/nios2eds/bin/gnu/h-i686-mingw32/bin/../lib/gcc/nios2-elf/4.1.2/../../../../nios2-elf/lib/mno-hw-mul\libc.a(lib_a-sprintf.o)
                              obj/LCDTask.o (sprintf)
c:/altera/10.1sp1/nios2eds/bin/gnu/h-i686-mingw32/bin/../lib/gcc/nios2-elf/4.1.2/../../../../nios2-elf/lib/mno-hw-mul\libc.a(lib_a-strcpy.o)
                              obj/graphics_lib/simple_graphics.o (strcpy)
c:/altera/10.1sp1/nios2eds/bin/gnu/h-i686-mingw32/bin/../lib/gcc/nios2-elf/4.1.2/../../../../nios2-elf/lib/mno-hw-mul\libc.a(lib_a-strerror.o)
                              c:/altera/10.1sp1/nios2eds/bin/gnu/h-i686-mingw32/bin/../lib/gcc/nios2-elf/4.1.2/../../../../nios2-elf/lib/mno-hw-mul\libc.a(lib_a-perror.o) (strerror)
c:/altera/10.1sp1/nios2eds/bin/gnu/h-i686-mingw32/bin/../lib/gcc/nios2-elf/4.1.2/../../../../nios2-elf/lib/mno-hw-mul\libc.a(lib_a-strlen.o)
                              obj/graphics_lib/simple_graphics.o (strlen)
c:/altera/10.1sp1/nios2eds/bin/gnu/h-i686-mingw32/bin/../lib/gcc/nios2-elf/4.1.2/../../../../nios2-elf/lib/mno-hw-mul\libc.a(lib_a-u_strerr.o)
                              c:/altera/10.1sp1/nios2eds/bin/gnu/h-i686-mingw32/bin/../lib/gcc/nios2-elf/4.1.2/../../../../nios2-elf/lib/mno-hw-mul\libc.a(lib_a-strerror.o) (_user_strerror)
c:/altera/10.1sp1/nios2eds/bin/gnu/h-i686-mingw32/bin/../lib/gcc/nios2-elf/4.1.2/../../../../nios2-elf/lib/mno-hw-mul\libc.a(lib_a-vfprintf.o)
                              c:/altera/10.1sp1/nios2eds/bin/gnu/h-i686-mingw32/bin/../lib/gcc/nios2-elf/4.1.2/../../../../nios2-elf/lib/mno-hw-mul\libc.a(lib_a-printf.o) (___vfprintf_internal_r)
c:/altera/10.1sp1/nios2eds/bin/gnu/h-i686-mingw32/bin/../lib/gcc/nios2-elf/4.1.2/../../../../nios2-elf/lib/mno-hw-mul\libc.a(lib_a-wbuf.o)
                              c:/altera/10.1sp1/nios2eds/bin/gnu/h-i686-mingw32/bin/../lib/gcc/nios2-elf/4.1.2/../../../../nios2-elf/lib/mno-hw-mul\libc.a(lib_a-putc.o) (__swbuf_r)
c:/altera/10.1sp1/nios2eds/bin/gnu/h-i686-mingw32/bin/../lib/gcc/nios2-elf/4.1.2/../../../../nios2-elf/lib/mno-hw-mul\libc.a(lib_a-wsetup.o)
                              c:/altera/10.1sp1/nios2eds/bin/gnu/h-i686-mingw32/bin/../lib/gcc/nios2-elf/4.1.2/../../../../nios2-elf/lib/mno-hw-mul\libc.a(lib_a-vfprintf.o) (__swsetup_r)
c:/altera/10.1sp1/nios2eds/bin/gnu/h-i686-mingw32/bin/../lib/gcc/nios2-elf/4.1.2/../../../../nios2-elf/lib/mno-hw-mul\libc.a(lib_a-dtoa.o)
                              c:/altera/10.1sp1/nios2eds/bin/gnu/h-i686-mingw32/bin/../lib/gcc/nios2-elf/4.1.2/../../../../nios2-elf/lib/mno-hw-mul\libc.a(lib_a-vfprintf.o) (_dtoa_r)
c:/altera/10.1sp1/nios2eds/bin/gnu/h-i686-mingw32/bin/../lib/gcc/nios2-elf/4.1.2/../../../../nios2-elf/lib/mno-hw-mul\libc.a(lib_a-fflush.o)
                              c:/altera/10.1sp1/nios2eds/bin/gnu/h-i686-mingw32/bin/../lib/gcc/nios2-elf/4.1.2/../../../../nios2-elf/lib/mno-hw-mul\libc.a(lib_a-vfprintf.o) (_fflush_r)
c:/altera/10.1sp1/nios2eds/bin/gnu/h-i686-mingw32/bin/../lib/gcc/nios2-elf/4.1.2/../../../../nios2-elf/lib/mno-hw-mul\libc.a(lib_a-findfp.o)
                              c:/altera/10.1sp1/nios2eds/bin/gnu/h-i686-mingw32/bin/../lib/gcc/nios2-elf/4.1.2/../../../../nios2-elf/lib/mno-hw-mul\libc.a(lib_a-fwrite.o) (__sinit)
c:/altera/10.1sp1/nios2eds/bin/gnu/h-i686-mingw32/bin/../lib/gcc/nios2-elf/4.1.2/../../../../nios2-elf/lib/mno-hw-mul\libc.a(lib_a-fputc.o)
                              c:/altera/10.1sp1/nios2eds/bin/gnu/h-i686-mingw32/bin/../lib/gcc/nios2-elf/4.1.2/../../../../nios2-elf/lib/mno-hw-mul\libc.a(lib_a-perror.o) (fputc)
c:/altera/10.1sp1/nios2eds/bin/gnu/h-i686-mingw32/bin/../lib/gcc/nios2-elf/4.1.2/../../../../nios2-elf/lib/mno-hw-mul\libc.a(lib_a-fputs.o)
                              c:/altera/10.1sp1/nios2eds/bin/gnu/h-i686-mingw32/bin/../lib/gcc/nios2-elf/4.1.2/../../../../nios2-elf/lib/mno-hw-mul\libc.a(lib_a-perror.o) (fputs)
c:/altera/10.1sp1/nios2eds/bin/gnu/h-i686-mingw32/bin/../lib/gcc/nios2-elf/4.1.2/../../../../nios2-elf/lib/mno-hw-mul\libc.a(lib_a-freer.o)
                              c:/altera/10.1sp1/nios2eds/bin/gnu/h-i686-mingw32/bin/../lib/gcc/nios2-elf/4.1.2/../../../../nios2-elf/lib/mno-hw-mul\libc.a(lib_a-malignr.o) (_free_r)
c:/altera/10.1sp1/nios2eds/bin/gnu/h-i686-mingw32/bin/../lib/gcc/nios2-elf/4.1.2/../../../../nios2-elf/lib/mno-hw-mul\libc.a(lib_a-fvwrite.o)
                              c:/altera/10.1sp1/nios2eds/bin/gnu/h-i686-mingw32/bin/../lib/gcc/nios2-elf/4.1.2/../../../../nios2-elf/lib/mno-hw-mul\libc.a(lib_a-fwrite.o) (__sfvwrite_r)
c:/altera/10.1sp1/nios2eds/bin/gnu/h-i686-mingw32/bin/../lib/gcc/nios2-elf/4.1.2/../../../../nios2-elf/lib/mno-hw-mul\libc.a(lib_a-fwalk.o)
                              c:/altera/10.1sp1/nios2eds/bin/gnu/h-i686-mingw32/bin/../lib/gcc/nios2-elf/4.1.2/../../../../nios2-elf/lib/mno-hw-mul\libc.a(lib_a-fflush.o) (_fwalk_reent)
c:/altera/10.1sp1/nios2eds/bin/gnu/h-i686-mingw32/bin/../lib/gcc/nios2-elf/4.1.2/../../../../nios2-elf/lib/mno-hw-mul\libc.a(lib_a-int_errno.o)
                              c:/altera/10.1sp1/nios2eds/bin/gnu/h-i686-mingw32/bin/../lib/gcc/nios2-elf/4.1.2/../../../../nios2-elf/lib/mno-hw-mul\libc.a(lib_a-sbrkr.o) (errno)
c:/altera/10.1sp1/nios2eds/bin/gnu/h-i686-mingw32/bin/../lib/gcc/nios2-elf/4.1.2/../../../../nios2-elf/lib/mno-hw-mul\libc.a(lib_a-locale.o)
                              c:/altera/10.1sp1/nios2eds/bin/gnu/h-i686-mingw32/bin/../lib/gcc/nios2-elf/4.1.2/../../../../nios2-elf/lib/mno-hw-mul\libc.a(lib_a-vfprintf.o) (_localeconv_r)
c:/altera/10.1sp1/nios2eds/bin/gnu/h-i686-mingw32/bin/../lib/gcc/nios2-elf/4.1.2/../../../../nios2-elf/lib/mno-hw-mul\libc.a(lib_a-makebuf.o)
                              c:/altera/10.1sp1/nios2eds/bin/gnu/h-i686-mingw32/bin/../lib/gcc/nios2-elf/4.1.2/../../../../nios2-elf/lib/mno-hw-mul\libc.a(lib_a-wsetup.o) (__smakebuf_r)
c:/altera/10.1sp1/nios2eds/bin/gnu/h-i686-mingw32/bin/../lib/gcc/nios2-elf/4.1.2/../../../../nios2-elf/lib/mno-hw-mul\libc.a(lib_a-memchr.o)
                              c:/altera/10.1sp1/nios2eds/bin/gnu/h-i686-mingw32/bin/../lib/gcc/nios2-elf/4.1.2/../../../../nios2-elf/lib/mno-hw-mul\libc.a(lib_a-vfprintf.o) (memchr)
c:/altera/10.1sp1/nios2eds/bin/gnu/h-i686-mingw32/bin/../lib/gcc/nios2-elf/4.1.2/../../../../nios2-elf/lib/mno-hw-mul\libc.a(lib_a-memmove.o)
                              c:/altera/10.1sp1/nios2eds/bin/gnu/h-i686-mingw32/bin/../lib/gcc/nios2-elf/4.1.2/../../../../nios2-elf/lib/mno-hw-mul\libc.a(lib_a-fvwrite.o) (memmove)
c:/altera/10.1sp1/nios2eds/bin/gnu/h-i686-mingw32/bin/../lib/gcc/nios2-elf/4.1.2/../../../../nios2-elf/lib/mno-hw-mul\libc.a(lib_a-mprec.o)
                              c:/altera/10.1sp1/nios2eds/bin/gnu/h-i686-mingw32/bin/../lib/gcc/nios2-elf/4.1.2/../../../../nios2-elf/lib/mno-hw-mul\libc.a(lib_a-dtoa.o) (_Bfree)
c:/altera/10.1sp1/nios2eds/bin/gnu/h-i686-mingw32/bin/../lib/gcc/nios2-elf/4.1.2/../../../../nios2-elf/lib/mno-hw-mul\libc.a(lib_a-reallocr.o)
                              c:/altera/10.1sp1/nios2eds/bin/gnu/h-i686-mingw32/bin/../lib/gcc/nios2-elf/4.1.2/../../../../nios2-elf/lib/mno-hw-mul\libc.a(lib_a-fvwrite.o) (_realloc_r)
c:/altera/10.1sp1/nios2eds/bin/gnu/h-i686-mingw32/bin/../lib/gcc/nios2-elf/4.1.2/../../../../nios2-elf/lib/mno-hw-mul\libc.a(lib_a-refill.o)
                              c:/altera/10.1sp1/nios2eds/bin/gnu/h-i686-mingw32/bin/../lib/gcc/nios2-elf/4.1.2/../../../../nios2-elf/lib/mno-hw-mul\libc.a(lib_a-rget.o) (__srefill_r)
c:/altera/10.1sp1/nios2eds/bin/gnu/h-i686-mingw32/bin/../lib/gcc/nios2-elf/4.1.2/../../../../nios2-elf/lib/mno-hw-mul\libc.a(lib_a-s_isinfd.o)
                              c:/altera/10.1sp1/nios2eds/bin/gnu/h-i686-mingw32/bin/../lib/gcc/nios2-elf/4.1.2/../../../../nios2-elf/lib/mno-hw-mul\libc.a(lib_a-vfprintf.o) (__isinfd)
c:/altera/10.1sp1/nios2eds/bin/gnu/h-i686-mingw32/bin/../lib/gcc/nios2-elf/4.1.2/../../../../nios2-elf/lib/mno-hw-mul\libc.a(lib_a-stdio.o)
                              c:/altera/10.1sp1/nios2eds/bin/gnu/h-i686-mingw32/bin/../lib/gcc/nios2-elf/4.1.2/../../../../nios2-elf/lib/mno-hw-mul\libc.a(lib_a-findfp.o) (__sclose)
c:/altera/10.1sp1/nios2eds/bin/gnu/h-i686-mingw32/bin/../lib/gcc/nios2-elf/4.1.2/../../../../nios2-elf/lib/mno-hw-mul\libc.a(lib_a-strcmp.o)
                              c:/altera/10.1sp1/nios2eds/bin/gnu/h-i686-mingw32/bin/../lib/gcc/nios2-elf/4.1.2/../../../../nios2-elf/lib/mno-hw-mul\libc.a(lib_a-locale.o) (strcmp)
c:/altera/10.1sp1/nios2eds/bin/gnu/h-i686-mingw32/bin/../lib/gcc/nios2-elf/4.1.2/../../../../nios2-elf/lib/mno-hw-mul\libc.a(lib_a-writer.o)
                              c:/altera/10.1sp1/nios2eds/bin/gnu/h-i686-mingw32/bin/../lib/gcc/nios2-elf/4.1.2/../../../../nios2-elf/lib/mno-hw-mul\libc.a(lib_a-stdio.o) (_write_r)
c:/altera/10.1sp1/nios2eds/bin/gnu/h-i686-mingw32/bin/../lib/gcc/nios2-elf/4.1.2/../../../../nios2-elf/lib/mno-hw-mul\libc.a(lib_a-callocr.o)
                              c:/altera/10.1sp1/nios2eds/bin/gnu/h-i686-mingw32/bin/../lib/gcc/nios2-elf/4.1.2/../../../../nios2-elf/lib/mno-hw-mul\libc.a(lib_a-mprec.o) (_calloc_r)
c:/altera/10.1sp1/nios2eds/bin/gnu/h-i686-mingw32/bin/../lib/gcc/nios2-elf/4.1.2/../../../../nios2-elf/lib/mno-hw-mul\libc.a(lib_a-closer.o)
                              c:/altera/10.1sp1/nios2eds/bin/gnu/h-i686-mingw32/bin/../lib/gcc/nios2-elf/4.1.2/../../../../nios2-elf/lib/mno-hw-mul\libc.a(lib_a-stdio.o) (_close_r)
c:/altera/10.1sp1/nios2eds/bin/gnu/h-i686-mingw32/bin/../lib/gcc/nios2-elf/4.1.2/../../../../nios2-elf/lib/mno-hw-mul\libc.a(lib_a-fclose.o)
                              c:/altera/10.1sp1/nios2eds/bin/gnu/h-i686-mingw32/bin/../lib/gcc/nios2-elf/4.1.2/../../../../nios2-elf/lib/mno-hw-mul\libc.a(lib_a-findfp.o) (fclose)
c:/altera/10.1sp1/nios2eds/bin/gnu/h-i686-mingw32/bin/../lib/gcc/nios2-elf/4.1.2/../../../../nios2-elf/lib/mno-hw-mul\libc.a(lib_a-fstatr.o)
                              c:/altera/10.1sp1/nios2eds/bin/gnu/h-i686-mingw32/bin/../lib/gcc/nios2-elf/4.1.2/../../../../nios2-elf/lib/mno-hw-mul\libc.a(lib_a-makebuf.o) (_fstat_r)
c:/altera/10.1sp1/nios2eds/bin/gnu/h-i686-mingw32/bin/../lib/gcc/nios2-elf/4.1.2/../../../../nios2-elf/lib/mno-hw-mul\libc.a(lib_a-isattyr.o)
                              c:/altera/10.1sp1/nios2eds/bin/gnu/h-i686-mingw32/bin/../lib/gcc/nios2-elf/4.1.2/../../../../nios2-elf/lib/mno-hw-mul\libc.a(lib_a-makebuf.o) (_isatty_r)
c:/altera/10.1sp1/nios2eds/bin/gnu/h-i686-mingw32/bin/../lib/gcc/nios2-elf/4.1.2/../../../../nios2-elf/lib/mno-hw-mul\libc.a(lib_a-lseekr.o)
                              c:/altera/10.1sp1/nios2eds/bin/gnu/h-i686-mingw32/bin/../lib/gcc/nios2-elf/4.1.2/../../../../nios2-elf/lib/mno-hw-mul\libc.a(lib_a-stdio.o) (_lseek_r)
c:/altera/10.1sp1/nios2eds/bin/gnu/h-i686-mingw32/bin/../lib/gcc/nios2-elf/4.1.2/../../../../nios2-elf/lib/mno-hw-mul\libc.a(lib_a-readr.o)
                              c:/altera/10.1sp1/nios2eds/bin/gnu/h-i686-mingw32/bin/../lib/gcc/nios2-elf/4.1.2/../../../../nios2-elf/lib/mno-hw-mul\libc.a(lib_a-stdio.o) (_read_r)
c:/altera/10.1sp1/nios2eds/bin/gnu/h-i686-mingw32/bin/../lib/gcc/nios2-elf/4.1.2/mno-hw-mul\libgcc.a(_udivdi3.o)
                              c:/altera/10.1sp1/nios2eds/bin/gnu/h-i686-mingw32/bin/../lib/gcc/nios2-elf/4.1.2/../../../../nios2-elf/lib/mno-hw-mul\libc.a(lib_a-vfprintf.o) (__udivdi3)
c:/altera/10.1sp1/nios2eds/bin/gnu/h-i686-mingw32/bin/../lib/gcc/nios2-elf/4.1.2/mno-hw-mul\libgcc.a(_umoddi3.o)
                              c:/altera/10.1sp1/nios2eds/bin/gnu/h-i686-mingw32/bin/../lib/gcc/nios2-elf/4.1.2/../../../../nios2-elf/lib/mno-hw-mul\libc.a(lib_a-vfprintf.o) (__umoddi3)
c:/altera/10.1sp1/nios2eds/bin/gnu/h-i686-mingw32/bin/../lib/gcc/nios2-elf/4.1.2/mno-hw-mul\libgcc.a(_ne_df.o)
                              c:/altera/10.1sp1/nios2eds/bin/gnu/h-i686-mingw32/bin/../lib/gcc/nios2-elf/4.1.2/../../../../nios2-elf/lib/mno-hw-mul\libc.a(lib_a-vfprintf.o) (__nedf2)
../RedeFFTHW_bsp\libucosii_bsp.a(alt_fstat.o)
                              c:/altera/10.1sp1/nios2eds/bin/gnu/h-i686-mingw32/bin/../lib/gcc/nios2-elf/4.1.2/../../../../nios2-elf/lib/mno-hw-mul\libc.a(lib_a-fstatr.o) (fstat)
../RedeFFTHW_bsp\libucosii_bsp.a(alt_isatty.o)
                              c:/altera/10.1sp1/nios2eds/bin/gnu/h-i686-mingw32/bin/../lib/gcc/nios2-elf/4.1.2/../../../../nios2-elf/lib/mno-hw-mul\libc.a(lib_a-isattyr.o) (isatty)
../RedeFFTHW_bsp\libucosii_bsp.a(alt_load.o)
                              ../RedeFFTHW_bsp/obj/HAL/src/crt0.o (alt_load)
../RedeFFTHW_bsp\libucosii_bsp.a(alt_lseek.o)
                              c:/altera/10.1sp1/nios2eds/bin/gnu/h-i686-mingw32/bin/../lib/gcc/nios2-elf/4.1.2/../../../../nios2-elf/lib/mno-hw-mul\libc.a(lib_a-lseekr.o) (lseek)
../RedeFFTHW_bsp\libucosii_bsp.a(alt_main.o)
                              ../RedeFFTHW_bsp/obj/HAL/src/crt0.o (alt_main)
../RedeFFTHW_bsp\libucosii_bsp.a(alt_remap_cached.o)
                              obj/alt_video_display/alt_video_display.o (alt_remap_cached)
../RedeFFTHW_bsp\libucosii_bsp.a(alt_remap_uncached.o)
                              obj/alt_video_display/alt_video_display.o (alt_remap_uncached)
../RedeFFTHW_bsp\libucosii_bsp.a(alt_sbrk.o)
                              c:/altera/10.1sp1/nios2eds/bin/gnu/h-i686-mingw32/bin/../lib/gcc/nios2-elf/4.1.2/../../../../nios2-elf/lib/mno-hw-mul\libc.a(lib_a-sbrkr.o) (sbrk)
../RedeFFTHW_bsp\libucosii_bsp.a(alt_tick.o)
                              obj/graphics_lib/simple_graphics.o (_alt_tick_rate)
../RedeFFTHW_bsp\libucosii_bsp.a(alt_uncached_malloc.o)
                              obj/alt_video_display/alt_video_display.o (alt_uncached_malloc)
../RedeFFTHW_bsp\libucosii_bsp.a(alt_usleep.o)
                              obj/alt_tpo_lcd/alt_tpo_lcd.o (usleep)
../RedeFFTHW_bsp\libucosii_bsp.a(alt_env_lock.o)
                              ../RedeFFTHW_bsp\libucosii_bsp.a(alt_main.o) (alt_envsem)
../RedeFFTHW_bsp\libucosii_bsp.a(alt_malloc_lock.o)
                              c:/altera/10.1sp1/nios2eds/bin/gnu/h-i686-mingw32/bin/../lib/gcc/nios2-elf/4.1.2/../../../../nios2-elf/lib/mno-hw-mul\libc.a(lib_a-malignr.o) (__malloc_lock)
../RedeFFTHW_bsp\libucosii_bsp.a(os_core.o)
                              ../RedeFFTHW_bsp\libucosii_bsp.a(alt_main.o) (OSInit)
../RedeFFTHW_bsp\libucosii_bsp.a(os_dbg.o)
                              ../RedeFFTHW_bsp\libucosii_bsp.a(os_core.o) (OSDebugInit)
../RedeFFTHW_bsp\libucosii_bsp.a(os_flag.o)
                              obj/simple_socket_server.o (OSFlagCreate)
../RedeFFTHW_bsp\libucosii_bsp.a(os_mem.o)
                              ../RedeFFTHW_bsp\libucosii_bsp.a(os_core.o) (OS_MemInit)
../RedeFFTHW_bsp\libucosii_bsp.a(os_q.o)
                              ../RedeFFTHW_bsp\libucosii_bsp.a(os_core.o) (OS_QInit)
../RedeFFTHW_bsp\libucosii_bsp.a(os_sem.o)
                              ../RedeFFTHW_bsp\libucosii_bsp.a(alt_main.o) (OSSemCreate)
../RedeFFTHW_bsp\libucosii_bsp.a(os_task.o)
                              obj/iniche_init.o (OSTaskCreateExt)
../RedeFFTHW_bsp\libucosii_bsp.a(os_time.o)
                              obj/iniche_init.o (OSTimeDly)
../RedeFFTHW_bsp\libucosii_bsp.a(alt_sys_init.o)
                              ../RedeFFTHW_bsp\libucosii_bsp.a(alt_main.o) (alt_irq_init)
../RedeFFTHW_bsp\libucosii_bsp.a(altera_avalon_jtag_uart_fd.o)
                              ../RedeFFTHW_bsp\libucosii_bsp.a(alt_sys_init.o) (altera_avalon_jtag_uart_read_fd)
../RedeFFTHW_bsp\libucosii_bsp.a(altera_avalon_jtag_uart_init.o)
                              ../RedeFFTHW_bsp\libucosii_bsp.a(alt_sys_init.o) (altera_avalon_jtag_uart_init)
../RedeFFTHW_bsp\libucosii_bsp.a(altera_avalon_jtag_uart_ioctl.o)
                              ../RedeFFTHW_bsp\libucosii_bsp.a(altera_avalon_jtag_uart_fd.o) (altera_avalon_jtag_uart_ioctl)
../RedeFFTHW_bsp\libucosii_bsp.a(altera_avalon_jtag_uart_read.o)
                              ../RedeFFTHW_bsp\libucosii_bsp.a(altera_avalon_jtag_uart_fd.o) (altera_avalon_jtag_uart_read)
../RedeFFTHW_bsp\libucosii_bsp.a(altera_avalon_jtag_uart_write.o)
                              ../RedeFFTHW_bsp\libucosii_bsp.a(altera_avalon_jtag_uart_fd.o) (altera_avalon_jtag_uart_write)
../RedeFFTHW_bsp\libucosii_bsp.a(altera_avalon_sgdma.o)
                              obj/alt_video_display/alt_video_display.o (alt_avalon_sgdma_do_async_transfer)
../RedeFFTHW_bsp\libucosii_bsp.a(altera_avalon_timer_sc.o)
                              ../RedeFFTHW_bsp\libucosii_bsp.a(alt_sys_init.o) (alt_avalon_timer_sc_init)
../RedeFFTHW_bsp\libucosii_bsp.a(ins_tse_mac.o)
                              ../RedeFFTHW_bsp\libucosii_bsp.a(alt_sys_init.o) (number_of_tse_mac)
../RedeFFTHW_bsp\libucosii_bsp.a(perf_print_formatted_report.o)
                              obj/AquisicaoRede.o (perf_print_formatted_report)
../RedeFFTHW_bsp\libucosii_bsp.a(alt_iniche_close.o)
                              obj/simple_socket_server.o (close)
../RedeFFTHW_bsp\libucosii_bsp.a(alt_iniche_dev.o)
                              ../RedeFFTHW_bsp\libucosii_bsp.a(alt_sys_init.o) (alt_iniche_dev_list)
../RedeFFTHW_bsp\libucosii_bsp.a(alt_iniche_read.o)
                              c:/altera/10.1sp1/nios2eds/bin/gnu/h-i686-mingw32/bin/../lib/gcc/nios2-elf/4.1.2/../../../../nios2-elf/lib/mno-hw-mul\libc.a(lib_a-readr.o) (read)
../RedeFFTHW_bsp\libucosii_bsp.a(alt_iniche_write.o)
                              c:/altera/10.1sp1/nios2eds/bin/gnu/h-i686-mingw32/bin/../lib/gcc/nios2-elf/4.1.2/../../../../nios2-elf/lib/mno-hw-mul\libc.a(lib_a-writer.o) (write)
../RedeFFTHW_bsp\libucosii_bsp.a(ipnet.o)
                              ../RedeFFTHW_bsp\libucosii_bsp.a(ins_tse_mac.o) (rcvdq)
../RedeFFTHW_bsp\libucosii_bsp.a(ipstart.o)
                              ../RedeFFTHW_bsp\libucosii_bsp.a(ipnet.o) (ifNumber)
../RedeFFTHW_bsp\libucosii_bsp.a(igmp_cmn.o)
                              ../RedeFFTHW_bsp\libucosii_bsp.a(ipstart.o) (igmp_init)
../RedeFFTHW_bsp\libucosii_bsp.a(bsdsock.o)
                              obj/simple_socket_server.o (bsd_inet_ntoa)
../RedeFFTHW_bsp\libucosii_bsp.a(cksum.o)
                              ../RedeFFTHW_bsp\libucosii_bsp.a(igmp_cmn.o) (cksum)
../RedeFFTHW_bsp\libucosii_bsp.a(in_utils.o)
                              ../RedeFFTHW_bsp\libucosii_bsp.a(ins_tse_mac.o) (ns_printf)
../RedeFFTHW_bsp\libucosii_bsp.a(netmain.o)
                              obj/iniche_init.o (iniche_net_ready)
../RedeFFTHW_bsp\libucosii_bsp.a(tk_crnos.o)
                              ../RedeFFTHW_bsp\libucosii_bsp.a(ipnet.o) (tk_yield)
../RedeFFTHW_bsp\libucosii_bsp.a(dhcpclnt.o)
                              ../RedeFFTHW_bsp\libucosii_bsp.a(netmain.o) (dhc_second)
../RedeFFTHW_bsp\libucosii_bsp.a(dhcputil.o)
                              ../RedeFFTHW_bsp\libucosii_bsp.a(dhcpclnt.o) (find_opt)
../RedeFFTHW_bsp\libucosii_bsp.a(pktalloc.o)
                              ../RedeFFTHW_bsp\libucosii_bsp.a(ipnet.o) (pk_init)
../RedeFFTHW_bsp\libucosii_bsp.a(q.o)
                              ../RedeFFTHW_bsp\libucosii_bsp.a(ipnet.o) (getq)
../RedeFFTHW_bsp\libucosii_bsp.a(udp_open.o)
                              ../RedeFFTHW_bsp\libucosii_bsp.a(dhcpclnt.o) (udp_open)
../RedeFFTHW_bsp\libucosii_bsp.a(asm_cksum.o)
                              ../RedeFFTHW_bsp\libucosii_bsp.a(cksum.o) (asm_cksum)
../RedeFFTHW_bsp\libucosii_bsp.a(brdutils.o)
                              ../RedeFFTHW_bsp\libucosii_bsp.a(ipnet.o) (dtrap)
../RedeFFTHW_bsp\libucosii_bsp.a(osportco.o)
                              ../RedeFFTHW_bsp\libucosii_bsp.a(tk_crnos.o) (tcp_sleep_count)
../RedeFFTHW_bsp\libucosii_bsp.a(targnios.o)
                              obj/iniche_init.o (alt_iniche_init)
../RedeFFTHW_bsp\libucosii_bsp.a(nptcp.o)
                              ../RedeFFTHW_bsp\libucosii_bsp.a(bsdsock.o) (soq)
../RedeFFTHW_bsp\libucosii_bsp.a(rawsock.o)
                              ../RedeFFTHW_bsp\libucosii_bsp.a(nptcp.o) (rawip_usrreq)
../RedeFFTHW_bsp\libucosii_bsp.a(sockcall.o)
                              obj/simple_socket_server.o (t_socket)
../RedeFFTHW_bsp\libucosii_bsp.a(socket.o)
                              ../RedeFFTHW_bsp\libucosii_bsp.a(sockcall.o) (socreate)
../RedeFFTHW_bsp\libucosii_bsp.a(socket2.o)
                              ../RedeFFTHW_bsp\libucosii_bsp.a(sockcall.o) (soqremque)
../RedeFFTHW_bsp\libucosii_bsp.a(soselect.o)
                              ../RedeFFTHW_bsp\libucosii_bsp.a(bsdsock.o) (t_select)
../RedeFFTHW_bsp\libucosii_bsp.a(tcp_in.o)
                              ../RedeFFTHW_bsp\libucosii_bsp.a(nptcp.o) (tcp_input)
../RedeFFTHW_bsp\libucosii_bsp.a(tcp_out.o)
                              ../RedeFFTHW_bsp\libucosii_bsp.a(tcp_in.o) (tcp_output)
../RedeFFTHW_bsp\libucosii_bsp.a(tcp_subr.o)
                              ../RedeFFTHW_bsp\libucosii_bsp.a(nptcp.o) (tcp_init)
../RedeFFTHW_bsp\libucosii_bsp.a(tcp_timr.o)
                              ../RedeFFTHW_bsp\libucosii_bsp.a(tcp_in.o) (tcp_keepidle)
../RedeFFTHW_bsp\libucosii_bsp.a(tcp_usr.o)
                              ../RedeFFTHW_bsp\libucosii_bsp.a(nptcp.o) (tcp_usrreq)
../RedeFFTHW_bsp\libucosii_bsp.a(tcpport.o)
                              ../RedeFFTHW_bsp\libucosii_bsp.a(ipstart.o) (tcpinit)
../RedeFFTHW_bsp\libucosii_bsp.a(udpsock.o)
                              ../RedeFFTHW_bsp\libucosii_bsp.a(nptcp.o) (udp_usrreq)
../RedeFFTHW_bsp\libucosii_bsp.a(alt_alarm_start.o)
                              ../RedeFFTHW_bsp\libucosii_bsp.a(altera_avalon_jtag_uart_init.o) (alt_alarm_start)
../RedeFFTHW_bsp\libucosii_bsp.a(alt_busy_sleep.o)
                              ../RedeFFTHW_bsp\libucosii_bsp.a(alt_usleep.o) (alt_busy_sleep)
../RedeFFTHW_bsp\libucosii_bsp.a(alt_close.o)
                              ../RedeFFTHW_bsp\libucosii_bsp.a(alt_iniche_close.o) (alt_close)
../RedeFFTHW_bsp\libucosii_bsp.a(alt_dcache_flush.o)
                              ../RedeFFTHW_bsp\libucosii_bsp.a(alt_remap_uncached.o) (alt_dcache_flush)
../RedeFFTHW_bsp\libucosii_bsp.a(alt_dcache_flush_all.o)
                              ../RedeFFTHW_bsp\libucosii_bsp.a(alt_load.o) (alt_dcache_flush_all)
../RedeFFTHW_bsp\libucosii_bsp.a(alt_dev.o)
                              ../RedeFFTHW_bsp\libucosii_bsp.a(alt_sys_init.o) (alt_dev_list)
../RedeFFTHW_bsp\libucosii_bsp.a(alt_dev_llist_insert.o)
                              ../RedeFFTHW_bsp\libucosii_bsp.a(alt_sys_init.o) (alt_dev_llist_insert)
../RedeFFTHW_bsp\libucosii_bsp.a(alt_do_ctors.o)
                              ../RedeFFTHW_bsp\libucosii_bsp.a(alt_main.o) (_do_ctors)
../RedeFFTHW_bsp\libucosii_bsp.a(alt_do_dtors.o)
                              ../RedeFFTHW_bsp\libucosii_bsp.a(alt_main.o) (_do_dtors)
../RedeFFTHW_bsp\libucosii_bsp.a(alt_errno.o)
                              ../RedeFFTHW_bsp\libucosii_bsp.a(alt_fstat.o) (alt_errno)
../RedeFFTHW_bsp\libucosii_bsp.a(alt_find_dev.o)
                              ../RedeFFTHW_bsp\libucosii_bsp.a(altera_avalon_sgdma.o) (alt_find_dev)
../RedeFFTHW_bsp\libucosii_bsp.a(alt_icache_flush_all.o)
                              ../RedeFFTHW_bsp\libucosii_bsp.a(alt_load.o) (alt_icache_flush_all)
../RedeFFTHW_bsp\libucosii_bsp.a(alt_iic.o)
                              ../RedeFFTHW_bsp\libucosii_bsp.a(altera_avalon_jtag_uart_init.o) (alt_ic_isr_register)
../RedeFFTHW_bsp\libucosii_bsp.a(alt_iic_isr_register.o)
                              ../RedeFFTHW_bsp\libucosii_bsp.a(alt_iic.o) (alt_iic_isr_register)
../RedeFFTHW_bsp\libucosii_bsp.a(alt_io_redirect.o)
                              ../RedeFFTHW_bsp\libucosii_bsp.a(alt_main.o) (alt_io_redirect)
../RedeFFTHW_bsp\libucosii_bsp.a(alt_irq_entry.o)
                              ../RedeFFTHW_bsp\libucosii_bsp.a(alt_iic_isr_register.o) (alt_irq_entry)
../RedeFFTHW_bsp\libucosii_bsp.a(alt_irq_handler.o)
                              ../RedeFFTHW_bsp\libucosii_bsp.a(alt_iic_isr_register.o) (alt_irq_handler)
../RedeFFTHW_bsp\libucosii_bsp.a(alt_irq_vars.o)
                              ../RedeFFTHW_bsp\libucosii_bsp.a(alt_iic.o) (alt_irq_active)
../RedeFFTHW_bsp\libucosii_bsp.a(alt_open.o)
                              ../RedeFFTHW_bsp\libucosii_bsp.a(alt_io_redirect.o) (open)
../RedeFFTHW_bsp\libucosii_bsp.a(alt_read.o)
                              ../RedeFFTHW_bsp\libucosii_bsp.a(alt_iniche_read.o) (alt_read)
../RedeFFTHW_bsp\libucosii_bsp.a(alt_release_fd.o)
                              ../RedeFFTHW_bsp\libucosii_bsp.a(alt_close.o) (alt_release_fd)
../RedeFFTHW_bsp\libucosii_bsp.a(alt_write.o)
                              ../RedeFFTHW_bsp\libucosii_bsp.a(alt_iniche_write.o) (alt_write)
../RedeFFTHW_bsp\libucosii_bsp.a(altera_nios2_irq.o)
                              ../RedeFFTHW_bsp\libucosii_bsp.a(alt_sys_init.o) (altera_nios2_irq_init)
../RedeFFTHW_bsp\libucosii_bsp.a(os_cpu_a.o)
                              ../RedeFFTHW_bsp\libucosii_bsp.a(os_core.o) (OSIntCtxSw)
../RedeFFTHW_bsp\libucosii_bsp.a(os_cpu_c.o)
                              ../RedeFFTHW_bsp\libucosii_bsp.a(os_task.o) (OSTaskStkInit)
../RedeFFTHW_bsp\libucosii_bsp.a(altera_avalon_performance_counter.o)
                              ../RedeFFTHW_bsp\libucosii_bsp.a(perf_print_formatted_report.o) (perf_get_section_time)
../RedeFFTHW_bsp\libucosii_bsp.a(altera_avalon_tse.o)
                              ../RedeFFTHW_bsp\libucosii_bsp.a(ins_tse_mac.o) (tse_mac_initTransInfo2)
../RedeFFTHW_bsp\libucosii_bsp.a(altera_avalon_tse_system_info.o)
                              ../RedeFFTHW_bsp\libucosii_bsp.a(ins_tse_mac.o) (tse_mac_device)
../RedeFFTHW_bsp\libucosii_bsp.a(allports.o)
                              ../RedeFFTHW_bsp\libucosii_bsp.a(dhcpclnt.o) (name)
../RedeFFTHW_bsp\libucosii_bsp.a(timeouts.o)
                              ../RedeFFTHW_bsp\libucosii_bsp.a(netmain.o) (inet_timer)
../RedeFFTHW_bsp\libucosii_bsp.a(tk_misc.o)
                              ../RedeFFTHW_bsp\libucosii_bsp.a(netmain.o) (create_apptasks)
../RedeFFTHW_bsp\libucosii_bsp.a(alt_iniche_fcntl.o)
                              ../RedeFFTHW_bsp\libucosii_bsp.a(brdutils.o) (fcntl)
../RedeFFTHW_bsp\libucosii_bsp.a(et_arp.o)
                              ../RedeFFTHW_bsp\libucosii_bsp.a(ipstart.o) (etainit)
../RedeFFTHW_bsp\libucosii_bsp.a(iface.o)
                              ../RedeFFTHW_bsp\libucosii_bsp.a(ipnet.o) (netlist)
../RedeFFTHW_bsp\libucosii_bsp.a(ip.o)
                              ../RedeFFTHW_bsp\libucosii_bsp.a(ipstart.o) (ip_init)
../RedeFFTHW_bsp\libucosii_bsp.a(ip_reasm.o)
                              ../RedeFFTHW_bsp\libucosii_bsp.a(timeouts.o) (ire_cticks)
../RedeFFTHW_bsp\libucosii_bsp.a(ipdemux.o)
                              ../RedeFFTHW_bsp\libucosii_bsp.a(ipnet.o) (ip_rcv)
../RedeFFTHW_bsp\libucosii_bsp.a(ipmc.o)
                              ../RedeFFTHW_bsp\libucosii_bsp.a(ipstart.o) (in_addmulti)
../RedeFFTHW_bsp\libucosii_bsp.a(ipport.o)
                              ../RedeFFTHW_bsp\libucosii_bsp.a(targnios.o) (port_prep)
../RedeFFTHW_bsp\libucosii_bsp.a(ipraw.o)
                              ../RedeFFTHW_bsp\libucosii_bsp.a(rawsock.o) (ipraw_eps)
../RedeFFTHW_bsp\libucosii_bsp.a(iproute.o)
                              ../RedeFFTHW_bsp\libucosii_bsp.a(ip.o) (cachedRoute)
../RedeFFTHW_bsp\libucosii_bsp.a(udp.o)
                              ../RedeFFTHW_bsp\libucosii_bsp.a(ipdemux.o) (udpdemux)
../RedeFFTHW_bsp\libucosii_bsp.a(igmp.o)
                              ../RedeFFTHW_bsp\libucosii_bsp.a(igmp_cmn.o) (igmpv1_input)
../RedeFFTHW_bsp\libucosii_bsp.a(igmp2.o)
                              ../RedeFFTHW_bsp\libucosii_bsp.a(igmp_cmn.o) (igmpv2_input)
../RedeFFTHW_bsp\libucosii_bsp.a(ipopt.o)
                              ../RedeFFTHW_bsp\libucosii_bsp.a(socket.o) (ip_setmoptions)
../RedeFFTHW_bsp\libucosii_bsp.a(u_mctest.o)
                              ../RedeFFTHW_bsp\libucosii_bsp.a(allports.o) (u_mctest_init)
../RedeFFTHW_bsp\libucosii_bsp.a(dhcsetup.o)
                              ../RedeFFTHW_bsp\libucosii_bsp.a(allports.o) (dhc_setup)
../RedeFFTHW_bsp\libucosii_bsp.a(memdev.o)
                              ../RedeFFTHW_bsp\libucosii_bsp.a(allports.o) (init_memdev)
../RedeFFTHW_bsp\libucosii_bsp.a(parseip.o)
                              ../RedeFFTHW_bsp\libucosii_bsp.a(u_mctest.o) (inet_addr)
../RedeFFTHW_bsp\libucosii_bsp.a(tcpcksum.o)
                              ../RedeFFTHW_bsp\libucosii_bsp.a(nptcp.o) (tcp_cksum)
../RedeFFTHW_bsp\libucosii_bsp.a(in_pcb.o)
                              ../RedeFFTHW_bsp\libucosii_bsp.a(tcp_usr.o) (in_pcballoc)
../RedeFFTHW_bsp\libucosii_bsp.a(vfsfiles.o)
                              ../RedeFFTHW_bsp\libucosii_bsp.a(memdev.o) (vfsystems)
../RedeFFTHW_bsp\libucosii_bsp.a(vfsport.o)
                              ../RedeFFTHW_bsp\libucosii_bsp.a(allports.o) (prep_vfs)
../RedeFFTHW_bsp\libucosii_bsp.a(alt_exception_entry.o)
                              ../RedeFFTHW_bsp\libucosii_bsp.a(alt_irq_entry.o) (alt_exception)
../RedeFFTHW_bsp\libucosii_bsp.a(alt_fcntl.o)
                              ../RedeFFTHW_bsp\libucosii_bsp.a(alt_iniche_fcntl.o) (alt_fcntl)
../RedeFFTHW_bsp\libucosii_bsp.a(alt_find_file.o)
                              ../RedeFFTHW_bsp\libucosii_bsp.a(alt_open.o) (alt_find_file)
../RedeFFTHW_bsp\libucosii_bsp.a(alt_get_fd.o)
                              ../RedeFFTHW_bsp\libucosii_bsp.a(alt_open.o) (alt_get_fd)
../RedeFFTHW_bsp\libucosii_bsp.a(icmp.o)
                              ../RedeFFTHW_bsp\libucosii_bsp.a(ipdemux.o) (icmprcv)
c:/altera/10.1sp1/nios2eds/bin/gnu/h-i686-mingw32/bin/../lib/gcc/nios2-elf/4.1.2/../../../../nios2-elf/lib/mno-hw-mul\libc.a(lib_a-atexit.o)
                              ../RedeFFTHW_bsp\libucosii_bsp.a(alt_main.o) (atexit)
c:/altera/10.1sp1/nios2eds/bin/gnu/h-i686-mingw32/bin/../lib/gcc/nios2-elf/4.1.2/../../../../nios2-elf/lib/mno-hw-mul\libc.a(lib_a-atoi.o)
                              ../RedeFFTHW_bsp\libucosii_bsp.a(parseip.o) (atoi)
c:/altera/10.1sp1/nios2eds/bin/gnu/h-i686-mingw32/bin/../lib/gcc/nios2-elf/4.1.2/../../../../nios2-elf/lib/mno-hw-mul\libc.a(lib_a-calloc.o)
                              ../RedeFFTHW_bsp\libucosii_bsp.a(targnios.o) (calloc)
c:/altera/10.1sp1/nios2eds/bin/gnu/h-i686-mingw32/bin/../lib/gcc/nios2-elf/4.1.2/../../../../nios2-elf/lib/mno-hw-mul\libc.a(lib_a-exit.o)
                              ../RedeFFTHW_bsp\libucosii_bsp.a(alt_main.o) (exit)
c:/altera/10.1sp1/nios2eds/bin/gnu/h-i686-mingw32/bin/../lib/gcc/nios2-elf/4.1.2/../../../../nios2-elf/lib/mno-hw-mul\libc.a(lib_a-memcmp.o)
                              ../RedeFFTHW_bsp\libucosii_bsp.a(dhcpclnt.o) (memcmp)
c:/altera/10.1sp1/nios2eds/bin/gnu/h-i686-mingw32/bin/../lib/gcc/nios2-elf/4.1.2/../../../../nios2-elf/lib/mno-hw-mul\libc.a(lib_a-strchr.o)
                              ../RedeFFTHW_bsp\libucosii_bsp.a(vfsfiles.o) (strchr)
c:/altera/10.1sp1/nios2eds/bin/gnu/h-i686-mingw32/bin/../lib/gcc/nios2-elf/4.1.2/../../../../nios2-elf/lib/mno-hw-mul\libc.a(lib_a-strncmp.o)
                              ../RedeFFTHW_bsp\libucosii_bsp.a(vfsfiles.o) (strncmp)
c:/altera/10.1sp1/nios2eds/bin/gnu/h-i686-mingw32/bin/../lib/gcc/nios2-elf/4.1.2/../../../../nios2-elf/lib/mno-hw-mul\libc.a(lib_a-strncpy.o)
                              ../RedeFFTHW_bsp\libucosii_bsp.a(dhcpclnt.o) (strncpy)
c:/altera/10.1sp1/nios2eds/bin/gnu/h-i686-mingw32/bin/../lib/gcc/nios2-elf/4.1.2/../../../../nios2-elf/lib/mno-hw-mul\libc.a(lib_a-strtol.o)
                              c:/altera/10.1sp1/nios2eds/bin/gnu/h-i686-mingw32/bin/../lib/gcc/nios2-elf/4.1.2/../../../../nios2-elf/lib/mno-hw-mul\libc.a(lib_a-atoi.o) (_strtol_r)
c:/altera/10.1sp1/nios2eds/bin/gnu/h-i686-mingw32/bin/../lib/gcc/nios2-elf/4.1.2/../../../../nios2-elf/lib/mno-hw-mul\libc.a(lib_a-vprintf.o)
                              ../RedeFFTHW_bsp\libucosii_bsp.a(in_utils.o) (vprintf)
c:/altera/10.1sp1/nios2eds/bin/gnu/h-i686-mingw32/bin/../lib/gcc/nios2-elf/4.1.2/../../../../nios2-elf/lib/mno-hw-mul\libc.a(lib_a-vsprintf.o)
                              ../RedeFFTHW_bsp\libucosii_bsp.a(in_utils.o) (vsprintf)
c:/altera/10.1sp1/nios2eds/bin/gnu/h-i686-mingw32/bin/../lib/gcc/nios2-elf/4.1.2/../../../../nios2-elf/lib/mno-hw-mul\libc.a(lib_a-__atexit.o)
                              c:/altera/10.1sp1/nios2eds/bin/gnu/h-i686-mingw32/bin/../lib/gcc/nios2-elf/4.1.2/../../../../nios2-elf/lib/mno-hw-mul\libc.a(lib_a-atexit.o) (__register_exitproc)
c:/altera/10.1sp1/nios2eds/bin/gnu/h-i686-mingw32/bin/../lib/gcc/nios2-elf/4.1.2/../../../../nios2-elf/lib/mno-hw-mul\libc.a(lib_a-__call_atexit.o)
                              c:/altera/10.1sp1/nios2eds/bin/gnu/h-i686-mingw32/bin/../lib/gcc/nios2-elf/4.1.2/../../../../nios2-elf/lib/mno-hw-mul\libc.a(lib_a-exit.o) (__call_exitprocs)
c:/altera/10.1sp1/nios2eds/bin/gnu/h-i686-mingw32/bin/../lib/gcc/nios2-elf/4.1.2/mno-hw-mul\libgcc.a(_floatundidf.o)
                              ../RedeFFTHW_bsp\libucosii_bsp.a(perf_print_formatted_report.o) (__floatundidf)
../RedeFFTHW_bsp\libucosii_bsp.a(alt_exit.o)
                              c:/altera/10.1sp1/nios2eds/bin/gnu/h-i686-mingw32/bin/../lib/gcc/nios2-elf/4.1.2/../../../../nios2-elf/lib/mno-hw-mul\libc.a(lib_a-exit.o) (_exit)

Allocating common symbols
Common symbol       size              file

touchscreen         0x120             obj/DanWindow/DanWindow.o
Aquisicao_Graphs    0x8               obj/AquisicaoRede.o
soq                 0x14              ../RedeFFTHW_bsp\libucosii_bsp.a(nptcp.o)
btnF4               0x58              obj/AquisicaoRede.o
lblLinha1TermSerial
                    0x3c              obj/TerminalSerial.o
alt_irq             0x100             ../RedeFFTHW_bsp\libucosii_bsp.a(alt_irq_handler.o)
tcp_optionbuf       0x4               ../RedeFFTHW_bsp\libucosii_bsp.a(tcp_out.o)
socket_sender_task_stk
                    0x2000            obj/simple_socket_server.o
caption_height      0x4               obj/DanWindow/DanWindow.o
last_flash_sector_offset
                    0x4               obj/network_utilities.o
caption_length      0x4               obj/DanWindow/DanWindow.o
rt_mib              0x4               ../RedeFFTHW_bsp\libucosii_bsp.a(ip.o)
btnF2               0x58              obj/AquisicaoRede.o
so_evtmap_create    0x4               ../RedeFFTHW_bsp\libucosii_bsp.a(ipport.o)
boxPainelTermSerial
                    0x4c              obj/TerminalSerial.o
lcd                 0xc               obj/DanWindow/DanWindow.o
OSLockNesting       0x1               ../RedeFFTHW_bsp\libucosii_bsp.a(os_core.o)
tcb                 0x2c              ../RedeFFTHW_bsp\libucosii_bsp.a(tcp_subr.o)
OSRunning           0x1               ../RedeFFTHW_bsp\libucosii_bsp.a(os_core.o)
dhc_states          0xf0              ../RedeFFTHW_bsp\libucosii_bsp.a(dhcpclnt.o)
tcpstat             0xe0              ../RedeFFTHW_bsp\libucosii_bsp.a(tcp_subr.o)
OSIdleCtr           0x4               ../RedeFFTHW_bsp\libucosii_bsp.a(os_core.o)
grpFrequencia       0x54              obj/AquisicaoRede.o
socket_result_sender_task_stk
                    0x2000            obj/simple_socket_server.o
udp_mib             0x10              ../RedeFFTHW_bsp\libucosii_bsp.a(udp.o)
TerminalSerial      0x50              obj/TerminalSerial.o
lblConex            0x3c              obj/AquisicaoRede.o
to_netmain          0x1               ../RedeFFTHW_bsp\libucosii_bsp.a(netmain.o)
PressedObject       0x4               obj/DanWindow/DanWindow.o
OSPrioHighRdy       0x1               ../RedeFFTHW_bsp\libucosii_bsp.a(os_core.o)
errno               0x4               c:/altera/10.1sp1/nios2eds/bin/gnu/h-i686-mingw32/bin/../lib/gcc/nios2-elf/4.1.2/../../../../nios2-elf/lib/mno-hw-mul\libc.a(lib_a-int_errno.o)
lilfreeq            0x14              ../RedeFFTHW_bsp\libucosii_bsp.a(pktalloc.o)
boxMenuItem3        0x4c              obj/LCDTask.o
icmp_mib            0x68              ../RedeFFTHW_bsp\libucosii_bsp.a(icmp.o)
pmac_groups         0x10              ../RedeFFTHW_bsp\libucosii_bsp.a(altera_avalon_tse.o)
resid_semaphore     0x40              ../RedeFFTHW_bsp\libucosii_bsp.a(targnios.o)
alt_heapsem         0x4               ../RedeFFTHW_bsp\libucosii_bsp.a(alt_malloc_lock.o)
aquisicao_task1_stk
                    0x1000            obj/simple_socket_server.o
Wy                  0x4               obj/FFT/simpleDFT.o
OSFlagTbl           0x370             ../RedeFFTHW_bsp\libucosii_bsp.a(os_core.o)
mbstat              0x8               ../RedeFFTHW_bsp\libucosii_bsp.a(nptcp.o)
btnF1               0x58              obj/AquisicaoRede.o
netq_intmask        0x4               ../RedeFFTHW_bsp\libucosii_bsp.a(osportco.o)
lblAquisicaoTitulo  0x3c              obj/AquisicaoRede.o
select_wait         0x2               ../RedeFFTHW_bsp\libucosii_bsp.a(nptcp.o)
tse_iniche_dev_driver_data
                    0x30              ../RedeFFTHW_bsp\libucosii_bsp.a(ins_tse_mac.o)
tcpmib              0x3c              ../RedeFFTHW_bsp\libucosii_bsp.a(nptcp.o)
lblMenuItem1        0x3c              obj/LCDTask.o
OSPrioCur           0x1               ../RedeFFTHW_bsp\libucosii_bsp.a(os_core.o)
buffer_rx           0xfa0             obj/simple_socket_server.o
tse                 0x130             ../RedeFFTHW_bsp\libucosii_bsp.a(ins_tse_mac.o)
bufferDADOS         0xfa0             obj/simple_socket_server.o
boxMenuItem0        0x4c              obj/LCDTask.o
Xcoord              0x4               obj/DanWindow/DanWindow.o
mheap_sem_ptr       0x4               ../RedeFFTHW_bsp\libucosii_bsp.a(targnios.o)
DadosFFT            0x200             obj/AquisicaoRede.o
fdSocketReceiver    0x4               obj/simple_socket_server.o
netlist             0x14              ../RedeFFTHW_bsp\libucosii_bsp.a(iface.o)
mbufq               0x14              ../RedeFFTHW_bsp\libucosii_bsp.a(nptcp.o)
OSTCBList           0x4               ../RedeFFTHW_bsp\libucosii_bsp.a(os_core.o)
alt_fd_list_lock    0x4               ../RedeFFTHW_bsp\libucosii_bsp.a(alt_dev.o)
OSMemTbl            0xc30             ../RedeFFTHW_bsp\libucosii_bsp.a(os_core.o)
OSTickStepState     0x1               ../RedeFFTHW_bsp\libucosii_bsp.a(os_core.o)
Ycoord              0x4               obj/DanWindow/DanWindow.o
OSTaskStatStk       0x800             ../RedeFFTHW_bsp\libucosii_bsp.a(os_core.o)
buffer_tx           0xfa0             obj/simple_socket_server.o
OSCtxSwCtr          0x4               ../RedeFFTHW_bsp\libucosii_bsp.a(os_core.o)
igmpstats           0x64              ../RedeFFTHW_bsp\libucosii_bsp.a(igmp_cmn.o)
ire_stats           0x18              ../RedeFFTHW_bsp\libucosii_bsp.a(ip_reasm.o)
lcd_task_stk        0x2000            obj/simple_socket_server.o
socket_receiver_task_stk
                    0x2000            obj/simple_socket_server.o
display             0x4               obj/DanWindow/DanWindow.o
boxMenuTitulo       0x4c              obj/AquisicaoRede.o
old_mode            0x4               ../RedeFFTHW_bsp\libucosii_bsp.a(osportco.o)
vfs_dir_stale       0x4               ../RedeFFTHW_bsp\libucosii_bsp.a(vfsfiles.o)
lblIP               0x3c              obj/AquisicaoRede.o
pphy_profiles       0x10              ../RedeFFTHW_bsp\libucosii_bsp.a(altera_avalon_tse.o)
CurrentScreen       0x4               obj/DanWindow/DanWindow.o
cticks_factor       0x4               ../RedeFFTHW_bsp\libucosii_bsp.a(brdutils.o)
boxBarraStatus      0x4c              obj/AquisicaoRede.o
OSIdleCtrMax        0x4               ../RedeFFTHW_bsp\libucosii_bsp.a(os_core.o)
memestats           0x10              ../RedeFFTHW_bsp\libucosii_bsp.a(pktalloc.o)
boxTituloTermSerial
                    0x4c              obj/TerminalSerial.o
intimers            0x64              ../RedeFFTHW_bsp\libucosii_bsp.a(timeouts.o)
OSTCBFreeList       0x4               ../RedeFFTHW_bsp\libucosii_bsp.a(os_core.o)
EventoSocket        0x4               obj/simple_socket_server.o
boxMessage          0x4c              obj/LCDTask.o
global_TCPwakeup_setIndx
                    0x4               ../RedeFFTHW_bsp\libucosii_bsp.a(osportco.o)
lblHora             0x3c              obj/LCDTask.o
grpTempo            0x54              obj/AquisicaoRede.o
SSSInitialTaskStk   0x2000            obj/iniche_init.o
rcvdq               0x14              ../RedeFFTHW_bsp\libucosii_bsp.a(ipnet.o)
pen_is_down         0x4               obj/DanWindow/DanWindow.o
global_tcb_ext      0xfc              ../RedeFFTHW_bsp\libucosii_bsp.a(osportco.o)
btnFecharTermSerial
                    0x58              obj/TerminalSerial.o
netstatic           0x300             ../RedeFFTHW_bsp\libucosii_bsp.a(ipstart.o)
boxMessageTitle     0x4c              obj/LCDTask.o
lblTerminalSerialTitulo
                    0x3c              obj/TerminalSerial.o
tcp_maxidle         0x4               ../RedeFFTHW_bsp\libucosii_bsp.a(tcp_timr.o)
Tempo_Dados         0x200             obj/AquisicaoRede.o
boxMenuItem2        0x4c              obj/LCDTask.o
Aquisicao           0x50              obj/AquisicaoRede.o
TerminalSerial_Buttons
                    0x4               obj/TerminalSerial.o
OSCPUUsage          0x1               ../RedeFFTHW_bsp\libucosii_bsp.a(os_core.o)
nets                0x10              ../RedeFFTHW_bsp\libucosii_bsp.a(ipstart.o)
lblPorta            0x3c              obj/AquisicaoRede.o
Wx                  0x4               obj/FFT/simpleDFT.o
pktlog              0xf0              ../RedeFFTHW_bsp\libucosii_bsp.a(pktalloc.o)
OSTaskCtr           0x1               ../RedeFFTHW_bsp\libucosii_bsp.a(os_core.o)
Desktop_Boxes       0x20              obj/LCDTask.o
OSMemFreeList       0x4               ../RedeFFTHW_bsp\libucosii_bsp.a(os_core.o)
lblMenuItem2        0x3c              obj/LCDTask.o
vfs_open_files      0x4               ../RedeFFTHW_bsp\libucosii_bsp.a(vfsfiles.o)
cticks              0x4               ../RedeFFTHW_bsp\libucosii_bsp.a(osportco.o)
to_nettick          0x1               ../RedeFFTHW_bsp\libucosii_bsp.a(netmain.o)
Desktop             0x50              obj/LCDTask.o
last_flash_sector   0x4               obj/network_utilities.o
timer_task_stk      0x800             obj/simple_socket_server.o
btnFecharAquis      0x58              obj/AquisicaoRede.o
OSQTbl              0x1e0             ../RedeFFTHW_bsp\libucosii_bsp.a(os_core.o)
Desktop_Buttons     0x8               obj/LCDTask.o
OSTCBHighRdy        0x4               ../RedeFFTHW_bsp\libucosii_bsp.a(os_core.o)
OSQFreeList         0x4               ../RedeFFTHW_bsp\libucosii_bsp.a(os_core.o)
OSRdyGrp            0x1               ../RedeFFTHW_bsp\libucosii_bsp.a(os_core.o)
lblMessageTitle     0x3c              obj/LCDTask.o
ip_mib              0x50              ../RedeFFTHW_bsp\libucosii_bsp.a(ip.o)
OS_TPS              0x4               ../RedeFFTHW_bsp\libucosii_bsp.a(brdutils.o)
_atexit0            0x190             c:/altera/10.1sp1/nios2eds/bin/gnu/h-i686-mingw32/bin/../lib/gcc/nios2-elf/4.1.2/../../../../nios2-elf/lib/mno-hw-mul\libc.a(lib_a-atexit.o)
lblMenuItem0        0x3c              obj/LCDTask.o
PressedObjectType   0x4               obj/DanWindow/DanWindow.o
Aquisicao_Buttons   0x18              obj/AquisicaoRede.o
OSRdyTbl            0x3               ../RedeFFTHW_bsp\libucosii_bsp.a(os_core.o)
lblStatus           0x3c              obj/AquisicaoRede.o
Desktop_Labels      0x1c              obj/LCDTask.o
igmp_all_hosts_group
                    0x4               ../RedeFFTHW_bsp\libucosii_bsp.a(igmp_cmn.o)
pacote              0xfa4             obj/simple_socket_server.o
fdSocketSender      0x4               obj/simple_socket_server.o
eth_prt_buf         0x12              ../RedeFFTHW_bsp\libucosii_bsp.a(in_utils.o)
app_semaphore       0x18              ../RedeFFTHW_bsp\libucosii_bsp.a(targnios.o)
aquisicao_task_stk  0x1000            obj/simple_socket_server.o
tse_mac_if          0xe0              ../RedeFFTHW_bsp\libucosii_bsp.a(alt_sys_init.o)
rcvdq_sem_ptr       0x4               ../RedeFFTHW_bsp\libucosii_bsp.a(targnios.o)
OSEventFreeList     0x4               ../RedeFFTHW_bsp\libucosii_bsp.a(os_core.o)
mfreeq              0x14              ../RedeFFTHW_bsp\libucosii_bsp.a(nptcp.o)
to_ssstask          0x1               obj/iniche_init.o
global_TCPwakeup_set
                    0xf0              ../RedeFFTHW_bsp\libucosii_bsp.a(osportco.o)
bigfreeq            0x14              ../RedeFFTHW_bsp\libucosii_bsp.a(pktalloc.o)
so_evtmap_delete    0x4               ../RedeFFTHW_bsp\libucosii_bsp.a(ipport.o)
Aquisicao_Boxes     0x10              obj/AquisicaoRede.o
boxFundoMenu        0x4c              obj/LCDTask.o
boxBarraFerramentas
                    0x4c              obj/AquisicaoRede.o
tcp_saveti          0x28              ../RedeFFTHW_bsp\libucosii_bsp.a(tcp_in.o)
OSIntNesting        0x1               ../RedeFFTHW_bsp\libucosii_bsp.a(os_core.o)
so_evtmap           0x1               ../RedeFFTHW_bsp\libucosii_bsp.a(ipport.o)
Frequencia_Dados    0x200             obj/AquisicaoRede.o
lblMessage          0x3c              obj/LCDTask.o
OSTCBCur            0x4               ../RedeFFTHW_bsp\libucosii_bsp.a(os_core.o)
arp_table           0x100             ../RedeFFTHW_bsp\libucosii_bsp.a(et_arp.o)
btnIniciar          0x58              obj/LCDTask.o
tcp_iss             0x4               ../RedeFFTHW_bsp\libucosii_bsp.a(tcp_timr.o)
vfs_total_rw_space  0x4               ../RedeFFTHW_bsp\libucosii_bsp.a(vfsfiles.o)
Aquisicao_Labels    0x18              obj/AquisicaoRede.o
TerminalSerial_Labels
                    0x8               obj/TerminalSerial.o
OSTime              0x4               ../RedeFFTHW_bsp\libucosii_bsp.a(os_core.o)
OSTaskIdleStk       0x800             ../RedeFFTHW_bsp\libucosii_bsp.a(os_core.o)
boxMenuItem1        0x4c              obj/LCDTask.o
imgPlanoFundo       0x40              obj/LCDTask.o
OSEventTbl          0xb40             ../RedeFFTHW_bsp\libucosii_bsp.a(os_core.o)
vfs_total_dyna_files
                    0x4               ../RedeFFTHW_bsp\libucosii_bsp.a(vfsfiles.o)
OSTCBTbl            0x510             ../RedeFFTHW_bsp\libucosii_bsp.a(os_core.o)
boxBandeja          0x4c              obj/LCDTask.o
ipreturn            0x12              ../RedeFFTHW_bsp\libucosii_bsp.a(in_utils.o)
btnF3               0x58              obj/AquisicaoRede.o
OSFlagFreeList      0x4               ../RedeFFTHW_bsp\libucosii_bsp.a(os_core.o)
dropline            0x4               ../RedeFFTHW_bsp\libucosii_bsp.a(tcp_in.o)
OSStatRdy           0x1               ../RedeFFTHW_bsp\libucosii_bsp.a(os_core.o)
OSTCBPrioTbl        0x54              ../RedeFFTHW_bsp\libucosii_bsp.a(os_core.o)
igmp_all_rtrs_group
                    0x4               ../RedeFFTHW_bsp\libucosii_bsp.a(igmp_cmn.o)
alt_envsem          0x4               ../RedeFFTHW_bsp\libucosii_bsp.a(alt_env_lock.o)
OSIdleCtrRun        0x4               ../RedeFFTHW_bsp\libucosii_bsp.a(os_core.o)
boxBarraTarefas     0x4c              obj/LCDTask.o
lblMenuItem3        0x3c              obj/LCDTask.o
fdSocketSenderResult
                    0x4               obj/simple_socket_server.o
btnMessage          0x58              obj/LCDTask.o
TerminalSerial_Boxes
                    0x8               obj/TerminalSerial.o

Memory Configuration

Name             Origin             Length             Attributes
reset            0x00000000         0x00000020
sdram            0x00000020         0x01ffffe0
descriptor_memory 0x04002000         0x00001000
*default*        0x00000000         0xffffffff

Linker script and memory map

LOAD ../RedeFFTHW_bsp/obj/HAL/src/crt0.o
LOAD obj/AquisicaoRede.o
LOAD obj/DanWindow/DanWindow.o
LOAD obj/FFT/simpleDFT.o
LOAD obj/LCDTask.o
LOAD obj/TerminalSerial.o
LOAD obj/alt_error_handler.o
LOAD obj/alt_touchscreen/alt_touchscreen.o
LOAD obj/alt_tpo_lcd/alt_tpo_lcd.o
LOAD obj/alt_video_display/alt_video_display.o
LOAD obj/fixedpoint2_16.o
LOAD obj/graphics_lib/simple_graphics.o
LOAD obj/iniche_init.o
LOAD obj/network_utilities.o
LOAD obj/simple_socket_server.o
LOAD c:/altera/10.1sp1/nios2eds/bin/gnu/h-i686-mingw32/bin/../lib/gcc/nios2-elf/4.1.2/../../../../nios2-elf/lib/mno-hw-mul\libstdc++.a
LOAD c:/altera/10.1sp1/nios2eds/bin/gnu/h-i686-mingw32/bin/../lib/gcc/nios2-elf/4.1.2/../../../../nios2-elf/lib/mno-hw-mul\libm.a
LOAD c:/altera/10.1sp1/nios2eds/bin/gnu/h-i686-mingw32/bin/../lib/gcc/nios2-elf/4.1.2/mno-hw-mul\libgcc.a
START GROUP
LOAD c:/altera/10.1sp1/nios2eds/bin/gnu/h-i686-mingw32/bin/../lib/gcc/nios2-elf/4.1.2/../../../../nios2-elf/lib/mno-hw-mul\libc.a
LOAD c:/altera/10.1sp1/nios2eds/bin/gnu/h-i686-mingw32/bin/../lib/gcc/nios2-elf/4.1.2/mno-hw-mul\libgcc.a
LOAD ../RedeFFTHW_bsp\libucosii_bsp.a
END GROUP
LOAD c:/altera/10.1sp1/nios2eds/bin/gnu/h-i686-mingw32/bin/../lib/gcc/nios2-elf/4.1.2/mno-hw-mul\libgcc.a
                0x00000000                __alt_mem_sdram = 0x0
                0x04002000                __alt_mem_descriptor_memory = 0x4002000

.entry          0x00000000       0x20
 *(.entry)
 .entry         0x00000000       0x20 ../RedeFFTHW_bsp/obj/HAL/src/crt0.o
                0x00000000                __reset

.exceptions     0x00000020      0x19c
                0x00000020                PROVIDE (__ram_exceptions_start, ABSOLUTE (.))
                0x00000020                . = ALIGN (0x20)
 *(.irq)
 *(.exceptions.entry.label)
 .exceptions.entry.label
                0x00000020        0x0 ../RedeFFTHW_bsp\libucosii_bsp.a(alt_irq_entry.o)
                0x00000020                alt_irq_entry
 .exceptions.entry.label
                0x00000020        0x0 ../RedeFFTHW_bsp\libucosii_bsp.a(alt_exception_entry.o)
                0x00000020                alt_exception
 *(.exceptions.entry.user)
 *(.exceptions.entry)
 .exceptions.entry
                0x00000020       0x54 ../RedeFFTHW_bsp\libucosii_bsp.a(alt_exception_entry.o)
 *(.exceptions.irqtest.user)
 *(.exceptions.irqtest)
 .exceptions.irqtest
                0x00000074       0x10 ../RedeFFTHW_bsp\libucosii_bsp.a(alt_irq_entry.o)
 *(.exceptions.irqhandler.user)
 *(.exceptions.irqhandler)
 .exceptions.irqhandler
                0x00000084        0x4 ../RedeFFTHW_bsp\libucosii_bsp.a(alt_irq_entry.o)
 *(.exceptions.irqreturn.user)
 *(.exceptions.irqreturn)
 .exceptions.irqreturn
                0x00000088        0x4 ../RedeFFTHW_bsp\libucosii_bsp.a(alt_irq_entry.o)
 *(.exceptions.notirq.label)
 .exceptions.notirq.label
                0x0000008c        0x0 ../RedeFFTHW_bsp\libucosii_bsp.a(alt_irq_entry.o)
 *(.exceptions.notirq.user)
 *(.exceptions.notirq)
 .exceptions.notirq
                0x0000008c        0x8 ../RedeFFTHW_bsp\libucosii_bsp.a(alt_exception_entry.o)
 *(.exceptions.soft.user)
 *(.exceptions.soft)
 *(.exceptions.unknown.user)
 *(.exceptions.unknown)
 .exceptions.unknown
                0x00000094        0x4 ../RedeFFTHW_bsp\libucosii_bsp.a(alt_exception_entry.o)
 *(.exceptions.exit.label)
 .exceptions.exit.label
                0x00000098        0x0 ../RedeFFTHW_bsp\libucosii_bsp.a(alt_irq_entry.o)
 .exceptions.exit.label
                0x00000098        0x0 ../RedeFFTHW_bsp\libucosii_bsp.a(alt_exception_entry.o)
 *(.exceptions.exit.user)
 *(.exceptions.exit)
 .exceptions.exit
                0x00000098       0x54 ../RedeFFTHW_bsp\libucosii_bsp.a(alt_exception_entry.o)
 *(.exceptions)
 .exceptions    0x000000ec       0xd0 ../RedeFFTHW_bsp\libucosii_bsp.a(alt_irq_handler.o)
                0x000000ec                alt_irq_handler
                0x000001bc                PROVIDE (__ram_exceptions_end, ABSOLUTE (.))
                0x00000020                PROVIDE (__flash_exceptions_start, LOADADDR (.exceptions))

.text           0x000001bc    0x58474
                0x000001bc                PROVIDE (stext, ABSOLUTE (.))
 *(.interp)
 *(.hash)
 *(.dynsym)
 *(.dynstr)
 *(.gnu.version)
 *(.gnu.version_d)
 *(.gnu.version_r)
 *(.rel.init)
 *(.rela.init)
 *(.rel.text .rel.text.* .rel.gnu.linkonce.t.*)
 *(.rela.text .rela.text.* .rela.gnu.linkonce.t.*)
 *(.rel.fini)
 *(.rela.fini)
 *(.rel.rodata .rel.rodata.* .rel.gnu.linkonce.r.*)
 *(.rela.rodata .rela.rodata.* .rela.gnu.linkonce.r.*)
 *(.rel.data .rel.data.* .rel.gnu.linkonce.d.*)
 *(.rela.data .rela.data.* .rela.gnu.linkonce.d.*)
 *(.rel.tdata .rel.tdata.* .rel.gnu.linkonce.td.*)
 *(.rela.tdata .rela.tdata.* .rela.gnu.linkonce.td.*)
 *(.rel.tbss .rel.tbss.* .rel.gnu.linkonce.tb.*)
 *(.rela.tbss .rela.tbss.* .rela.gnu.linkonce.tb.*)
 *(.rel.ctors)
 *(.rela.ctors)
 *(.rel.dtors)
 *(.rela.dtors)
 *(.rel.got)
 *(.rela.got)
 *(.rel.sdata .rel.sdata.* .rel.gnu.linkonce.s.*)
 *(.rela.sdata .rela.sdata.* .rela.gnu.linkonce.s.*)
 *(.rel.sbss .rel.sbss.* .rel.gnu.linkonce.sb.*)
 *(.rela.sbss .rela.sbss.* .rela.gnu.linkonce.sb.*)
 *(.rel.sdata2 .rel.sdata2.* .rel.gnu.linkonce.s2.*)
 *(.rela.sdata2 .rela.sdata2.* .rela.gnu.linkonce.s2.*)
 *(.rel.sbss2 .rel.sbss2.* .rel.gnu.linkonce.sb2.*)
 *(.rela.sbss2 .rela.sbss2.* .rela.gnu.linkonce.sb2.*)
 *(.rel.bss .rel.bss.* .rel.gnu.linkonce.b.*)
 *(.rela.bss .rela.bss.* .rela.gnu.linkonce.b.*)
 *(.rel.plt)
 *(.rela.plt)
 *(.rel.dyn)
 *(.init)
 *(.plt)
 *(.text .stub .text.* .gnu.linkonce.t.*)
 .text          0x000001bc       0x3c ../RedeFFTHW_bsp/obj/HAL/src/crt0.o
                0x000001bc                _start
 .text          0x000001f8     0x1bf4 obj/AquisicaoRede.o
                0x000001f8                executaFFT
                0x000002e8                AquisicaoRedeTask
                0x00000384                btnFiltroBand_Click
                0x000004fc                btnFiltroHigh_Click
                0x00000518                btnFFTSW_Press
                0x00000778                btnFecharAquis_Click
                0x000007a8                btnDFTSW_Down
                0x00000a2c                InicializaObjetosAquisicao
 .text          0x00001dec     0x2be4 obj/DanWindow/DanWindow.o
                0x00001dec                BuscaMaior
                0x00001e78                InitializeTouchPanel
                0x00001eb8                IsInsideObject
                0x00001f40                ClearScreen
                0x00001f94                Redraw
                0x00001fd4                DrawGraph
                0x00002a58                DrawGraphs
                0x00002ac8                DrawButton
                0x00002fe0                DrawButtons
                0x00003050                DrawLabel
                0x000030d8                DrawLabels
                0x00003148                DrawBox
                0x00003284                DrawBoxes
                0x000032f4                DrawScreen
                0x00003574                Process_TP_Press
                0x00003a60                Process_TP_Up
                0x00003fc0                Process_TP_Down
                0x00004710                Check_TP
                0x000047a4                Initialize_TFT
                0x000048a8                draw_array
 .text          0x000049d0     0x1d4c obj/FFT/simpleDFT.o
                0x000049d0                CarregaTabw
                0x00004b70                Reordem
                0x00004ca8                ColTuk
                0x00004fa8                FFT_Egon
                0x00004ff4                fft
                0x000055c8                init_sincos_table
                0x000057b4                dft
                0x00005d10                dft_tabled
                0x00006248                imprime
                0x00006458                soma_real_imag
                0x000064e0                copy_data_to_complex
                0x00006588                copy_complex_to_data
                0x00006630                copy_complex_to_complex
                0x000066ac                reverse_bits
 .text          0x0000671c     0x1a3c obj/LCDTask.o
                0x0000671c                ShowMenu
                0x00006868                HideMenu
                0x0000694c                AtualizaTimer
                0x00006a3c                btnIniciar_Down
                0x00006a94                boxMenuItem0_Click
                0x00006acc                boxMenuItem1_Click
                0x00006b20                boxMenuItem2_Click
                0x00006c1c                boxMenuItem3_Click
                0x00006c54                boxBarraTarefas_Click
                0x00006c8c                boxBandeja_Click
                0x00006cc4                LCDTask
                0x00006f9c                taskTimer
                0x00006fcc                InicializaObjetosDesktop
 .text          0x00008158      0x6a8 obj/TerminalSerial.o
                0x00008158                btnFecharTerminalSerial_Click
                0x00008188                InicializaObjetosTerminalSerial
 .text          0x00008800      0xba8 obj/alt_error_handler.o
                0x00008800                alt_uCOSIIErrorHandler
                0x00008e24                alt_NetworkErrorHandler
                0x000090bc                alt_SSSErrorHandler
 .text          0x000093a8        0x0 obj/alt_touchscreen/alt_touchscreen.o
 .text          0x000093a8      0x804 obj/alt_tpo_lcd/alt_tpo_lcd.o
                0x000093a8                alt_tpo_lcd_prepare_serial_bus
                0x00009424                alt_tpo_lcd_cleanup_serial_bus
                0x0000948c                alt_tpo_lcd_write_serial_bits
                0x0000952c                alt_tpo_lcd_read_serial_byte
                0x00009670                alt_tpo_lcd_read_config_register
                0x000096fc                alt_tpo_lcd_write_config_register
                0x0000979c                alt_tpo_lcd_init
 .text          0x00009bac      0xa60 obj/alt_video_display/alt_video_display.o
                0x00009bac                alt_video_display_init
                0x00009e98                alt_video_display_close
                0x00009f80                alt_video_display_register_written_buffer
                0x0000a0d8                alt_video_display_buffer_is_available
                0x0000a1c8                alt_video_display_clear_screen
                0x0000a22c                alt_video_display_setup_frame_descriptors
                0x0000a3c4                alt_video_display_get_descriptor_span
                0x0000a3f4                alt_video_display_allocate_buffers
 .text          0x0000a60c      0x3e8 obj/fixedpoint2_16.o
                0x0000a60c                BitTest
                0x0000a64c                FIXED2_16toBinary
                0x0000a720                imprimeFIXED2_16
                0x0000a7c4                soma2_16
                0x0000a7fc                sub2_16
                0x0000a834                mult2_16
                0x0000a8f4                real2FIXED2_16
                0x0000a9ac                FIXED2_16toReal
 .text          0x0000a9f4     0x29d4 obj/graphics_lib/simple_graphics.o
                0x0000a9f4                vid_draw_line
                0x0000aab0                vid_scroll_string_quit
                0x0000aaec                vid_scroll_string_init
                0x0000ac38                vid_scroll_string
                0x0000affc                vid_move_block
                0x0000b118                vid_print_string
                0x0000b22c                vid_draw_box
                0x0000b368                vid_print_char
                0x0000b454                vid_set_pixel
                0x0000b630                vid_get_pixel
                0x0000b6cc                vid_paint_block
                0x0000b974                vid_draw_horiz_line
                0x0000bcb4                vid_merge_colors
                0x0000bd00                vid_color_convert24_16
                0x0000bda0                vid_color_convert16_24
                0x0000be08                vid_copy_line_to_frame_buffer
                0x0000c0f8                vid_draw_sloped_line
                0x0000c374                vid_draw_circle
                0x0000c4d0                vid_circle_points
                0x0000c98c                max3
                0x0000c9e0                min3
                0x0000ca34                max_diff3
                0x0000ca98                vid_put_pixel_in_span_map
                0x0000cba4                vid_bres_scan_edges
                0x0000ce04                vid_draw_triangle
                0x0000d14c                CopyImage16
                0x0000d228                CropImage16
                0x0000d354                bgr2rgb
 .text          0x0000d3c8      0x108 obj/iniche_init.o
                0x0000d3c8                TarefaInicial
                0x0000d448                main
 .text          0x0000d4d0      0x660 obj/network_utilities.o
                0x0000d4d0                get_mac_addr
                0x0000d528                get_ip_addr
                0x0000d58c                get_serial_number
                0x0000d76c                generate_and_store_mac_addr
                0x0000d8c0                generate_mac_addr
                0x0000d9fc                get_board_mac_addr
                0x0000daf4                FindLastFlashSectorOffset
 .text          0x0000db30     0x12c0 obj/simple_socket_server.o
                0x0000db30                AquisicaoRedeTask1
                0x0000dc94                CopiaResultadoAoBuffer
                0x0000dde0                SocketResultSender
                0x0000e074                CopiaDadosAoPacote
                0x0000e1b8                CriaTarefas
                0x0000e2cc                Temporizador
                0x0000e2f4                CriaSocketsTasks
                0x0000e498                SocketSender
                0x0000e76c                SocketReceiver
                0x0000ea14                RecepcaoDadosUDP
 .text          0x0000edf0      0x168 c:/altera/10.1sp1/nios2eds/bin/gnu/h-i686-mingw32/bin/../lib/gcc/nios2-elf/4.1.2/../../../../nios2-elf/lib/mno-hw-mul\libm.a(lib_a-s_cos.o)
                0x0000edf0                cos
 .text          0x0000ef58      0x16c c:/altera/10.1sp1/nios2eds/bin/gnu/h-i686-mingw32/bin/../lib/gcc/nios2-elf/4.1.2/../../../../nios2-elf/lib/mno-hw-mul\libm.a(lib_a-s_sin.o)
                0x0000ef58                sin
 .text          0x0000f0c4      0x130 c:/altera/10.1sp1/nios2eds/bin/gnu/h-i686-mingw32/bin/../lib/gcc/nios2-elf/4.1.2/../../../../nios2-elf/lib/mno-hw-mul\libm.a(lib_a-w_sqrt.o)
                0x0000f0c4                sqrt
 .text          0x0000f1f4      0x138 c:/altera/10.1sp1/nios2eds/bin/gnu/h-i686-mingw32/bin/../lib/gcc/nios2-elf/4.1.2/../../../../nios2-elf/lib/mno-hw-mul\libm.a(lib_a-wf_sqrt.o)
                0x0000f1f4                sqrtf
 .text          0x0000f32c      0x828 c:/altera/10.1sp1/nios2eds/bin/gnu/h-i686-mingw32/bin/../lib/gcc/nios2-elf/4.1.2/../../../../nios2-elf/lib/mno-hw-mul\libm.a(lib_a-e_rem_pio2.o)
                0x0000f32c                __ieee754_rem_pio2
 .text          0x0000fb54      0x2c8 c:/altera/10.1sp1/nios2eds/bin/gnu/h-i686-mingw32/bin/../lib/gcc/nios2-elf/4.1.2/../../../../nios2-elf/lib/mno-hw-mul\libm.a(lib_a-e_sqrt.o)
                0x0000fb54                __ieee754_sqrt
 .text          0x0000fe1c      0x16c c:/altera/10.1sp1/nios2eds/bin/gnu/h-i686-mingw32/bin/../lib/gcc/nios2-elf/4.1.2/../../../../nios2-elf/lib/mno-hw-mul\libm.a(lib_a-ef_sqrt.o)
                0x0000fe1c                __ieee754_sqrtf
 .text          0x0000ff88      0x52c c:/altera/10.1sp1/nios2eds/bin/gnu/h-i686-mingw32/bin/../lib/gcc/nios2-elf/4.1.2/../../../../nios2-elf/lib/mno-hw-mul\libm.a(lib_a-k_cos.o)
                0x0000ff88                __kernel_cos
 .text          0x000104b4      0xe84 c:/altera/10.1sp1/nios2eds/bin/gnu/h-i686-mingw32/bin/../lib/gcc/nios2-elf/4.1.2/../../../../nios2-elf/lib/mno-hw-mul\libm.a(lib_a-k_rem_pio2.o)
                0x000104b4                __kernel_rem_pio2
 .text          0x00011338      0x318 c:/altera/10.1sp1/nios2eds/bin/gnu/h-i686-mingw32/bin/../lib/gcc/nios2-elf/4.1.2/../../../../nios2-elf/lib/mno-hw-mul\libm.a(lib_a-k_sin.o)
                0x00011338                __kernel_sin
 .text          0x00011650       0x18 c:/altera/10.1sp1/nios2eds/bin/gnu/h-i686-mingw32/bin/../lib/gcc/nios2-elf/4.1.2/../../../../nios2-elf/lib/mno-hw-mul\libm.a(lib_a-s_fabs.o)
                0x00011650                fabs
 .text          0x00011668      0x224 c:/altera/10.1sp1/nios2eds/bin/gnu/h-i686-mingw32/bin/../lib/gcc/nios2-elf/4.1.2/../../../../nios2-elf/lib/mno-hw-mul\libm.a(lib_a-s_floor.o)
                0x00011668                floor
 .text          0x0001188c       0x30 c:/altera/10.1sp1/nios2eds/bin/gnu/h-i686-mingw32/bin/../lib/gcc/nios2-elf/4.1.2/../../../../nios2-elf/lib/mno-hw-mul\libm.a(lib_a-s_isnand.o)
                0x0001188c                __isnand
 .text          0x000118bc        0x0 c:/altera/10.1sp1/nios2eds/bin/gnu/h-i686-mingw32/bin/../lib/gcc/nios2-elf/4.1.2/../../../../nios2-elf/lib/mno-hw-mul\libm.a(lib_a-s_lib_ver.o)
 .text          0x000118bc        0x8 c:/altera/10.1sp1/nios2eds/bin/gnu/h-i686-mingw32/bin/../lib/gcc/nios2-elf/4.1.2/../../../../nios2-elf/lib/mno-hw-mul\libm.a(lib_a-s_matherr.o)
                0x000118bc                matherr
 .text          0x000118c4      0x1e0 c:/altera/10.1sp1/nios2eds/bin/gnu/h-i686-mingw32/bin/../lib/gcc/nios2-elf/4.1.2/../../../../nios2-elf/lib/mno-hw-mul\libm.a(lib_a-s_scalbn.o)
                0x000118c4                scalbn
 .text          0x00011aa4       0x18 c:/altera/10.1sp1/nios2eds/bin/gnu/h-i686-mingw32/bin/../lib/gcc/nios2-elf/4.1.2/../../../../nios2-elf/lib/mno-hw-mul\libm.a(lib_a-sf_isnan.o)
                0x00011aa4                isnanf
 .text          0x00011abc       0x24 c:/altera/10.1sp1/nios2eds/bin/gnu/h-i686-mingw32/bin/../lib/gcc/nios2-elf/4.1.2/../../../../nios2-elf/lib/mno-hw-mul\libm.a(lib_a-s_copysign.o)
                0x00011abc                copysign
 .text          0x00011ae0      0x124 c:/altera/10.1sp1/nios2eds/bin/gnu/h-i686-mingw32/bin/../lib/gcc/nios2-elf/4.1.2/mno-hw-mul\libgcc.a(_muldi3.o)
                0x00011ae0                __muldi3
 .text          0x00011c04      0x2b8 c:/altera/10.1sp1/nios2eds/bin/gnu/h-i686-mingw32/bin/../lib/gcc/nios2-elf/4.1.2/mno-hw-mul\libgcc.a(_addsub_sf.o)
                0x00011de8                __subsf3
                0x00011e58                __addsf3
 .text          0x00011ebc      0x1e0 c:/altera/10.1sp1/nios2eds/bin/gnu/h-i686-mingw32/bin/../lib/gcc/nios2-elf/4.1.2/mno-hw-mul\libgcc.a(_mul_sf.o)
                0x00011ebc                __mulsf3
 .text          0x0001209c      0x174 c:/altera/10.1sp1/nios2eds/bin/gnu/h-i686-mingw32/bin/../lib/gcc/nios2-elf/4.1.2/mno-hw-mul\libgcc.a(_div_sf.o)
                0x0001209c                __divsf3
 .text          0x00012210       0x78 c:/altera/10.1sp1/nios2eds/bin/gnu/h-i686-mingw32/bin/../lib/gcc/nios2-elf/4.1.2/mno-hw-mul\libgcc.a(_ge_sf.o)
                0x00012210                __gesf2
 .text          0x00012288       0x78 c:/altera/10.1sp1/nios2eds/bin/gnu/h-i686-mingw32/bin/../lib/gcc/nios2-elf/4.1.2/mno-hw-mul\libgcc.a(_lt_sf.o)
                0x00012288                __ltsf2
 .text          0x00012300       0x98 c:/altera/10.1sp1/nios2eds/bin/gnu/h-i686-mingw32/bin/../lib/gcc/nios2-elf/4.1.2/mno-hw-mul\libgcc.a(_si_to_sf.o)
                0x00012300                __floatsisf
 .text          0x00012398       0x94 c:/altera/10.1sp1/nios2eds/bin/gnu/h-i686-mingw32/bin/../lib/gcc/nios2-elf/4.1.2/mno-hw-mul\libgcc.a(_sf_to_si.o)
                0x00012398                __fixsfsi
 .text          0x0001242c       0x54 c:/altera/10.1sp1/nios2eds/bin/gnu/h-i686-mingw32/bin/../lib/gcc/nios2-elf/4.1.2/mno-hw-mul\libgcc.a(_sf_to_df.o)
                0x0001242c                __extendsfdf2
 .text          0x00012480        0x0 c:/altera/10.1sp1/nios2eds/bin/gnu/h-i686-mingw32/bin/../lib/gcc/nios2-elf/4.1.2/mno-hw-mul\libgcc.a(_thenan_sf.o)
 .text          0x00012480      0x504 c:/altera/10.1sp1/nios2eds/bin/gnu/h-i686-mingw32/bin/../lib/gcc/nios2-elf/4.1.2/mno-hw-mul\libgcc.a(_addsub_df.o)
                0x00012890                __subdf3
                0x00012910                __adddf3
 .text          0x00012984      0x3c4 c:/altera/10.1sp1/nios2eds/bin/gnu/h-i686-mingw32/bin/../lib/gcc/nios2-elf/4.1.2/mno-hw-mul\libgcc.a(_mul_df.o)
                0x00012984                __muldf3
 .text          0x00012d48      0x258 c:/altera/10.1sp1/nios2eds/bin/gnu/h-i686-mingw32/bin/../lib/gcc/nios2-elf/4.1.2/mno-hw-mul\libgcc.a(_div_df.o)
                0x00012d48                __divdf3
 .text          0x00012fa0       0x88 c:/altera/10.1sp1/nios2eds/bin/gnu/h-i686-mingw32/bin/../lib/gcc/nios2-elf/4.1.2/mno-hw-mul\libgcc.a(_eq_df.o)
                0x00012fa0                __eqdf2
 .text          0x00013028       0x88 c:/altera/10.1sp1/nios2eds/bin/gnu/h-i686-mingw32/bin/../lib/gcc/nios2-elf/4.1.2/mno-hw-mul\libgcc.a(_gt_df.o)
                0x00013028                __gtdf2
 .text          0x000130b0       0x88 c:/altera/10.1sp1/nios2eds/bin/gnu/h-i686-mingw32/bin/../lib/gcc/nios2-elf/4.1.2/mno-hw-mul\libgcc.a(_ge_df.o)
                0x000130b0                __gedf2
 .text          0x00013138       0x88 c:/altera/10.1sp1/nios2eds/bin/gnu/h-i686-mingw32/bin/../lib/gcc/nios2-elf/4.1.2/mno-hw-mul\libgcc.a(_lt_df.o)
                0x00013138                __ltdf2
 .text          0x000131c0       0xf8 c:/altera/10.1sp1/nios2eds/bin/gnu/h-i686-mingw32/bin/../lib/gcc/nios2-elf/4.1.2/mno-hw-mul\libgcc.a(_si_to_df.o)
                0x000131c0                __floatsidf
 .text          0x000132b8       0xd8 c:/altera/10.1sp1/nios2eds/bin/gnu/h-i686-mingw32/bin/../lib/gcc/nios2-elf/4.1.2/mno-hw-mul\libgcc.a(_df_to_si.o)
                0x000132b8                __fixdfsi
 .text          0x00013390       0x38 c:/altera/10.1sp1/nios2eds/bin/gnu/h-i686-mingw32/bin/../lib/gcc/nios2-elf/4.1.2/mno-hw-mul\libgcc.a(_make_df.o)
                0x00013390                __make_dp
 .text          0x000133c8       0x74 c:/altera/10.1sp1/nios2eds/bin/gnu/h-i686-mingw32/bin/../lib/gcc/nios2-elf/4.1.2/mno-hw-mul\libgcc.a(_df_to_sf.o)
                0x000133c8                __truncdfsf2
 .text          0x0001343c        0x0 c:/altera/10.1sp1/nios2eds/bin/gnu/h-i686-mingw32/bin/../lib/gcc/nios2-elf/4.1.2/mno-hw-mul\libgcc.a(_thenan_df.o)
 .text          0x0001343c      0x194 c:/altera/10.1sp1/nios2eds/bin/gnu/h-i686-mingw32/bin/../lib/gcc/nios2-elf/4.1.2/mno-hw-mul\libgcc.a(_usi_to_df.o)
                0x0001343c                __floatunsidf
 .text          0x000135d0      0x14c c:/altera/10.1sp1/nios2eds/bin/gnu/h-i686-mingw32/bin/../lib/gcc/nios2-elf/4.1.2/mno-hw-mul\libgcc.a(lib2-divmod.o)
                0x0001364c                __divsi3
                0x000136ac                __modsi3
                0x0001370c                __udivsi3
                0x00013714                __umodsi3
 .text          0x0001371c       0x38 c:/altera/10.1sp1/nios2eds/bin/gnu/h-i686-mingw32/bin/../lib/gcc/nios2-elf/4.1.2/mno-hw-mul\libgcc.a(lib2-mul.o)
                0x0001371c                __mulsi3
 .text          0x00013754       0x80 c:/altera/10.1sp1/nios2eds/bin/gnu/h-i686-mingw32/bin/../lib/gcc/nios2-elf/4.1.2/mno-hw-mul\libgcc.a(_clzsi2.o)
                0x00013754                __clzsi2
 .text          0x000137d4      0x160 c:/altera/10.1sp1/nios2eds/bin/gnu/h-i686-mingw32/bin/../lib/gcc/nios2-elf/4.1.2/mno-hw-mul\libgcc.a(_pack_sf.o)
                0x000137d4                __pack_f
 .text          0x00013934       0xc8 c:/altera/10.1sp1/nios2eds/bin/gnu/h-i686-mingw32/bin/../lib/gcc/nios2-elf/4.1.2/mno-hw-mul\libgcc.a(_unpack_sf.o)
                0x00013934                __unpack_f
 .text          0x000139fc       0xa8 c:/altera/10.1sp1/nios2eds/bin/gnu/h-i686-mingw32/bin/../lib/gcc/nios2-elf/4.1.2/mno-hw-mul\libgcc.a(_fpcmp_parts_sf.o)
                0x000139fc                __fpcmp_parts_f
 .text          0x00013aa4       0x2c c:/altera/10.1sp1/nios2eds/bin/gnu/h-i686-mingw32/bin/../lib/gcc/nios2-elf/4.1.2/mno-hw-mul\libgcc.a(_make_sf.o)
                0x00013aa4                __make_fp
 .text          0x00013ad0      0x314 c:/altera/10.1sp1/nios2eds/bin/gnu/h-i686-mingw32/bin/../lib/gcc/nios2-elf/4.1.2/mno-hw-mul\libgcc.a(_pack_df.o)
                0x00013ad0                __pack_d
 .text          0x00013de4      0x138 c:/altera/10.1sp1/nios2eds/bin/gnu/h-i686-mingw32/bin/../lib/gcc/nios2-elf/4.1.2/mno-hw-mul\libgcc.a(_unpack_df.o)
                0x00013de4                __unpack_d
 .text          0x00013f1c       0xc8 c:/altera/10.1sp1/nios2eds/bin/gnu/h-i686-mingw32/bin/../lib/gcc/nios2-elf/4.1.2/mno-hw-mul\libgcc.a(_fpcmp_parts_df.o)
                0x00013f1c                __fpcmp_parts_d
 .text          0x00013fe4        0x0 c:/altera/10.1sp1/nios2eds/bin/gnu/h-i686-mingw32/bin/../lib/gcc/nios2-elf/4.1.2/mno-hw-mul\libgcc.a(_clz.o)
 .text          0x00013fe4        0x0 c:/altera/10.1sp1/nios2eds/bin/gnu/h-i686-mingw32/bin/../lib/gcc/nios2-elf/4.1.2/../../../../nios2-elf/lib/mno-hw-mul\libc.a(lib_a-ctype_.o)
 .text          0x00013fe4       0x10 c:/altera/10.1sp1/nios2eds/bin/gnu/h-i686-mingw32/bin/../lib/gcc/nios2-elf/4.1.2/../../../../nios2-elf/lib/mno-hw-mul\libc.a(lib_a-errno.o)
                0x00013fe4                __errno
 .text          0x00013ff4       0x60 c:/altera/10.1sp1/nios2eds/bin/gnu/h-i686-mingw32/bin/../lib/gcc/nios2-elf/4.1.2/../../../../nios2-elf/lib/mno-hw-mul\libc.a(lib_a-fprintf.o)
                0x00013ff4                fprintf
                0x00014020                _fprintf_r
 .text          0x00014054       0xec c:/altera/10.1sp1/nios2eds/bin/gnu/h-i686-mingw32/bin/../lib/gcc/nios2-elf/4.1.2/../../../../nios2-elf/lib/mno-hw-mul\libc.a(lib_a-fwrite.o)
                0x00014054                _fwrite_r
                0x00014100                fwrite
 .text          0x00014140      0x128 c:/altera/10.1sp1/nios2eds/bin/gnu/h-i686-mingw32/bin/../lib/gcc/nios2-elf/4.1.2/../../../../nios2-elf/lib/mno-hw-mul\libc.a(lib_a-getc.o)
                0x00014140                getc
                0x000141d8                _getc_r
 .text          0x00014268        0x0 c:/altera/10.1sp1/nios2eds/bin/gnu/h-i686-mingw32/bin/../lib/gcc/nios2-elf/4.1.2/../../../../nios2-elf/lib/mno-hw-mul\libc.a(lib_a-impure.o)
 .text          0x00014268       0x1c c:/altera/10.1sp1/nios2eds/bin/gnu/h-i686-mingw32/bin/../lib/gcc/nios2-elf/4.1.2/../../../../nios2-elf/lib/mno-hw-mul\libc.a(lib_a-malign.o)
                0x00014268                memalign
 .text          0x00014284      0x1cc c:/altera/10.1sp1/nios2eds/bin/gnu/h-i686-mingw32/bin/../lib/gcc/nios2-elf/4.1.2/../../../../nios2-elf/lib/mno-hw-mul\libc.a(lib_a-malignr.o)
                0x00014284                _memalign_r
 .text          0x00014450       0x28 c:/altera/10.1sp1/nios2eds/bin/gnu/h-i686-mingw32/bin/../lib/gcc/nios2-elf/4.1.2/../../../../nios2-elf/lib/mno-hw-mul\libc.a(lib_a-malloc.o)
                0x00014450                free
                0x00014464                malloc
 .text          0x00014478      0x740 c:/altera/10.1sp1/nios2eds/bin/gnu/h-i686-mingw32/bin/../lib/gcc/nios2-elf/4.1.2/../../../../nios2-elf/lib/mno-hw-mul\libc.a(lib_a-mallocr.o)
                0x00014478                _malloc_r
 .text          0x00014bb8       0xa0 c:/altera/10.1sp1/nios2eds/bin/gnu/h-i686-mingw32/bin/../lib/gcc/nios2-elf/4.1.2/../../../../nios2-elf/lib/mno-hw-mul\libc.a(lib_a-memcpy.o)
                0x00014bb8                memcpy
 .text          0x00014c58       0x98 c:/altera/10.1sp1/nios2eds/bin/gnu/h-i686-mingw32/bin/../lib/gcc/nios2-elf/4.1.2/../../../../nios2-elf/lib/mno-hw-mul\libc.a(lib_a-memset.o)
                0x00014c58                memset
 .text          0x00014cf0       0x80 c:/altera/10.1sp1/nios2eds/bin/gnu/h-i686-mingw32/bin/../lib/gcc/nios2-elf/4.1.2/../../../../nios2-elf/lib/mno-hw-mul\libc.a(lib_a-perror.o)
                0x00014cf0                _perror_r
                0x00014d5c                perror
 .text          0x00014d70       0x78 c:/altera/10.1sp1/nios2eds/bin/gnu/h-i686-mingw32/bin/../lib/gcc/nios2-elf/4.1.2/../../../../nios2-elf/lib/mno-hw-mul\libc.a(lib_a-printf.o)
                0x00014d70                printf
                0x00014db4                _printf_r
 .text          0x00014de8      0x1ec c:/altera/10.1sp1/nios2eds/bin/gnu/h-i686-mingw32/bin/../lib/gcc/nios2-elf/4.1.2/../../../../nios2-elf/lib/mno-hw-mul\libc.a(lib_a-putc.o)
                0x00014de8                putc
                0x00014eec                _putc_r
 .text          0x00014fd4       0x24 c:/altera/10.1sp1/nios2eds/bin/gnu/h-i686-mingw32/bin/../lib/gcc/nios2-elf/4.1.2/../../../../nios2-elf/lib/mno-hw-mul\libc.a(lib_a-putchar.o)
                0x00014fd4                putchar
                0x00014ff0                _putchar_r
 .text          0x00014ff8       0xb4 c:/altera/10.1sp1/nios2eds/bin/gnu/h-i686-mingw32/bin/../lib/gcc/nios2-elf/4.1.2/../../../../nios2-elf/lib/mno-hw-mul\libc.a(lib_a-puts.o)
                0x00014ff8                _puts_r
                0x00015098                puts
 .text          0x000150ac       0x60 c:/altera/10.1sp1/nios2eds/bin/gnu/h-i686-mingw32/bin/../lib/gcc/nios2-elf/4.1.2/../../../../nios2-elf/lib/mno-hw-mul\libc.a(lib_a-rget.o)
                0x000150ac                __srget_r
                0x000150f8                __srget
 .text          0x0001510c       0x70 c:/altera/10.1sp1/nios2eds/bin/gnu/h-i686-mingw32/bin/../lib/gcc/nios2-elf/4.1.2/../../../../nios2-elf/lib/mno-hw-mul\libc.a(lib_a-sbrkr.o)
                0x0001510c                _sbrk_r
 .text          0x0001517c       0xd4 c:/altera/10.1sp1/nios2eds/bin/gnu/h-i686-mingw32/bin/../lib/gcc/nios2-elf/4.1.2/../../../../nios2-elf/lib/mno-hw-mul\libc.a(lib_a-sprintf.o)
                0x0001517c                sprintf
                0x000151f0                _sprintf_r
 .text          0x00015250       0x8c c:/altera/10.1sp1/nios2eds/bin/gnu/h-i686-mingw32/bin/../lib/gcc/nios2-elf/4.1.2/../../../../nios2-elf/lib/mno-hw-mul\libc.a(lib_a-strcpy.o)
                0x00015250                strcpy
 .text          0x000152dc      0x674 c:/altera/10.1sp1/nios2eds/bin/gnu/h-i686-mingw32/bin/../lib/gcc/nios2-elf/4.1.2/../../../../nios2-elf/lib/mno-hw-mul\libc.a(lib_a-strerror.o)
                0x000152dc                strerror
 .text          0x00015950       0x74 c:/altera/10.1sp1/nios2eds/bin/gnu/h-i686-mingw32/bin/../lib/gcc/nios2-elf/4.1.2/../../../../nios2-elf/lib/mno-hw-mul\libc.a(lib_a-strlen.o)
                0x00015950                strlen
 .text          0x000159c4        0x8 c:/altera/10.1sp1/nios2eds/bin/gnu/h-i686-mingw32/bin/../lib/gcc/nios2-elf/4.1.2/../../../../nios2-elf/lib/mno-hw-mul\libc.a(lib_a-u_strerr.o)
                0x000159c4                _user_strerror
 .text          0x000159cc     0x1f40 c:/altera/10.1sp1/nios2eds/bin/gnu/h-i686-mingw32/bin/../lib/gcc/nios2-elf/4.1.2/../../../../nios2-elf/lib/mno-hw-mul\libc.a(lib_a-vfprintf.o)
                0x00015a24                ___vfprintf_internal_r
                0x000178e8                __vfprintf_internal
 .text          0x0001790c      0x14c c:/altera/10.1sp1/nios2eds/bin/gnu/h-i686-mingw32/bin/../lib/gcc/nios2-elf/4.1.2/../../../../nios2-elf/lib/mno-hw-mul\libc.a(lib_a-wbuf.o)
                0x0001790c                __swbuf_r
                0x00017a3c                __swbuf
 .text          0x00017a58      0x13c c:/altera/10.1sp1/nios2eds/bin/gnu/h-i686-mingw32/bin/../lib/gcc/nios2-elf/4.1.2/../../../../nios2-elf/lib/mno-hw-mul\libc.a(lib_a-wsetup.o)
                0x00017a58                __swsetup_r
 .text          0x00017b94     0x17f8 c:/altera/10.1sp1/nios2eds/bin/gnu/h-i686-mingw32/bin/../lib/gcc/nios2-elf/4.1.2/../../../../nios2-elf/lib/mno-hw-mul\libc.a(lib_a-dtoa.o)
                0x00017dd8                _dtoa_r
 .text          0x0001938c      0x230 c:/altera/10.1sp1/nios2eds/bin/gnu/h-i686-mingw32/bin/../lib/gcc/nios2-elf/4.1.2/../../../../nios2-elf/lib/mno-hw-mul\libc.a(lib_a-fflush.o)
                0x0001938c                _fflush_r
                0x00019588                fflush
 .text          0x000195bc      0x2f4 c:/altera/10.1sp1/nios2eds/bin/gnu/h-i686-mingw32/bin/../lib/gcc/nios2-elf/4.1.2/../../../../nios2-elf/lib/mno-hw-mul\libc.a(lib_a-findfp.o)
                0x00019614                __sfp_lock_acquire
                0x00019618                __sfp_lock_release
                0x0001961c                __sinit_lock_acquire
                0x00019620                __sinit_lock_release
                0x00019624                __sinit
                0x000196d8                __fp_unlock_all
                0x000196f0                __fp_lock_all
                0x00019708                _cleanup_r
                0x00019714                _cleanup
                0x00019724                __sfmoreglue
                0x000197c0                __sfp
 .text          0x000198b0       0xbc c:/altera/10.1sp1/nios2eds/bin/gnu/h-i686-mingw32/bin/../lib/gcc/nios2-elf/4.1.2/../../../../nios2-elf/lib/mno-hw-mul\libc.a(lib_a-fputc.o)
                0x000198b0                fputc
                0x00019914                _fputc_r
 .text          0x0001996c       0x90 c:/altera/10.1sp1/nios2eds/bin/gnu/h-i686-mingw32/bin/../lib/gcc/nios2-elf/4.1.2/../../../../nios2-elf/lib/mno-hw-mul\libc.a(lib_a-fputs.o)
                0x0001996c                _fputs_r
                0x000199e0                fputs
 .text          0x000199fc      0x440 c:/altera/10.1sp1/nios2eds/bin/gnu/h-i686-mingw32/bin/../lib/gcc/nios2-elf/4.1.2/../../../../nios2-elf/lib/mno-hw-mul\libc.a(lib_a-freer.o)
                0x000199fc                _malloc_trim_r
                0x00019b28                _free_r
 .text          0x00019e3c      0x49c c:/altera/10.1sp1/nios2eds/bin/gnu/h-i686-mingw32/bin/../lib/gcc/nios2-elf/4.1.2/../../../../nios2-elf/lib/mno-hw-mul\libc.a(lib_a-fvwrite.o)
                0x00019e3c                __sfvwrite_r
 .text          0x0001a2d8      0x180 c:/altera/10.1sp1/nios2eds/bin/gnu/h-i686-mingw32/bin/../lib/gcc/nios2-elf/4.1.2/../../../../nios2-elf/lib/mno-hw-mul\libc.a(lib_a-fwalk.o)
                0x0001a2d8                _fwalk_reent
                0x0001a3a0                _fwalk
 .text          0x0001a458        0x0 c:/altera/10.1sp1/nios2eds/bin/gnu/h-i686-mingw32/bin/../lib/gcc/nios2-elf/4.1.2/../../../../nios2-elf/lib/mno-hw-mul\libc.a(lib_a-int_errno.o)
 .text          0x0001a458       0xc4 c:/altera/10.1sp1/nios2eds/bin/gnu/h-i686-mingw32/bin/../lib/gcc/nios2-elf/4.1.2/../../../../nios2-elf/lib/mno-hw-mul\libc.a(lib_a-locale.o)
                0x0001a458                __locale_charset
                0x0001a460                _localeconv_r
                0x0001a46c                localeconv
                0x0001a47c                _setlocale_r
                0x0001a500                setlocale
 .text          0x0001a51c      0x194 c:/altera/10.1sp1/nios2eds/bin/gnu/h-i686-mingw32/bin/../lib/gcc/nios2-elf/4.1.2/../../../../nios2-elf/lib/mno-hw-mul\libc.a(lib_a-makebuf.o)
                0x0001a51c                __smakebuf_r
 .text          0x0001a6b0       0xe4 c:/altera/10.1sp1/nios2eds/bin/gnu/h-i686-mingw32/bin/../lib/gcc/nios2-elf/4.1.2/../../../../nios2-elf/lib/mno-hw-mul\libc.a(lib_a-memchr.o)
                0x0001a6b0                memchr
 .text          0x0001a794       0xe0 c:/altera/10.1sp1/nios2eds/bin/gnu/h-i686-mingw32/bin/../lib/gcc/nios2-elf/4.1.2/../../../../nios2-elf/lib/mno-hw-mul\libc.a(lib_a-memmove.o)
                0x0001a794                memmove
 .text          0x0001a874     0x108c c:/altera/10.1sp1/nios2eds/bin/gnu/h-i686-mingw32/bin/../lib/gcc/nios2-elf/4.1.2/../../../../nios2-elf/lib/mno-hw-mul\libc.a(lib_a-mprec.o)
                0x0001a874                _Bfree
                0x0001a89c                __hi0bits
                0x0001a90c                __lo0bits
                0x0001a9d0                __mcmp
                0x0001aa30                __ulp
                0x0001aab0                __b2d
                0x0001abd0                __ratio
                0x0001ac80                _mprec_log10
                0x0001ad14                __copybits
                0x0001ad6c                __any_on
                0x0001adf4                _Balloc
                0x0001aeb0                __d2b
                0x0001b02c                __mdiff
                0x0001b1b8                __lshift
                0x0001b304                __multiply
                0x0001b558                __i2b
                0x0001b594                __multadd
                0x0001b6c0                __pow5mult
                0x0001b7e0                __s2b
 .text          0x0001b900      0x5f4 c:/altera/10.1sp1/nios2eds/bin/gnu/h-i686-mingw32/bin/../lib/gcc/nios2-elf/4.1.2/../../../../nios2-elf/lib/mno-hw-mul\libc.a(lib_a-reallocr.o)
                0x0001b900                _realloc_r
 .text          0x0001bef4      0x1e0 c:/altera/10.1sp1/nios2eds/bin/gnu/h-i686-mingw32/bin/../lib/gcc/nios2-elf/4.1.2/../../../../nios2-elf/lib/mno-hw-mul\libc.a(lib_a-refill.o)
                0x0001bef4                __srefill_r
 .text          0x0001c0d4       0x40 c:/altera/10.1sp1/nios2eds/bin/gnu/h-i686-mingw32/bin/../lib/gcc/nios2-elf/4.1.2/../../../../nios2-elf/lib/mno-hw-mul\libc.a(lib_a-s_isinfd.o)
                0x0001c0d4                __isinfd
 .text          0x0001c114      0x14c c:/altera/10.1sp1/nios2eds/bin/gnu/h-i686-mingw32/bin/../lib/gcc/nios2-elf/4.1.2/../../../../nios2-elf/lib/mno-hw-mul\libc.a(lib_a-stdio.o)
                0x0001c114                __sclose
                0x0001c11c                __sseek
                0x0001c184                __swrite
                0x0001c200                __sread
 .text          0x0001c260       0xbc c:/altera/10.1sp1/nios2eds/bin/gnu/h-i686-mingw32/bin/../lib/gcc/nios2-elf/4.1.2/../../../../nios2-elf/lib/mno-hw-mul\libc.a(lib_a-strcmp.o)
                0x0001c260                strcmp
 .text          0x0001c31c       0x78 c:/altera/10.1sp1/nios2eds/bin/gnu/h-i686-mingw32/bin/../lib/gcc/nios2-elf/4.1.2/../../../../nios2-elf/lib/mno-hw-mul\libc.a(lib_a-writer.o)
                0x0001c31c                _write_r
 .text          0x0001c394       0xc8 c:/altera/10.1sp1/nios2eds/bin/gnu/h-i686-mingw32/bin/../lib/gcc/nios2-elf/4.1.2/../../../../nios2-elf/lib/mno-hw-mul\libc.a(lib_a-callocr.o)
                0x0001c394                _calloc_r
 .text          0x0001c45c       0x70 c:/altera/10.1sp1/nios2eds/bin/gnu/h-i686-mingw32/bin/../lib/gcc/nios2-elf/4.1.2/../../../../nios2-elf/lib/mno-hw-mul\libc.a(lib_a-closer.o)
                0x0001c45c                _close_r
 .text          0x0001c4cc      0x124 c:/altera/10.1sp1/nios2eds/bin/gnu/h-i686-mingw32/bin/../lib/gcc/nios2-elf/4.1.2/../../../../nios2-elf/lib/mno-hw-mul\libc.a(lib_a-fclose.o)
                0x0001c4cc                _fclose_r
                0x0001c5dc                fclose
 .text          0x0001c5f0       0x74 c:/altera/10.1sp1/nios2eds/bin/gnu/h-i686-mingw32/bin/../lib/gcc/nios2-elf/4.1.2/../../../../nios2-elf/lib/mno-hw-mul\libc.a(lib_a-fstatr.o)
                0x0001c5f0                _fstat_r
 .text          0x0001c664       0x70 c:/altera/10.1sp1/nios2eds/bin/gnu/h-i686-mingw32/bin/../lib/gcc/nios2-elf/4.1.2/../../../../nios2-elf/lib/mno-hw-mul\libc.a(lib_a-isattyr.o)
                0x0001c664                _isatty_r
 .text          0x0001c6d4       0x78 c:/altera/10.1sp1/nios2eds/bin/gnu/h-i686-mingw32/bin/../lib/gcc/nios2-elf/4.1.2/../../../../nios2-elf/lib/mno-hw-mul\libc.a(lib_a-lseekr.o)
                0x0001c6d4                _lseek_r
 .text          0x0001c74c       0x78 c:/altera/10.1sp1/nios2eds/bin/gnu/h-i686-mingw32/bin/../lib/gcc/nios2-elf/4.1.2/../../../../nios2-elf/lib/mno-hw-mul\libc.a(lib_a-readr.o)
                0x0001c74c                _read_r
 .text          0x0001c7c4      0x66c c:/altera/10.1sp1/nios2eds/bin/gnu/h-i686-mingw32/bin/../lib/gcc/nios2-elf/4.1.2/mno-hw-mul\libgcc.a(_udivdi3.o)
                0x0001c7c4                __udivdi3
 .text          0x0001ce30      0x660 c:/altera/10.1sp1/nios2eds/bin/gnu/h-i686-mingw32/bin/../lib/gcc/nios2-elf/4.1.2/mno-hw-mul\libgcc.a(_umoddi3.o)
                0x0001ce30                __umoddi3
 .text          0x0001d490       0x88 c:/altera/10.1sp1/nios2eds/bin/gnu/h-i686-mingw32/bin/../lib/gcc/nios2-elf/4.1.2/mno-hw-mul\libgcc.a(_ne_df.o)
                0x0001d490                __nedf2
 .text          0x0001d518      0x138 ../RedeFFTHW_bsp\libucosii_bsp.a(alt_fstat.o)
                0x0001d518                fstat
 .text          0x0001d650      0x124 ../RedeFFTHW_bsp\libucosii_bsp.a(alt_isatty.o)
                0x0001d650                isatty
 .text          0x0001d774       0xec ../RedeFFTHW_bsp\libucosii_bsp.a(alt_load.o)
                0x0001d774                alt_load
 .text          0x0001d860      0x154 ../RedeFFTHW_bsp\libucosii_bsp.a(alt_lseek.o)
                0x0001d860                lseek
 .text          0x0001d9b4       0xc8 ../RedeFFTHW_bsp\libucosii_bsp.a(alt_main.o)
                0x0001d9b4                alt_main
 .text          0x0001da7c       0x38 ../RedeFFTHW_bsp\libucosii_bsp.a(alt_remap_cached.o)
                0x0001da7c                alt_remap_cached
 .text          0x0001dab4       0x40 ../RedeFFTHW_bsp\libucosii_bsp.a(alt_remap_uncached.o)
                0x0001dab4                alt_remap_uncached
 .text          0x0001daf4       0xbc ../RedeFFTHW_bsp\libucosii_bsp.a(alt_sbrk.o)
                0x0001daf4                sbrk
 .text          0x0001dbb0      0x1a8 ../RedeFFTHW_bsp\libucosii_bsp.a(alt_tick.o)
                0x0001dbb0                alt_alarm_stop
                0x0001dc48                alt_tick
 .text          0x0001dd58       0x64 ../RedeFFTHW_bsp\libucosii_bsp.a(alt_uncached_malloc.o)
                0x0001dd58                alt_uncached_malloc
 .text          0x0001ddbc      0x120 ../RedeFFTHW_bsp\libucosii_bsp.a(alt_usleep.o)
                0x0001ddbc                usleep
 .text          0x0001dedc      0x108 ../RedeFFTHW_bsp\libucosii_bsp.a(alt_env_lock.o)
                0x0001dedc                __env_lock
                0x0001df88                __env_unlock
 .text          0x0001dfe4      0x1d8 ../RedeFFTHW_bsp\libucosii_bsp.a(alt_malloc_lock.o)
                0x0001dfe4                __malloc_lock
                0x0001e0ec                __malloc_unlock
 .text          0x0001e1bc     0x2128 ../RedeFFTHW_bsp\libucosii_bsp.a(os_core.o)
                0x0001e1bc                OSEventNameGet
                0x0001e2ec                OSEventNameSet
                0x0001e430                OSEventPendMulti
                0x0001eae4                OSInit
                0x0001eb38                OSIntEnter
                0x0001ebb4                OSIntExit
                0x0001ecb4                OSSchedLock
                0x0001ed40                OSSchedUnlock
                0x0001ee24                OSStart
                0x0001ee94                OSStatInit
                0x0001ef40                OSTimeTick
                0x0001f180                OSVersion
                0x0001f1a0                OS_Dummy
                0x0001f1bc                OS_EventTaskRdy
                0x0001f350                OS_EventTaskWait
                0x0001f460                OS_EventTaskWaitMulti
                0x0001f5b4                OS_EventTaskRemove
                0x0001f66c                OS_EventTaskRemoveMulti
                0x0001f770                OS_EventWaitListInit
                0x0001fb3c                OS_MemClr
                0x0001fb90                OS_MemCopy
                0x0001fbfc                OS_Sched
                0x0001fd40                OS_StrCopy
                0x0001fdc0                OS_StrLen
                0x0001fe18                OS_TaskIdle
                0x0001fe74                OS_TaskStat
                0x0001ff3c                OS_TaskStatStkChk
                0x00020004                OS_TCBInit
 .text          0x000202e4      0x18c ../RedeFFTHW_bsp\libucosii_bsp.a(os_dbg.o)
                0x000202e4                OSDebugInit
 .text          0x00020470     0x193c ../RedeFFTHW_bsp\libucosii_bsp.a(os_flag.o)
                0x00020470                OSFlagAccept
                0x000207a4                OSFlagCreate
                0x000208e0                OSFlagDel
                0x00020b88                OSFlagNameGet
                0x00020ccc                OSFlagNameSet
                0x00020e20                OSFlagPend
                0x00021464                OSFlagPendGetFlagsRdy
                0x000214cc                OSFlagPost
                0x00021874                OSFlagQuery
                0x00021b0c                OS_FlagInit
                0x00021d00                OS_FlagUnlink
 .text          0x00021dac      0x80c ../RedeFFTHW_bsp\libucosii_bsp.a(os_mem.o)
                0x00021dac                OSMemCreate
                0x00021fc8                OSMemGet
                0x000220cc                OSMemNameGet
                0x000221d8                OSMemNameSet
                0x000222f8                OSMemPut
                0x000223e8                OSMemQuery
                0x000224e4                OS_MemInit
 .text          0x000225b8     0x1334 ../RedeFFTHW_bsp\libucosii_bsp.a(os_q.o)
                0x000225b8                OSQAccept
                0x0002270c                OSQCreate
                0x00022920                OSQDel
                0x00022c20                OSQFlush
                0x00022ce8                OSQPend
                0x00023008                OSQPendAbort
                0x00023184                OSQPost
                0x00023304                OSQPostFront
                0x0002348c                OSQPostOpt
                0x000236c0                OSQQuery
                0x00023840                OS_QInit
 .text          0x000238ec      0xbc8 ../RedeFFTHW_bsp\libucosii_bsp.a(os_sem.o)
                0x000238ec                OSSemAccept
                0x000239ac                OSSemCreate
                0x00023ac0                OSSemDel
                0x00023d60                OSSemPend
                0x00023fdc                OSSemPendAbort
                0x00024158                OSSemPost
                0x00024280                OSSemQuery
                0x000243b0                OSSemSet
 .text          0x000244b4     0x1a40 ../RedeFFTHW_bsp\libucosii_bsp.a(os_task.o)
                0x000244b4                OSTaskChangePrio
                0x00024a28                OSTaskCreate
                0x00024bfc                OSTaskCreateExt
                0x00024dfc                OSTaskDel
                0x00025208                OSTaskDelReq
                0x00025378                OSTaskNameGet
                0x00025530                OSTaskNameSet
                0x000256f4                OSTaskResume
                0x0002590c                OSTaskStkChk
                0x00025b08                OSTaskSuspend
                0x00025d34                OSTaskQuery
                0x00025e78                OS_TaskStkClr
 .text          0x00025ef4      0x5b4 ../RedeFFTHW_bsp\libucosii_bsp.a(os_time.o)
                0x00025ef4                OSTimeDly
                0x00026040                OSTimeDlyHMSM
                0x000261d0                OSTimeDlyResume
                0x000263e0                OSTimeGet
                0x00026444                OSTimeSet
 .text          0x000264a8      0x328 ../RedeFFTHW_bsp\libucosii_bsp.a(alt_sys_init.o)
                0x000264a8                alt_irq_init
                0x000264dc                alt_sys_init
 .text          0x000267d0      0x148 ../RedeFFTHW_bsp\libucosii_bsp.a(altera_avalon_jtag_uart_fd.o)
                0x000267d0                altera_avalon_jtag_uart_read_fd
                0x00026828                altera_avalon_jtag_uart_write_fd
                0x00026880                altera_avalon_jtag_uart_close_fd
                0x000268c8                altera_avalon_jtag_uart_ioctl_fd
 .text          0x00026918      0x584 ../RedeFFTHW_bsp\libucosii_bsp.a(altera_avalon_jtag_uart_init.o)
                0x00026918                altera_avalon_jtag_uart_init
                0x00026e28                altera_avalon_jtag_uart_close
 .text          0x00026e9c       0xf4 ../RedeFFTHW_bsp\libucosii_bsp.a(altera_avalon_jtag_uart_ioctl.o)
                0x00026e9c                altera_avalon_jtag_uart_ioctl
 .text          0x00026f90      0x2c0 ../RedeFFTHW_bsp\libucosii_bsp.a(altera_avalon_jtag_uart_read.o)
                0x00026f90                altera_avalon_jtag_uart_read
 .text          0x00027250      0x2dc ../RedeFFTHW_bsp\libucosii_bsp.a(altera_avalon_jtag_uart_write.o)
                0x00027250                altera_avalon_jtag_uart_write
 .text          0x0002752c      0xd0c ../RedeFFTHW_bsp\libucosii_bsp.a(altera_avalon_sgdma.o)
                0x0002752c                alt_avalon_sgdma_do_async_transfer
                0x00027668                alt_avalon_sgdma_do_sync_transfer
                0x0002778c                alt_avalon_sgdma_construct_mem_to_mem_desc
                0x000277fc                alt_avalon_sgdma_construct_mem_to_mem_desc_burst
                0x0002787c                alt_avalon_sgdma_construct_stream_to_mem_desc
                0x000278d0                alt_avalon_sgdma_construct_stream_to_mem_desc_burst
                0x00027940                alt_avalon_sgdma_construct_mem_to_stream_desc
                0x000279b4                alt_avalon_sgdma_construct_mem_to_stream_desc_burst
                0x00027a38                alt_avalon_sgdma_register_callback
                0x00027a88                alt_avalon_sgdma_start
                0x00027adc                alt_avalon_sgdma_stop
                0x00027b34                alt_avalon_sgdma_check_descriptor_status
                0x00027ba4                alt_avalon_sgdma_open
                0x00027c5c                alt_avalon_sgdma_construct_descriptor
                0x00027ce4                alt_avalon_sgdma_construct_descriptor_burst
                0x0002818c                alt_avalon_sgdma_init
 .text          0x00028238      0x100 ../RedeFFTHW_bsp\libucosii_bsp.a(altera_avalon_timer_sc.o)
                0x000282a8                alt_avalon_timer_sc_init
 .text          0x00028338     0x189c ../RedeFFTHW_bsp\libucosii_bsp.a(ins_tse_mac.o)
                0x00028338                triple_speed_ethernet_init
                0x000284b4                prep_tse_mac
                0x00028734                tse_mac_init
                0x000292e4                tse_mac_raw_send
                0x000295dc                tse_sgdmaRx_isr
                0x00029684                tse_sgdma_read_init
                0x0002982c                tse_mac_rcv
                0x00029a7c                tse_mac_stats
                0x00029abc                tse_mac_close
 .text          0x00029bd4      0x294 ../RedeFFTHW_bsp\libucosii_bsp.a(perf_print_formatted_report.o)
                0x00029bd4                perf_print_formatted_report
 .text          0x00029e68       0x54 ../RedeFFTHW_bsp\libucosii_bsp.a(alt_iniche_close.o)
                0x00029e68                close
 .text          0x00029ebc      0x144 ../RedeFFTHW_bsp\libucosii_bsp.a(alt_iniche_dev.o)
                0x00029ebc                iniche_devices_init
 .text          0x0002a000       0x78 ../RedeFFTHW_bsp\libucosii_bsp.a(alt_iniche_read.o)
                0x0002a000                read
 .text          0x0002a078       0x70 ../RedeFFTHW_bsp\libucosii_bsp.a(alt_iniche_write.o)
                0x0002a078                write
 .text          0x0002a0e8      0xedc ../RedeFFTHW_bsp\libucosii_bsp.a(ipnet.o)
                0x0002a0e8                Netinit
                0x0002a734                fixup_subnet_mask
                0x0002a894                netclose
                0x0002a97c                pktdemux
                0x0002ad50                c_older
                0x0002ae20                ip2mac
 .text          0x0002afc4      0x4bc ../RedeFFTHW_bsp\libucosii_bsp.a(ipstart.o)
                0x0002afc4                ip_startup
                0x0002b2b4                exit_hook
                0x0002b320                ip_exit
                0x0002b3f0                if_netnumber
 .text          0x0002b480     0x1010 ../RedeFFTHW_bsp\libucosii_bsp.a(igmp_cmn.o)
                0x0002b480                igmp_init
                0x0002b530                igmp_input
                0x0002b628                igmp_fasttimo
                0x0002b7c4                igmp_send
                0x0002ba6c                igmp_joingroup
                0x0002bcd8                igmp_leavegroup
                0x0002bd54                igmp_validate
                0x0002c0b0                igmp_print_stats
 .text          0x0002c490      0xb6c ../RedeFFTHW_bsp\libucosii_bsp.a(bsdsock.o)
                0x0002c490                bsd_accept
                0x0002c5c8                bsd_getpeername
                0x0002c6f4                bsd_getsockname
                0x0002c820                bsd_i_sockoptlen
                0x0002c9d8                bsd_getsockopt
                0x0002caf8                bsd_ioctl
                0x0002cbfc                bsd_inet_ntoa
                0x0002cc2c                bsd_recvfrom
                0x0002cd8c                bsd_select
                0x0002cf10                bsd_setsockopt
 .text          0x0002cffc      0x118 ../RedeFFTHW_bsp\libucosii_bsp.a(cksum.o)
                0x0002cffc                ccksum
                0x0002d0ac                cksum
 .text          0x0002d114      0xa9c ../RedeFFTHW_bsp\libucosii_bsp.a(in_utils.o)
                0x0002d114                do_trap
                0x0002d140                nextarg
                0x0002d1bc                hexdump
                0x0002d304                print_ipad
                0x0002d378                print_uptime
                0x0002d4a4                panic
                0x0002d4e8                print_eth
                0x0002d64c                uslash
                0x0002d6cc                ns_printf
                0x0002d850                std_out
                0x0002d894                con_page
                0x0002d984                parse_args
 .text          0x0002dbb0      0x1d0 ../RedeFFTHW_bsp\libucosii_bsp.a(netmain.o)
                0x0002dbb0                netmain
                0x0002dcac                tk_netmain
                0x0002dd34                tk_nettick
 .text          0x0002dd80      0x62c ../RedeFFTHW_bsp\libucosii_bsp.a(tk_crnos.o)
                0x0002dd80                TK_OSTimeDly
                0x0002ddac                TK_OSTaskResume
                0x0002de1c                tcp_sleep
                0x0002dfe4                tcp_wakeup
                0x0002e104                TK_OSTaskQuery
                0x0002e178                tk_yield
                0x0002e1a4                tk_stats
 .text          0x0002e3ac     0x326c ../RedeFFTHW_bsp\libucosii_bsp.a(dhcpclnt.o)
                0x0002e3ac                dhc_get_srv_ipaddr
                0x0002e43c                dhc_init
                0x0002e508                dhc_set_callback
                0x0002e560                dhc_upcall
                0x0002ee20                dhc_buildheader
                0x0002f050                dhc_discover
                0x0002f5a0                dhc_rx_offer
                0x0002f6bc                dhc_request
                0x000302b0                dhc_setip
                0x00030550                dhc_resetip
                0x00030634                dhc_decline
                0x00030818                dhc_extract_opts
                0x00030b00                dhc_second
                0x0003111c                dhc_halt
                0x000311b4                dhc_reclaim
                0x000313b4                dhc_state_init
                0x00031414                dhc_alldone
                0x000314bc                dhc_ifacedone
                0x00031548                dhc_set_state
 .text          0x00031618       0xcc ../RedeFFTHW_bsp\libucosii_bsp.a(dhcputil.o)
                0x00031618                find_opt
 .text          0x000316e4      0x79c ../RedeFFTHW_bsp\libucosii_bsp.a(pktalloc.o)
                0x000316e4                pk_init
                0x00031974                pk_alloc
                0x00031a50                pk_validate
                0x00031d08                pk_free
                0x00031db4                pk_get_max_intrsafe_buf_len
                0x00031dd4                dump_buf_estats
 .text          0x00031e80      0x288 ../RedeFFTHW_bsp\libucosii_bsp.a(q.o)
                0x00031e80                getq
                0x00031f48                putq
                0x00031ff8                qdel
 .text          0x00032108      0x31c ../RedeFFTHW_bsp\libucosii_bsp.a(udp_open.o)
                0x00032108                udp_open
                0x00032340                udp_close
 .text          0x00032424      0x194 ../RedeFFTHW_bsp\libucosii_bsp.a(asm_cksum.o)
                0x00032424                asm_cksum
 .text          0x000325b8      0x2a0 ../RedeFFTHW_bsp\libucosii_bsp.a(brdutils.o)
                0x000325b8                dtrap
                0x000325e8                kbhit
                0x00032694                getch
                0x000326f4                clock_init
                0x00032730                clock_c
                0x0003274c                cticks_hook
                0x000327b8                irq_Mask
                0x00032814                irq_Unmask
 .text          0x00032858      0x488 ../RedeFFTHW_bsp\libucosii_bsp.a(osportco.o)
                0x00032858                LOCK_NET_RESOURCE
                0x00032918                UNLOCK_NET_RESOURCE
                0x000329a0                TK_NEWTASK
                0x00032bb4                wait_app_sem
                0x00032c68                post_app_sem
 .text          0x00032ce0      0x58c ../RedeFFTHW_bsp\libucosii_bsp.a(targnios.o)
                0x00032ce0                alt_iniche_init
                0x00032f20                pre_task_setup
                0x00032f94                post_task_setup
                0x00032fb4                prep_armintcp
                0x00032fec                calloc2
                0x00033020                npalloc
                0x00033114                npfree
                0x000331cc                ncpalloc
                0x00033220                ncpfree
 .text          0x0003326c     0x197c ../RedeFFTHW_bsp\libucosii_bsp.a(nptcp.o)
                0x0003326c                pffindtype
                0x0003330c                pffindproto
                0x000333dc                m_getnbuf
                0x00033584                m_free
                0x000336b8                m_freem
                0x000336fc                m_copy
                0x00033a20                m_adj
                0x00033bf0                mbuf_len
                0x00033c48                dtom
                0x00033cf0                remque
                0x00033d60                insque
                0x00033ddc                nptcp_init
                0x00033f00                tcp_rcv
                0x000340ec                ip_output
                0x000346e4                in_broadcast
                0x00034724                np_stripoptions
                0x0003480c                so_icmpdu
                0x00034b64                tcp_tick
 .text          0x00034be8      0xa2c ../RedeFFTHW_bsp\libucosii_bsp.a(rawsock.o)
                0x00034be8                rawip_lookup
                0x00034c58                rawip_soinput
                0x00034e2c                rawip_usrreq
 .text          0x00035614     0x17fc ../RedeFFTHW_bsp\libucosii_bsp.a(sockcall.o)
                0x00035614                DOMAIN_CHECK
                0x00035660                t_socket
                0x000356f0                t_bind
                0x0003586c                t_listen
                0x00035950                t_accept
                0x00035be8                t_connect
                0x00035e90                t_getpeername
                0x00035ed4                t_getsockname
                0x00036114                t_setsockopt
                0x000362f0                t_getsockopt
                0x00036494                t_recv
                0x00036584                t_recvfrom
                0x000366d4                t_sendto
                0x00036900                t_send
                0x00036b28                t_shutdown
                0x00036c0c                t_socketclose
                0x00036d74                t_errno
 .text          0x00036e10     0x237c ../RedeFFTHW_bsp\libucosii_bsp.a(socket.o)
                0x00036e10                socreate
                0x00036fdc                sobind
                0x00037038                solisten
                0x00037128                sofree
                0x00037258                soclose
                0x00037554                soabort
                0x000375a4                soaccept
                0x00037640                soconnect
                0x00037714                sodisconnect
                0x000377b4                sosend
                0x00037dbc                soreceive
                0x000385a0                soshutdown
                0x00038648                sorflush
                0x00038748                sosetopt
                0x00038c08                sogetopt
                0x00039148                sohasoutofband
 .text          0x0003918c     0x1318 ../RedeFFTHW_bsp\libucosii_bsp.a(socket2.o)
                0x0003918c                soisconnecting
                0x000391f8                soisconnected
                0x000392f4                soisdisconnecting
                0x00039380                soisdisconnected
                0x0003943c                sonewconn
                0x00039658                soqinsque
                0x00039704                soqremque
                0x00039824                socantsendmore
                0x00039874                socantrcvmore
                0x000398c4                sbselqueue
                0x000398fc                sbwait
                0x00039964                sbwakeup
                0x00039a00                soreserve
                0x00039a80                sbreserve
                0x00039ae0                sbrelease
                0x00039b28                sbappend
                0x00039bd0                sbappendrecord
                0x00039cb0                sbappendaddr
                0x00039eb8                sbcompress
                0x0003a0a0                sbflush
                0x0003a130                sbdrop
                0x0003a300                sbdropend
                0x0003a410                sbdroprecord
 .text          0x0003a4a4      0x91c ../RedeFFTHW_bsp\libucosii_bsp.a(soselect.o)
                0x0003a4a4                t_select
                0x0003a6c4                sock_selscan
                0x0003a824                sock_select
                0x0003aa38                in_pcbnotify
                0x0003ab04                tcp_notify
                0x0003ab6c                ifd_clr
                0x0003ac5c                ifd_set
                0x0003acd0                ifd_isset
                0x0003ad50                ifd_get
 .text          0x0003adc0     0x2ff0 ../RedeFFTHW_bsp\libucosii_bsp.a(tcp_in.o)
                0x0003adc0                tcp_reass
                0x0003b1c8                tcp_input
                0x0003d724                tcp_dooptions
                0x0003d8b4                tcp_pulloutofband
                0x0003d9e0                tcp_xmit_timer
                0x0003dc4c                ip4_tcpmss
                0x0003dc94                tcp_mss
 .text          0x0003ddb0     0x1370 ../RedeFFTHW_bsp\libucosii_bsp.a(tcp_out.o)
                0x0003ddb0                tcp_output
                0x0003ef3c                tcp_setpersist
 .text          0x0003f120      0x9e8 ../RedeFFTHW_bsp\libucosii_bsp.a(tcp_subr.o)
                0x0003f120                tcp_init
                0x0003f178                tcp_template
                0x0003f290                tcp_respond
                0x0003f718                tcp_newtcpcb
                0x0003f830                tcp_drop
                0x0003f8dc                tcp_close
                0x0003f9c4                tcp_quench
                0x0003fa10                tcp_putseq
                0x0003fa90                tcp_getseq
 .text          0x0003fb08      0x798 ../RedeFFTHW_bsp\libucosii_bsp.a(tcp_timr.o)
                0x0003fb08                tcp_slowtimo
                0x0003fda8                tcp_canceltimers
                0x0003fe04                tcp_timers
 .text          0x000402a0      0x9ec ../RedeFFTHW_bsp\libucosii_bsp.a(tcp_usr.o)
                0x000402a0                tcp_usrreq
                0x000409a4                tcp_attach
                0x00040ad8                tcp_disconnect
                0x00040bac                tcp_usrclosed
 .text          0x00040c8c       0x4c ../RedeFFTHW_bsp\libucosii_bsp.a(tcpport.o)
                0x00040c8c                tcpinit
 .text          0x00040cd8      0xd20 ../RedeFFTHW_bsp\libucosii_bsp.a(udpsock.o)
                0x00040cd8                udp_lookup
                0x00040d48                udp_soinput
                0x00040f00                udp_usrreq
                0x00041184                udp4_sockbind
                0x000414c0                udp4_socksend
                0x0004189c                udp4_sockaddr
 .text          0x000419f8      0x154 ../RedeFFTHW_bsp\libucosii_bsp.a(alt_alarm_start.o)
                0x000419f8                alt_alarm_start
 .text          0x00041b4c      0x15c ../RedeFFTHW_bsp\libucosii_bsp.a(alt_busy_sleep.o)
                0x00041b4c                alt_busy_sleep
 .text          0x00041ca8      0x160 ../RedeFFTHW_bsp\libucosii_bsp.a(alt_close.o)
                0x00041ca8                alt_close
 .text          0x00041e08       0x24 ../RedeFFTHW_bsp\libucosii_bsp.a(alt_dcache_flush.o)
                0x00041e08                alt_dcache_flush
 .text          0x00041e2c       0x1c ../RedeFFTHW_bsp\libucosii_bsp.a(alt_dcache_flush_all.o)
                0x00041e2c                alt_dcache_flush_all
 .text          0x00041e48       0x2c ../RedeFFTHW_bsp\libucosii_bsp.a(alt_dev.o)
 .text          0x00041e74      0x114 ../RedeFFTHW_bsp\libucosii_bsp.a(alt_dev_llist_insert.o)
                0x00041e74                alt_dev_llist_insert
 .text          0x00041f88       0x64 ../RedeFFTHW_bsp\libucosii_bsp.a(alt_do_ctors.o)
                0x00041f88                _do_ctors
 .text          0x00041fec       0x64 ../RedeFFTHW_bsp\libucosii_bsp.a(alt_do_dtors.o)
                0x00041fec                _do_dtors
 .text          0x00042050        0x0 ../RedeFFTHW_bsp\libucosii_bsp.a(alt_errno.o)
 .text          0x00042050       0x94 ../RedeFFTHW_bsp\libucosii_bsp.a(alt_find_dev.o)
                0x00042050                alt_find_dev
 .text          0x000420e4       0x1c ../RedeFFTHW_bsp\libucosii_bsp.a(alt_icache_flush_all.o)
                0x000420e4                alt_icache_flush_all
 .text          0x00042100      0x1d4 ../RedeFFTHW_bsp\libucosii_bsp.a(alt_iic.o)
                0x00042100                alt_ic_isr_register
                0x00042150                alt_ic_irq_enable
                0x000421ec                alt_ic_irq_disable
                0x0004228c                alt_ic_irq_enabled
 .text          0x000422d4       0xf8 ../RedeFFTHW_bsp\libucosii_bsp.a(alt_iic_isr_register.o)
                0x000422d4                alt_iic_isr_register
 .text          0x000423cc      0x150 ../RedeFFTHW_bsp\libucosii_bsp.a(alt_io_redirect.o)
                0x000424a4                alt_io_redirect
 .text          0x0004251c        0x0 ../RedeFFTHW_bsp\libucosii_bsp.a(alt_irq_entry.o)
 .text          0x0004251c        0x0 ../RedeFFTHW_bsp\libucosii_bsp.a(alt_irq_handler.o)
 .text          0x0004251c        0x0 ../RedeFFTHW_bsp\libucosii_bsp.a(alt_irq_vars.o)
 .text          0x0004251c      0x2e4 ../RedeFFTHW_bsp\libucosii_bsp.a(alt_open.o)
                0x00042614                open
 .text          0x00042800      0x184 ../RedeFFTHW_bsp\libucosii_bsp.a(alt_read.o)
                0x00042800                alt_read
 .text          0x00042984       0x78 ../RedeFFTHW_bsp\libucosii_bsp.a(alt_release_fd.o)
                0x00042984                alt_release_fd
 .text          0x000429fc      0x184 ../RedeFFTHW_bsp\libucosii_bsp.a(alt_write.o)
                0x000429fc                alt_write
 .text          0x00042b80       0x20 ../RedeFFTHW_bsp\libucosii_bsp.a(altera_nios2_irq.o)
                0x00042b80                altera_nios2_irq_init
 .text          0x00042ba0       0xd0 ../RedeFFTHW_bsp\libucosii_bsp.a(os_cpu_a.o)
                0x00042ba0                OSCtxSw
                0x00042ba0                OSIntCtxSw
                0x00042c2c                OSStartHighRdy
                0x00042c4c                OSStartTsk
 .text          0x00042c70      0x424 ../RedeFFTHW_bsp\libucosii_bsp.a(os_cpu_c.o)
                0x00042c70                OSTaskStkInit
                0x00042f80                OSTaskCreateHook
                0x00042fa0                OSTaskDelHook
                0x00042fc0                OSTaskSwHook
                0x00042fdc                OSTaskStatHook
                0x00042ff8                OSTimeTickHook
                0x00043020                OSInitHookBegin
                0x0004303c                OSInitHookEnd
                0x00043058                OSTaskIdleHook
                0x00043074                OSTCBInitHook
 .text          0x00043094      0x188 ../RedeFFTHW_bsp\libucosii_bsp.a(altera_avalon_performance_counter.o)
                0x00043094                perf_get_section_time
                0x00043144                perf_get_total_time
                0x00043198                perf_get_num_starts
                0x000431d8                alt_get_performance_counter_base
                0x000431f8                alt_get_cpu_freq
 .text          0x0004321c     0x5444 ../RedeFFTHW_bsp\libucosii_bsp.a(altera_avalon_tse.o)
                0x0004321c                no_printf
                0x00043248                tse_mac_initTransInfo2
                0x000432a8                tse_mac_sTxWrite
                0x00043398                tse_mac_aRxRead
                0x0004343c                tse_mac_SwReset
                0x000434d0                tse_mac_setMIImode
                0x00043528                tse_mac_setGMIImode
                0x0004357c                alt_tse_phy_add_profile
                0x00043754                alt_tse_system_add_sys
                0x00044224                alt_tse_sys_enable_mdio_sharing
                0x000443bc                alt_tse_mac_get_common_speed
                0x000443fc                alt_tse_mac_set_common_speed
                0x00044444                alt_tse_get_system_index
                0x000444cc                alt_tse_get_mac_group_index
                0x0004454c                alt_tse_get_mac_info_index
                0x000445d8                alt_tse_get_mac_info
                0x000446b8                alt_tse_mac_set_speed
                0x000447a4                alt_tse_mac_set_duplex
                0x0004483c                getPHYSpeed
                0x00045654                alt_tse_phy_rd_mdio_addr
                0x0004569c                alt_tse_phy_wr_mdio_addr
                0x000456f0                alt_tse_phy_wr_mdio_reg
                0x00045818                alt_tse_phy_rd_mdio_reg
                0x000458dc                alt_tse_phy_add_profile_default
                0x00045b54                alt_tse_phy_print_profile
                0x00045d44                alt_tse_mac_group_init
                0x0004645c                alt_tse_mac_get_phy
                0x00046874                alt_tse_mac_associate_phy
                0x00046aac                alt_tse_phy_cfg_pcs
                0x00046bcc                alt_tse_phy_init
                0x00046ce0                alt_tse_phy_restart_an
                0x00046e90                alt_tse_phy_check_link
                0x00046fd4                alt_tse_phy_get_cap
                0x00047514                alt_tse_phy_set_adv_1000
                0x000476a8                alt_tse_phy_set_adv_100
                0x000478b8                alt_tse_phy_set_adv_10
                0x00047a50                alt_tse_phy_get_common_speed
                0x00047d6c                alt_tse_phy_set_common_speed
                0x00048250                marvell_phy_cfg
                0x000482f8                marvell_cfg_gmii
                0x000483ec                marvell_cfg_sgmii
                0x000484e0                marvell_cfg_rgmii
                0x000485e0                DP83848C_link_status_read
 .text          0x00048660        0x0 ../RedeFFTHW_bsp\libucosii_bsp.a(altera_avalon_tse_system_info.o)
 .text          0x00048660      0x3dc ../RedeFFTHW_bsp\libucosii_bsp.a(allports.o)
                0x00048660                netmain_init
                0x0004875c                icmp_port_du
                0x000487e4                station_state
                0x00048930                sysuptime
                0x00048974                packet_check
                0x000489c0                mcastlist
                0x000489e4                prep_modules
 .text          0x00048a3c      0x510 ../RedeFFTHW_bsp\libucosii_bsp.a(timeouts.o)
                0x00048a3c                inet_timer
                0x00048cd8                in_timerset
                0x00048e94                in_timerkill
 .text          0x00048f4c       0xa4 ../RedeFFTHW_bsp\libucosii_bsp.a(tk_misc.o)
                0x00048f4c                create_apptasks
                0x00048f70                task_stats
 .text          0x00048ff0       0xb0 ../RedeFFTHW_bsp\libucosii_bsp.a(alt_iniche_fcntl.o)
                0x00048ff0                fcntl
 .text          0x000490a0     0x14a0 ../RedeFFTHW_bsp\libucosii_bsp.a(et_arp.o)
                0x000490a0                etainit
                0x000490f4                et_send
                0x00049270                arp_free_pending
                0x000492f8                arp_send_pending
                0x0004936c                send_arp
                0x00049804                find_oldest_arp
                0x000499ac                make_arp_entry
                0x00049ac0                arpReply
                0x00049d54                arprcv
                0x00049fb4                send_via_arp
                0x0004a15c                cb_arpent_tmo
                0x0004a274                grat_arp
 .text          0x0004a540      0x298 ../RedeFFTHW_bsp\libucosii_bsp.a(iface.o)
                0x0004a540                if_getbynum
                0x0004a5c4                isbcast
                0x0004a6a4                reg_type
                0x0004a740                if_killsocks
 .text          0x0004a7d8     0x22c8 ../RedeFFTHW_bsp\libucosii_bsp.a(ip.o)
                0x0004a7d8                ip_init
                0x0004a8e8                ip_bldhead
                0x0004aa8c                ip_write_internal
                0x0004b20c                ip_write
                0x0004b454                ip_write2
                0x0004b804                ip_raw_write
                0x0004b8dc                ip_fragment_lc
                0x0004bd64                ip_fragment
                0x0004c398                ip_mymach
                0x0004c444                ip_dump
                0x0004c6fc                iproute
                0x0004c968                ip_copypkt
 .text          0x0004caa0     0x1d9c ../RedeFFTHW_bsp\libucosii_bsp.a(ip_reasm.o)
                0x0004caa0                ip_reasm_match_frag_with_ire
                0x0004cb70                ip_reasm_determine_type_of_frag
                0x0004cc5c                ip_reasm_check_mem_useage
                0x0004ccf4                ip_reasm_incr_mem_useage
                0x0004cd9c                ip_reasm_decr_mem_useage
                0x0004ce3c                ip_reasm_process_first_fragment
                0x0004d11c                ip_reassm
                0x0004d1bc                ip_reasm_compute_overlap
                0x0004d74c                ip_reasm_process_subsequent_fragments
                0x0004dce0                ip_reasm_find_ire
                0x0004dd44                ip_reasm_copy_queued_fragments_into_reassy_buffer
                0x0004e0a0                ip_reasm_process_timer_tick
                0x0004e184                ip_reasm_delete_ire
                0x0004e34c                ip_reasm_mark_compact_rfq
                0x0004e494                ipr_stats
                0x0004e7e8                ip_reasm_send_icmp_timex
 .text          0x0004e83c      0xe3c ../RedeFFTHW_bsp\libucosii_bsp.a(ipdemux.o)
                0x0004e83c                ip_rcv
                0x0004ec3c                ip_rcv_phase2
                0x0004f248                ip_demux
 .text          0x0004f678      0x2f0 ../RedeFFTHW_bsp\libucosii_bsp.a(ipmc.o)
                0x0004f678                in_addmulti
                0x0004f7e0                in_delmulti
                0x0004f8f8                lookup_mcast
 .text          0x0004f968       0xe4 ../RedeFFTHW_bsp\libucosii_bsp.a(ipport.o)
                0x0004f968                prep_ifaces
                0x0004f9fc                netexit
                0x0004fa24                evtmap_setup
 .text          0x0004fa4c      0x550 ../RedeFFTHW_bsp\libucosii_bsp.a(ipraw.o)
                0x0004fa4c                ip_raw_open
                0x0004fb3c                ip_raw_close
                0x0004fbfc                ip_raw_input
                0x0004fe34                ip_raw_alloc
                0x0004ff00                ip_raw_free
                0x0004ff40                ip_raw_maxalloc
 .text          0x0004ff9c      0x704 ../RedeFFTHW_bsp\libucosii_bsp.a(iproute.o)
                0x0004ff9c                rt_lookup
                0x0005012c                add_route
                0x00050558                del_route
 .text          0x000506a0      0xe3c ../RedeFFTHW_bsp\libucosii_bsp.a(udp.o)
                0x000506a0                udpdemux
                0x00050ef8                udp_send
                0x000511b0                udpswap
                0x000512e0                udp_socket
                0x000513b0                udp_alloc
                0x00051470                udp_maxalloc
                0x0005149c                udp_free
 .text          0x000514dc      0x2e8 ../RedeFFTHW_bsp\libucosii_bsp.a(igmp.o)
                0x000514dc                igmpv1_input
 .text          0x000517c4      0x7c0 ../RedeFFTHW_bsp\libucosii_bsp.a(igmp2.o)
                0x000517c4                igmpv2_input
                0x00051924                igmpv2_process_report
                0x00051a70                igmpv2_process_query
                0x00051cbc                igmpv2_chk_set_timer
                0x00051e14                igmpv2_chk4_rtr_alert_opt
 .text          0x00051f84      0x8fc ../RedeFFTHW_bsp\libucosii_bsp.a(ipopt.o)
                0x00051f84                IPADDR_TO_NETP
                0x000520cc                ip_setmoptions
                0x000526bc                ip_getmoptions
                0x000527fc                ip_freemoptions
 .text          0x00052880      0x6ac ../RedeFFTHW_bsp\libucosii_bsp.a(u_mctest.o)
                0x00052880                u_mctest_init
                0x000528b0                u_mctest_run
 .text          0x00052f2c      0x398 ../RedeFFTHW_bsp\libucosii_bsp.a(dhcsetup.o)
                0x00052f2c                dhc_setup
                0x000531c0                dhc_main_ipset
 .text          0x000532c4      0x41c ../RedeFFTHW_bsp\libucosii_bsp.a(memdev.o)
                0x000532c4                init_memdev
                0x0005333c                md_fopen
                0x00053364                md_fclose
                0x00053384                md_fread
                0x00053504                md_fwrite
                0x00053594                md_fseek
                0x000535c0                md_ftell
                0x000535e4                md_fgetc
                0x000536bc                md_unlink
 .text          0x000536e0      0x81c ../RedeFFTHW_bsp\libucosii_bsp.a(parseip.o)
                0x000536e0                parse_ipad
                0x000539fc                inet_addr
                0x00053a64                hextoa
                0x00053ad4                inet_pton
                0x00053b80                inet_ntop
                0x00053c0c                print46_addr
                0x00053c6c                inet46_addr
                0x00053d30                inet_setport
                0x00053da4                convert_ip
 .text          0x00053efc      0x1cc ../RedeFFTHW_bsp\libucosii_bsp.a(tcpcksum.o)
                0x00053efc                tcp_cksum
 .text          0x000540c8      0x900 ../RedeFFTHW_bsp\libucosii_bsp.a(in_pcb.o)
                0x000540c8                in_pcballoc
                0x0005415c                in_pcbdetach
                0x000541b0                in_pcbbind
                0x00054404                in_pcbconnect
                0x00054614                in_pcbdisconnect
                0x00054674                in_setsockaddr
                0x000546f0                in_setpeeraddr
                0x0005476c                in_pcblookup
 .text          0x000549c8     0x1a74 ../RedeFFTHW_bsp\libucosii_bsp.a(vfsfiles.o)
                0x000549c8                set_vfopen_error
                0x000549f0                get_vfopen_error
                0x00054a10                vf_alloc_and_link_vop
                0x00054a8c                vf_alloc_buffer
                0x00054b64                vf_free_buffer
                0x00054bb4                vfopen_locked
                0x00054f1c                vfopen
                0x00054f6c                vfclose_locked
                0x00055114                vfclose
                0x00055154                vfflush
                0x0005519c                vfgets
                0x00055280                vfeof
                0x000552d8                vunlink_flag_open_files
                0x00055334                vunlink
                0x00055554                vfread
                0x00055700                vfwrite_locked
                0x00055ae8                vfwrite
                0x00055b48                vfseek
                0x00055cc4                vftell
                0x00055df8                vgetc_locked
                0x00055f18                vgetc
                0x00055f60                vfslookup_locked
                0x00056098                vfslookup
                0x000560e0                strippath
                0x000562c8                isvfile_locked
                0x0005632c                isvfile
                0x00056374                vferror
                0x000563e0                vclearerr
 .text          0x0005643c       0x24 ../RedeFFTHW_bsp\libucosii_bsp.a(vfsport.o)
                0x0005643c                prep_vfs
 .text          0x00056460        0x0 ../RedeFFTHW_bsp\libucosii_bsp.a(alt_exception_entry.o)
 .text          0x00056460      0x1b8 ../RedeFFTHW_bsp\libucosii_bsp.a(alt_fcntl.o)
                0x00056460                alt_fcntl
 .text          0x00056618      0x120 ../RedeFFTHW_bsp\libucosii_bsp.a(alt_find_file.o)
                0x00056618                alt_find_file
 .text          0x00056738      0x104 ../RedeFFTHW_bsp\libucosii_bsp.a(alt_get_fd.o)
                0x00056738                alt_get_fd
 .text          0x0005683c     0x130c ../RedeFFTHW_bsp\libucosii_bsp.a(icmp.o)
                0x0005683c                icmprcv
                0x00057470                icmp_destun
                0x000577c0                icmp_timex
                0x00057af4                icmp_du
 .text          0x00057b48       0x14 c:/altera/10.1sp1/nios2eds/bin/gnu/h-i686-mingw32/bin/../lib/gcc/nios2-elf/4.1.2/../../../../nios2-elf/lib/mno-hw-mul\libc.a(lib_a-atexit.o)
                0x00057b48                atexit
 .text          0x00057b5c       0x18 c:/altera/10.1sp1/nios2eds/bin/gnu/h-i686-mingw32/bin/../lib/gcc/nios2-elf/4.1.2/../../../../nios2-elf/lib/mno-hw-mul\libc.a(lib_a-atoi.o)
                0x00057b5c                _atoi_r
                0x00057b68                atoi
 .text          0x00057b74       0x1c c:/altera/10.1sp1/nios2eds/bin/gnu/h-i686-mingw32/bin/../lib/gcc/nios2-elf/4.1.2/../../../../nios2-elf/lib/mno-hw-mul\libc.a(lib_a-calloc.o)
                0x00057b74                calloc
 .text          0x00057b90       0x38 c:/altera/10.1sp1/nios2eds/bin/gnu/h-i686-mingw32/bin/../lib/gcc/nios2-elf/4.1.2/../../../../nios2-elf/lib/mno-hw-mul\libc.a(lib_a-exit.o)
                0x00057b90                exit
 .text          0x00057bc8       0x74 c:/altera/10.1sp1/nios2eds/bin/gnu/h-i686-mingw32/bin/../lib/gcc/nios2-elf/4.1.2/../../../../nios2-elf/lib/mno-hw-mul\libc.a(lib_a-memcmp.o)
                0x00057bc8                memcmp
 .text          0x00057c3c       0xe0 c:/altera/10.1sp1/nios2eds/bin/gnu/h-i686-mingw32/bin/../lib/gcc/nios2-elf/4.1.2/../../../../nios2-elf/lib/mno-hw-mul\libc.a(lib_a-strchr.o)
                0x00057c3c                strchr
 .text          0x00057d1c       0xf0 c:/altera/10.1sp1/nios2eds/bin/gnu/h-i686-mingw32/bin/../lib/gcc/nios2-elf/4.1.2/../../../../nios2-elf/lib/mno-hw-mul\libc.a(lib_a-strncmp.o)
                0x00057d1c                strncmp
 .text          0x00057e0c       0xbc c:/altera/10.1sp1/nios2eds/bin/gnu/h-i686-mingw32/bin/../lib/gcc/nios2-elf/4.1.2/../../../../nios2-elf/lib/mno-hw-mul\libc.a(lib_a-strncpy.o)
                0x00057e0c                strncpy
 .text          0x00057ec8      0x274 c:/altera/10.1sp1/nios2eds/bin/gnu/h-i686-mingw32/bin/../lib/gcc/nios2-elf/4.1.2/../../../../nios2-elf/lib/mno-hw-mul\libc.a(lib_a-strtol.o)
                0x00057ec8                _strtol_r
                0x00058118                strtol
 .text          0x0005813c       0x34 c:/altera/10.1sp1/nios2eds/bin/gnu/h-i686-mingw32/bin/../lib/gcc/nios2-elf/4.1.2/../../../../nios2-elf/lib/mno-hw-mul\libc.a(lib_a-vprintf.o)
                0x0005813c                _vprintf_r
                0x00058150                vprintf
 .text          0x00058170       0x74 c:/altera/10.1sp1/nios2eds/bin/gnu/h-i686-mingw32/bin/../lib/gcc/nios2-elf/4.1.2/../../../../nios2-elf/lib/mno-hw-mul\libc.a(lib_a-vsprintf.o)
                0x00058170                _vsprintf_r
                0x000581c0                vsprintf
 .text          0x000581e4      0x134 c:/altera/10.1sp1/nios2eds/bin/gnu/h-i686-mingw32/bin/../lib/gcc/nios2-elf/4.1.2/../../../../nios2-elf/lib/mno-hw-mul\libc.a(lib_a-__atexit.o)
                0x000581e4                __register_exitproc
 .text          0x00058318      0x1b4 c:/altera/10.1sp1/nios2eds/bin/gnu/h-i686-mingw32/bin/../lib/gcc/nios2-elf/4.1.2/../../../../nios2-elf/lib/mno-hw-mul\libc.a(lib_a-__call_atexit.o)
                0x0005831c                __call_exitprocs
 .text          0x000584cc       0x88 c:/altera/10.1sp1/nios2eds/bin/gnu/h-i686-mingw32/bin/../lib/gcc/nios2-elf/4.1.2/mno-hw-mul\libgcc.a(_floatundidf.o)
                0x000584cc                __floatundidf
 .text          0x00058554       0x6c ../RedeFFTHW_bsp\libucosii_bsp.a(alt_exit.o)
                0x00058594                _exit
 *(.gnu.warning.*)
 *(.fini)
                0x000585c0                PROVIDE (__etext, ABSOLUTE (.))
                0x000585c0                PROVIDE (_etext, ABSOLUTE (.))
                0x000585c0                PROVIDE (etext, ABSOLUTE (.))
 *(.eh_frame_hdr)
                0x000585c0                . = ALIGN (0x4)
                0x000585c0                PROVIDE (__preinit_array_start, ABSOLUTE (.))
 *(.preinit_array)
                0x000585c0                PROVIDE (__preinit_array_end, ABSOLUTE (.))
                0x000585c0                PROVIDE (__init_array_start, ABSOLUTE (.))
 *(.init_array)
                0x000585c0                PROVIDE (__init_array_end, ABSOLUTE (.))
                0x000585c0                PROVIDE (__fini_array_start, ABSOLUTE (.))
 *(.fini_array)
                0x000585c0                PROVIDE (__fini_array_end, ABSOLUTE (.))
 *(.eh_frame)
 .eh_frame      0x000585c0       0x40 c:/altera/10.1sp1/nios2eds/bin/gnu/h-i686-mingw32/bin/../lib/gcc/nios2-elf/4.1.2/mno-hw-mul\libgcc.a(_udivdi3.o)
 .eh_frame      0x00058600       0x2c c:/altera/10.1sp1/nios2eds/bin/gnu/h-i686-mingw32/bin/../lib/gcc/nios2-elf/4.1.2/mno-hw-mul\libgcc.a(_umoddi3.o)
                                 0x40 (size before relaxing)
 *(.gcc_except_table)
 *(.dynamic)
                0x0005862c                PROVIDE (__CTOR_LIST__, ABSOLUTE (.))
 *(.ctors)
 *(SORT(.ctors.*))
 .ctors.65535   0x0005862c        0x4 c:/altera/10.1sp1/nios2eds/bin/gnu/h-i686-mingw32/bin/../lib/gcc/nios2-elf/4.1.2/../../../../nios2-elf/lib/mno-hw-mul\libc.a(lib_a-__call_atexit.o)
                0x00058630                PROVIDE (__CTOR_END__, ABSOLUTE (.))
                0x00058630                PROVIDE (__DTOR_LIST__, ABSOLUTE (.))
 *(.dtors)
 *(SORT(.dtors.*))
                0x00058630                PROVIDE (__DTOR_END__, ABSOLUTE (.))
 *(.jcr)
                0x00058630                . = ALIGN (0x4)

.rodata         0x00058630    0x1fdf4
                0x00058630                PROVIDE (__ram_rodata_start, ABSOLUTE (.))
                0x00058630                . = ALIGN (0x4)
 *(.rodata .rodata.* .gnu.linkonce.r.*)
 .rodata        0x00058630      0x148 obj/AquisicaoRede.o
 .rodata        0x00058778       0xf8 obj/DanWindow/DanWindow.o
 .rodata        0x00058870       0xe4 obj/FFT/simpleDFT.o
 .rodata        0x00058954    0x19194 obj/LCDTask.o
                0x00058954                logo
 .rodata        0x00071ae8      0xba4 obj/alt_error_handler.o
 .rodata        0x0007268c      0x108 obj/alt_tpo_lcd/alt_tpo_lcd.o
 .rodata        0x00072794       0x14 obj/fixedpoint2_16.o
 .rodata        0x000727a8       0x6c obj/iniche_init.o
 .rodata        0x00072814      0x220 obj/network_utilities.o
 .rodata        0x00072a34      0x7c0 obj/simple_socket_server.o
 .rodata.str1.4
                0x000731f4        0x5 c:/altera/10.1sp1/nios2eds/bin/gnu/h-i686-mingw32/bin/../lib/gcc/nios2-elf/4.1.2/../../../../nios2-elf/lib/mno-hw-mul\libm.a(lib_a-w_sqrt.o)
                                  0x8 (size before relaxing)
 *fill*         0x000731f9        0x3 00
 .rodata.str1.4
                0x000731fc        0x6 c:/altera/10.1sp1/nios2eds/bin/gnu/h-i686-mingw32/bin/../lib/gcc/nios2-elf/4.1.2/../../../../nios2-elf/lib/mno-hw-mul\libm.a(lib_a-wf_sqrt.o)
                                  0x8 (size before relaxing)
 *fill*         0x00073202        0x2 00
 .rodata        0x00073204      0x188 c:/altera/10.1sp1/nios2eds/bin/gnu/h-i686-mingw32/bin/../lib/gcc/nios2-elf/4.1.2/../../../../nios2-elf/lib/mno-hw-mul\libm.a(lib_a-e_rem_pio2.o)
 .rodata        0x0007338c       0x50 c:/altera/10.1sp1/nios2eds/bin/gnu/h-i686-mingw32/bin/../lib/gcc/nios2-elf/4.1.2/../../../../nios2-elf/lib/mno-hw-mul\libm.a(lib_a-k_rem_pio2.o)
 .rodata        0x000733dc       0x10 c:/altera/10.1sp1/nios2eds/bin/gnu/h-i686-mingw32/bin/../lib/gcc/nios2-elf/4.1.2/mno-hw-mul\libgcc.a(_thenan_sf.o)
                0x000733dc                __thenan_sf
 .rodata        0x000733ec       0x14 c:/altera/10.1sp1/nios2eds/bin/gnu/h-i686-mingw32/bin/../lib/gcc/nios2-elf/4.1.2/mno-hw-mul\libgcc.a(_thenan_df.o)
                0x000733ec                __thenan_df
 .rodata        0x00073400      0x100 c:/altera/10.1sp1/nios2eds/bin/gnu/h-i686-mingw32/bin/../lib/gcc/nios2-elf/4.1.2/mno-hw-mul\libgcc.a(_clz.o)
                0x00073400                __clz_tab
 .rodata        0x00073500      0x281 c:/altera/10.1sp1/nios2eds/bin/gnu/h-i686-mingw32/bin/../lib/gcc/nios2-elf/4.1.2/../../../../nios2-elf/lib/mno-hw-mul\libc.a(lib_a-ctype_.o)
                0x00073500                _ctype_
 *fill*         0x00073781        0x3 00
 .rodata.str1.4
                0x00073784        0x2 c:/altera/10.1sp1/nios2eds/bin/gnu/h-i686-mingw32/bin/../lib/gcc/nios2-elf/4.1.2/../../../../nios2-elf/lib/mno-hw-mul\libc.a(lib_a-impure.o)
                                  0x4 (size before relaxing)
 *fill*         0x00073786        0x2 00
 .rodata.str1.4
                0x00073788        0x3 c:/altera/10.1sp1/nios2eds/bin/gnu/h-i686-mingw32/bin/../lib/gcc/nios2-elf/4.1.2/../../../../nios2-elf/lib/mno-hw-mul\libc.a(lib_a-perror.o)
                                  0x4 (size before relaxing)
 *fill*         0x0007378b        0x1 00
 .rodata.str1.4
                0x0007378c        0x2 c:/altera/10.1sp1/nios2eds/bin/gnu/h-i686-mingw32/bin/../lib/gcc/nios2-elf/4.1.2/../../../../nios2-elf/lib/mno-hw-mul\libc.a(lib_a-puts.o)
                                  0x4 (size before relaxing)
 *fill*         0x0007378e        0x2 00
 .rodata.str1.4
                0x00073790      0x7a2 c:/altera/10.1sp1/nios2eds/bin/gnu/h-i686-mingw32/bin/../lib/gcc/nios2-elf/4.1.2/../../../../nios2-elf/lib/mno-hw-mul\libc.a(lib_a-strerror.o)
                                0x7a8 (size before relaxing)
 *fill*         0x00073f32        0x2 00
 .rodata.str1.4
                0x00073f34       0x5e c:/altera/10.1sp1/nios2eds/bin/gnu/h-i686-mingw32/bin/../lib/gcc/nios2-elf/4.1.2/../../../../nios2-elf/lib/mno-hw-mul\libc.a(lib_a-vfprintf.o)
                                 0x60 (size before relaxing)
 .rodata        0x00073f92       0x20 c:/altera/10.1sp1/nios2eds/bin/gnu/h-i686-mingw32/bin/../lib/gcc/nios2-elf/4.1.2/../../../../nios2-elf/lib/mno-hw-mul\libc.a(lib_a-vfprintf.o)
 *fill*         0x00073fb2        0x2 00
 .rodata.str1.4
                0x00073fb4       0x10 c:/altera/10.1sp1/nios2eds/bin/gnu/h-i686-mingw32/bin/../lib/gcc/nios2-elf/4.1.2/../../../../nios2-elf/lib/mno-hw-mul\libc.a(lib_a-dtoa.o)
                                 0x14 (size before relaxing)
 .rodata.str1.4
                0x00073fc4       0x10 c:/altera/10.1sp1/nios2eds/bin/gnu/h-i686-mingw32/bin/../lib/gcc/nios2-elf/4.1.2/../../../../nios2-elf/lib/mno-hw-mul\libc.a(lib_a-locale.o)
                                 0x18 (size before relaxing)
 .rodata        0x00073fd4       0x30 c:/altera/10.1sp1/nios2eds/bin/gnu/h-i686-mingw32/bin/../lib/gcc/nios2-elf/4.1.2/../../../../nios2-elf/lib/mno-hw-mul\libc.a(lib_a-locale.o)
 .rodata        0x00074004      0x124 c:/altera/10.1sp1/nios2eds/bin/gnu/h-i686-mingw32/bin/../lib/gcc/nios2-elf/4.1.2/../../../../nios2-elf/lib/mno-hw-mul\libc.a(lib_a-mprec.o)
                0x00074004                __mprec_tens
                0x000740cc                __mprec_bigtens
                0x000740f4                __mprec_tinytens
 .rodata        0x00074128       0x10 ../RedeFFTHW_bsp\libucosii_bsp.a(alt_main.o)
 .rodata        0x00074138      0x120 ../RedeFFTHW_bsp\libucosii_bsp.a(os_core.o)
                0x00074138                OSUnMapTbl
 .rodata        0x00074258       0x50 ../RedeFFTHW_bsp\libucosii_bsp.a(alt_sys_init.o)
 .rodata        0x000742a8      0x374 ../RedeFFTHW_bsp\libucosii_bsp.a(ins_tse_mac.o)
 .rodata        0x0007461c      0x100 ../RedeFFTHW_bsp\libucosii_bsp.a(perf_print_formatted_report.o)
 .rodata        0x0007471c       0xd8 ../RedeFFTHW_bsp\libucosii_bsp.a(ipnet.o)
 .rodata        0x000747f4       0xec ../RedeFFTHW_bsp\libucosii_bsp.a(ipstart.o)
 .rodata        0x000748e0      0x54c ../RedeFFTHW_bsp\libucosii_bsp.a(igmp_cmn.o)
 .rodata        0x00074e2c       0xb8 ../RedeFFTHW_bsp\libucosii_bsp.a(in_utils.o)
 .rodata        0x00074ee4       0x34 ../RedeFFTHW_bsp\libucosii_bsp.a(netmain.o)
 .rodata        0x00074f18      0x1a8 ../RedeFFTHW_bsp\libucosii_bsp.a(tk_crnos.o)
 .rodata        0x000750c0        0x8 ../RedeFFTHW_bsp\libucosii_bsp.a(dhcpclnt.o)
 .rodata        0x000750c8      0x118 ../RedeFFTHW_bsp\libucosii_bsp.a(pktalloc.o)
 .rodata        0x000751e0       0x84 ../RedeFFTHW_bsp\libucosii_bsp.a(udp_open.o)
 .rodata        0x00075264       0x2c ../RedeFFTHW_bsp\libucosii_bsp.a(brdutils.o)
 .rodata        0x00075290      0x26c ../RedeFFTHW_bsp\libucosii_bsp.a(osportco.o)
 .rodata        0x000754fc       0xa0 ../RedeFFTHW_bsp\libucosii_bsp.a(targnios.o)
 .rodata        0x0007559c       0x90 ../RedeFFTHW_bsp\libucosii_bsp.a(nptcp.o)
 .rodata        0x0007562c        0x8 ../RedeFFTHW_bsp\libucosii_bsp.a(sockcall.o)
 .rodata        0x00075634       0x50 ../RedeFFTHW_bsp\libucosii_bsp.a(socket.o)
 .rodata        0x00075684       0x40 ../RedeFFTHW_bsp\libucosii_bsp.a(socket2.o)
 .rodata        0x000756c4       0x20 ../RedeFFTHW_bsp\libucosii_bsp.a(tcp_in.o)
 .rodata        0x000756e4       0x40 ../RedeFFTHW_bsp\libucosii_bsp.a(tcp_out.o)
 .rodata        0x00075724       0x24 ../RedeFFTHW_bsp\libucosii_bsp.a(tcp_subr.o)
 .rodata        0x00075748       0x2c ../RedeFFTHW_bsp\libucosii_bsp.a(tcp_usr.o)
 .rodata        0x00075774        0xc ../RedeFFTHW_bsp\libucosii_bsp.a(alt_dev.o)
 .rodata        0x00075780        0x4 ../RedeFFTHW_bsp\libucosii_bsp.a(os_cpu_c.o)
 .rodata        0x00075784     0x1cc0 ../RedeFFTHW_bsp\libucosii_bsp.a(altera_avalon_tse.o)
 .rodata        0x00077444       0x20 ../RedeFFTHW_bsp\libucosii_bsp.a(altera_avalon_tse_system_info.o)
 .rodata        0x00077464      0x1d4 ../RedeFFTHW_bsp\libucosii_bsp.a(allports.o)
 .rodata        0x00077638       0x34 ../RedeFFTHW_bsp\libucosii_bsp.a(tk_misc.o)
 .rodata        0x0007766c       0x44 ../RedeFFTHW_bsp\libucosii_bsp.a(et_arp.o)
 .rodata        0x000776b0      0x1dc ../RedeFFTHW_bsp\libucosii_bsp.a(ip.o)
 .rodata        0x0007788c      0x158 ../RedeFFTHW_bsp\libucosii_bsp.a(ip_reasm.o)
 .rodata        0x000779e4      0x120 ../RedeFFTHW_bsp\libucosii_bsp.a(ipdemux.o)
 .rodata        0x00077b04       0x34 ../RedeFFTHW_bsp\libucosii_bsp.a(ipport.o)
 .rodata        0x00077b38       0x24 ../RedeFFTHW_bsp\libucosii_bsp.a(ipraw.o)
 .rodata        0x00077b5c       0x38 ../RedeFFTHW_bsp\libucosii_bsp.a(iproute.o)
 .rodata        0x00077b94       0xe8 ../RedeFFTHW_bsp\libucosii_bsp.a(udp.o)
 .rodata        0x00077c7c      0x2d0 ../RedeFFTHW_bsp\libucosii_bsp.a(u_mctest.o)
 .rodata        0x00077f4c       0xf8 ../RedeFFTHW_bsp\libucosii_bsp.a(dhcsetup.o)
 .rodata        0x00078044       0x94 ../RedeFFTHW_bsp\libucosii_bsp.a(parseip.o)
 .rodata        0x000780d8       0x34 ../RedeFFTHW_bsp\libucosii_bsp.a(vfsfiles.o)
 .rodata        0x0007810c      0x318 ../RedeFFTHW_bsp\libucosii_bsp.a(icmp.o)
 *(.rodata1)
                0x00078424                . = ALIGN (0x4)
                0x00078424                PROVIDE (__ram_rodata_end, ABSOLUTE (.))
                0x00058630                PROVIDE (__flash_rodata_start, LOADADDR (.rodata))

.rwdata         0x00078424     0x2e60 load address 0x0007b284
                0x00078424                PROVIDE (__ram_rwdata_start, ABSOLUTE (.))
                0x00078424                . = ALIGN (0x4)
 *(.got.plt)
 *(.got)
 *(.data1)
 *(.data .data.* .gnu.linkonce.d.*)
 .data          0x00078424        0x0 ../RedeFFTHW_bsp/obj/HAL/src/crt0.o
 .data          0x00078424      0x12c obj/AquisicaoRede.o
                0x00078424                btnF1_Caption
                0x00078438                btnF2_Caption
                0x0007844c                btnF3_Caption
                0x00078460                btnF4_Caption
                0x00078474                grpTempo_Title
                0x00078488                grpFrequencia_Title
                0x0007849c                lblAquisicaoTitulo_Caption
                0x00078500                lblStatus_Caption
                0x00078514                lblIP_Caption
                0x00078528                lblPorta_Caption
                0x0007853c                lblConex_Caption
 .data          0x00078550        0x0 obj/DanWindow/DanWindow.o
 .data          0x00078550      0x808 obj/FFT/simpleDFT.o
                0x00078550                cos_table
                0x00078954                sin_table
 .data          0x00078d58       0xc4 obj/LCDTask.o
                0x00078d58                lblHora_Caption
                0x00078d64                lblMessage_Caption
                0x00078d8c                lblMessageTitle_Caption
                0x00078d9c                lblMenuItem0_Caption
                0x00078dbc                lblMenuItem1_Caption
                0x00078ddc                lblMenuItem2_Caption
                0x00078dfc                lblMenuItem3_Caption
 .data          0x00078e1c       0xb4 obj/TerminalSerial.o
                0x00078e1c                lblLinha1TermSerial_Caption
                0x00078e6c                lblTerminalSerialTitulo_Caption
 .data          0x00078ed0        0x0 obj/alt_error_handler.o
 .data          0x00078ed0        0x0 obj/alt_touchscreen/alt_touchscreen.o
 .data          0x00078ed0        0x0 obj/alt_tpo_lcd/alt_tpo_lcd.o
 .data          0x00078ed0        0x0 obj/alt_video_display/alt_video_display.o
 .data          0x00078ed0        0x0 obj/fixedpoint2_16.o
 .data          0x00078ed0      0x415 obj/graphics_lib/simple_graphics.o
                0x00078ed0                cour10_font_array
 *fill*         0x000792e5        0x3 00
 .data          0x000792e8       0x18 obj/iniche_init.o
                0x000792e8                ssstask
 .data          0x00079300        0x0 obj/network_utilities.o
 .data          0x00079300        0x0 obj/simple_socket_server.o
 .data          0x00079300        0x0 c:/altera/10.1sp1/nios2eds/bin/gnu/h-i686-mingw32/bin/../lib/gcc/nios2-elf/4.1.2/../../../../nios2-elf/lib/mno-hw-mul\libm.a(lib_a-s_cos.o)
 .data          0x00079300        0x0 c:/altera/10.1sp1/nios2eds/bin/gnu/h-i686-mingw32/bin/../lib/gcc/nios2-elf/4.1.2/../../../../nios2-elf/lib/mno-hw-mul\libm.a(lib_a-s_sin.o)
 .data          0x00079300        0x0 c:/altera/10.1sp1/nios2eds/bin/gnu/h-i686-mingw32/bin/../lib/gcc/nios2-elf/4.1.2/../../../../nios2-elf/lib/mno-hw-mul\libm.a(lib_a-w_sqrt.o)
 .data          0x00079300        0x0 c:/altera/10.1sp1/nios2eds/bin/gnu/h-i686-mingw32/bin/../lib/gcc/nios2-elf/4.1.2/../../../../nios2-elf/lib/mno-hw-mul\libm.a(lib_a-wf_sqrt.o)
 .data          0x00079300        0x0 c:/altera/10.1sp1/nios2eds/bin/gnu/h-i686-mingw32/bin/../lib/gcc/nios2-elf/4.1.2/../../../../nios2-elf/lib/mno-hw-mul\libm.a(lib_a-e_rem_pio2.o)
 .data          0x00079300        0x0 c:/altera/10.1sp1/nios2eds/bin/gnu/h-i686-mingw32/bin/../lib/gcc/nios2-elf/4.1.2/../../../../nios2-elf/lib/mno-hw-mul\libm.a(lib_a-e_sqrt.o)
 .data          0x00079300        0x0 c:/altera/10.1sp1/nios2eds/bin/gnu/h-i686-mingw32/bin/../lib/gcc/nios2-elf/4.1.2/../../../../nios2-elf/lib/mno-hw-mul\libm.a(lib_a-ef_sqrt.o)
 .data          0x00079300        0x0 c:/altera/10.1sp1/nios2eds/bin/gnu/h-i686-mingw32/bin/../lib/gcc/nios2-elf/4.1.2/../../../../nios2-elf/lib/mno-hw-mul\libm.a(lib_a-k_cos.o)
 .data          0x00079300        0x0 c:/altera/10.1sp1/nios2eds/bin/gnu/h-i686-mingw32/bin/../lib/gcc/nios2-elf/4.1.2/../../../../nios2-elf/lib/mno-hw-mul\libm.a(lib_a-k_rem_pio2.o)
 .data          0x00079300        0x0 c:/altera/10.1sp1/nios2eds/bin/gnu/h-i686-mingw32/bin/../lib/gcc/nios2-elf/4.1.2/../../../../nios2-elf/lib/mno-hw-mul\libm.a(lib_a-k_sin.o)
 .data          0x00079300        0x0 c:/altera/10.1sp1/nios2eds/bin/gnu/h-i686-mingw32/bin/../lib/gcc/nios2-elf/4.1.2/../../../../nios2-elf/lib/mno-hw-mul\libm.a(lib_a-s_fabs.o)
 .data          0x00079300        0x0 c:/altera/10.1sp1/nios2eds/bin/gnu/h-i686-mingw32/bin/../lib/gcc/nios2-elf/4.1.2/../../../../nios2-elf/lib/mno-hw-mul\libm.a(lib_a-s_floor.o)
 .data          0x00079300        0x0 c:/altera/10.1sp1/nios2eds/bin/gnu/h-i686-mingw32/bin/../lib/gcc/nios2-elf/4.1.2/../../../../nios2-elf/lib/mno-hw-mul\libm.a(lib_a-s_isnand.o)
 .data          0x00079300        0x0 c:/altera/10.1sp1/nios2eds/bin/gnu/h-i686-mingw32/bin/../lib/gcc/nios2-elf/4.1.2/../../../../nios2-elf/lib/mno-hw-mul\libm.a(lib_a-s_lib_ver.o)
 .data          0x00079300        0x0 c:/altera/10.1sp1/nios2eds/bin/gnu/h-i686-mingw32/bin/../lib/gcc/nios2-elf/4.1.2/../../../../nios2-elf/lib/mno-hw-mul\libm.a(lib_a-s_matherr.o)
 .data          0x00079300        0x0 c:/altera/10.1sp1/nios2eds/bin/gnu/h-i686-mingw32/bin/../lib/gcc/nios2-elf/4.1.2/../../../../nios2-elf/lib/mno-hw-mul\libm.a(lib_a-s_scalbn.o)
 .data          0x00079300        0x0 c:/altera/10.1sp1/nios2eds/bin/gnu/h-i686-mingw32/bin/../lib/gcc/nios2-elf/4.1.2/../../../../nios2-elf/lib/mno-hw-mul\libm.a(lib_a-sf_isnan.o)
 .data          0x00079300        0x0 c:/altera/10.1sp1/nios2eds/bin/gnu/h-i686-mingw32/bin/../lib/gcc/nios2-elf/4.1.2/../../../../nios2-elf/lib/mno-hw-mul\libm.a(lib_a-s_copysign.o)
 .data          0x00079300        0x0 c:/altera/10.1sp1/nios2eds/bin/gnu/h-i686-mingw32/bin/../lib/gcc/nios2-elf/4.1.2/mno-hw-mul\libgcc.a(_muldi3.o)
 .data          0x00079300        0x0 c:/altera/10.1sp1/nios2eds/bin/gnu/h-i686-mingw32/bin/../lib/gcc/nios2-elf/4.1.2/mno-hw-mul\libgcc.a(_addsub_sf.o)
 .data          0x00079300        0x0 c:/altera/10.1sp1/nios2eds/bin/gnu/h-i686-mingw32/bin/../lib/gcc/nios2-elf/4.1.2/mno-hw-mul\libgcc.a(_mul_sf.o)
 .data          0x00079300        0x0 c:/altera/10.1sp1/nios2eds/bin/gnu/h-i686-mingw32/bin/../lib/gcc/nios2-elf/4.1.2/mno-hw-mul\libgcc.a(_div_sf.o)
 .data          0x00079300        0x0 c:/altera/10.1sp1/nios2eds/bin/gnu/h-i686-mingw32/bin/../lib/gcc/nios2-elf/4.1.2/mno-hw-mul\libgcc.a(_ge_sf.o)
 .data          0x00079300        0x0 c:/altera/10.1sp1/nios2eds/bin/gnu/h-i686-mingw32/bin/../lib/gcc/nios2-elf/4.1.2/mno-hw-mul\libgcc.a(_lt_sf.o)
 .data          0x00079300        0x0 c:/altera/10.1sp1/nios2eds/bin/gnu/h-i686-mingw32/bin/../lib/gcc/nios2-elf/4.1.2/mno-hw-mul\libgcc.a(_si_to_sf.o)
 .data          0x00079300        0x0 c:/altera/10.1sp1/nios2eds/bin/gnu/h-i686-mingw32/bin/../lib/gcc/nios2-elf/4.1.2/mno-hw-mul\libgcc.a(_sf_to_si.o)
 .data          0x00079300        0x0 c:/altera/10.1sp1/nios2eds/bin/gnu/h-i686-mingw32/bin/../lib/gcc/nios2-elf/4.1.2/mno-hw-mul\libgcc.a(_sf_to_df.o)
 .data          0x00079300        0x0 c:/altera/10.1sp1/nios2eds/bin/gnu/h-i686-mingw32/bin/../lib/gcc/nios2-elf/4.1.2/mno-hw-mul\libgcc.a(_thenan_sf.o)
 .data          0x00079300        0x0 c:/altera/10.1sp1/nios2eds/bin/gnu/h-i686-mingw32/bin/../lib/gcc/nios2-elf/4.1.2/mno-hw-mul\libgcc.a(_addsub_df.o)
 .data          0x00079300        0x0 c:/altera/10.1sp1/nios2eds/bin/gnu/h-i686-mingw32/bin/../lib/gcc/nios2-elf/4.1.2/mno-hw-mul\libgcc.a(_mul_df.o)
 .data          0x00079300        0x0 c:/altera/10.1sp1/nios2eds/bin/gnu/h-i686-mingw32/bin/../lib/gcc/nios2-elf/4.1.2/mno-hw-mul\libgcc.a(_div_df.o)
 .data          0x00079300        0x0 c:/altera/10.1sp1/nios2eds/bin/gnu/h-i686-mingw32/bin/../lib/gcc/nios2-elf/4.1.2/mno-hw-mul\libgcc.a(_eq_df.o)
 .data          0x00079300        0x0 c:/altera/10.1sp1/nios2eds/bin/gnu/h-i686-mingw32/bin/../lib/gcc/nios2-elf/4.1.2/mno-hw-mul\libgcc.a(_gt_df.o)
 .data          0x00079300        0x0 c:/altera/10.1sp1/nios2eds/bin/gnu/h-i686-mingw32/bin/../lib/gcc/nios2-elf/4.1.2/mno-hw-mul\libgcc.a(_ge_df.o)
 .data          0x00079300        0x0 c:/altera/10.1sp1/nios2eds/bin/gnu/h-i686-mingw32/bin/../lib/gcc/nios2-elf/4.1.2/mno-hw-mul\libgcc.a(_lt_df.o)
 .data          0x00079300        0x0 c:/altera/10.1sp1/nios2eds/bin/gnu/h-i686-mingw32/bin/../lib/gcc/nios2-elf/4.1.2/mno-hw-mul\libgcc.a(_si_to_df.o)
 .data          0x00079300        0x0 c:/altera/10.1sp1/nios2eds/bin/gnu/h-i686-mingw32/bin/../lib/gcc/nios2-elf/4.1.2/mno-hw-mul\libgcc.a(_df_to_si.o)
 .data          0x00079300        0x0 c:/altera/10.1sp1/nios2eds/bin/gnu/h-i686-mingw32/bin/../lib/gcc/nios2-elf/4.1.2/mno-hw-mul\libgcc.a(_make_df.o)
 .data          0x00079300        0x0 c:/altera/10.1sp1/nios2eds/bin/gnu/h-i686-mingw32/bin/../lib/gcc/nios2-elf/4.1.2/mno-hw-mul\libgcc.a(_df_to_sf.o)
 .data          0x00079300        0x0 c:/altera/10.1sp1/nios2eds/bin/gnu/h-i686-mingw32/bin/../lib/gcc/nios2-elf/4.1.2/mno-hw-mul\libgcc.a(_thenan_df.o)
 .data          0x00079300        0x0 c:/altera/10.1sp1/nios2eds/bin/gnu/h-i686-mingw32/bin/../lib/gcc/nios2-elf/4.1.2/mno-hw-mul\libgcc.a(_usi_to_df.o)
 .data          0x00079300        0x0 c:/altera/10.1sp1/nios2eds/bin/gnu/h-i686-mingw32/bin/../lib/gcc/nios2-elf/4.1.2/mno-hw-mul\libgcc.a(lib2-divmod.o)
 .data          0x00079300        0x0 c:/altera/10.1sp1/nios2eds/bin/gnu/h-i686-mingw32/bin/../lib/gcc/nios2-elf/4.1.2/mno-hw-mul\libgcc.a(lib2-mul.o)
 .data          0x00079300        0x0 c:/altera/10.1sp1/nios2eds/bin/gnu/h-i686-mingw32/bin/../lib/gcc/nios2-elf/4.1.2/mno-hw-mul\libgcc.a(_clzsi2.o)
 .data          0x00079300        0x0 c:/altera/10.1sp1/nios2eds/bin/gnu/h-i686-mingw32/bin/../lib/gcc/nios2-elf/4.1.2/mno-hw-mul\libgcc.a(_pack_sf.o)
 .data          0x00079300        0x0 c:/altera/10.1sp1/nios2eds/bin/gnu/h-i686-mingw32/bin/../lib/gcc/nios2-elf/4.1.2/mno-hw-mul\libgcc.a(_unpack_sf.o)
 .data          0x00079300        0x0 c:/altera/10.1sp1/nios2eds/bin/gnu/h-i686-mingw32/bin/../lib/gcc/nios2-elf/4.1.2/mno-hw-mul\libgcc.a(_fpcmp_parts_sf.o)
 .data          0x00079300        0x0 c:/altera/10.1sp1/nios2eds/bin/gnu/h-i686-mingw32/bin/../lib/gcc/nios2-elf/4.1.2/mno-hw-mul\libgcc.a(_make_sf.o)
 .data          0x00079300        0x0 c:/altera/10.1sp1/nios2eds/bin/gnu/h-i686-mingw32/bin/../lib/gcc/nios2-elf/4.1.2/mno-hw-mul\libgcc.a(_pack_df.o)
 .data          0x00079300        0x0 c:/altera/10.1sp1/nios2eds/bin/gnu/h-i686-mingw32/bin/../lib/gcc/nios2-elf/4.1.2/mno-hw-mul\libgcc.a(_unpack_df.o)
 .data          0x00079300        0x0 c:/altera/10.1sp1/nios2eds/bin/gnu/h-i686-mingw32/bin/../lib/gcc/nios2-elf/4.1.2/mno-hw-mul\libgcc.a(_fpcmp_parts_df.o)
 .data          0x00079300        0x0 c:/altera/10.1sp1/nios2eds/bin/gnu/h-i686-mingw32/bin/../lib/gcc/nios2-elf/4.1.2/mno-hw-mul\libgcc.a(_clz.o)
 .data          0x00079300        0x0 c:/altera/10.1sp1/nios2eds/bin/gnu/h-i686-mingw32/bin/../lib/gcc/nios2-elf/4.1.2/../../../../nios2-elf/lib/mno-hw-mul\libc.a(lib_a-ctype_.o)
 .data          0x00079300        0x0 c:/altera/10.1sp1/nios2eds/bin/gnu/h-i686-mingw32/bin/../lib/gcc/nios2-elf/4.1.2/../../../../nios2-elf/lib/mno-hw-mul\libc.a(lib_a-errno.o)
 .data          0x00079300        0x0 c:/altera/10.1sp1/nios2eds/bin/gnu/h-i686-mingw32/bin/../lib/gcc/nios2-elf/4.1.2/../../../../nios2-elf/lib/mno-hw-mul\libc.a(lib_a-fprintf.o)
 .data          0x00079300        0x0 c:/altera/10.1sp1/nios2eds/bin/gnu/h-i686-mingw32/bin/../lib/gcc/nios2-elf/4.1.2/../../../../nios2-elf/lib/mno-hw-mul\libc.a(lib_a-fwrite.o)
 .data          0x00079300        0x0 c:/altera/10.1sp1/nios2eds/bin/gnu/h-i686-mingw32/bin/../lib/gcc/nios2-elf/4.1.2/../../../../nios2-elf/lib/mno-hw-mul\libc.a(lib_a-getc.o)
 .data          0x00079300      0x400 c:/altera/10.1sp1/nios2eds/bin/gnu/h-i686-mingw32/bin/../lib/gcc/nios2-elf/4.1.2/../../../../nios2-elf/lib/mno-hw-mul\libc.a(lib_a-impure.o)
 .data          0x00079700        0x0 c:/altera/10.1sp1/nios2eds/bin/gnu/h-i686-mingw32/bin/../lib/gcc/nios2-elf/4.1.2/../../../../nios2-elf/lib/mno-hw-mul\libc.a(lib_a-malign.o)
 .data          0x00079700        0x0 c:/altera/10.1sp1/nios2eds/bin/gnu/h-i686-mingw32/bin/../lib/gcc/nios2-elf/4.1.2/../../../../nios2-elf/lib/mno-hw-mul\libc.a(lib_a-malignr.o)
 .data          0x00079700        0x0 c:/altera/10.1sp1/nios2eds/bin/gnu/h-i686-mingw32/bin/../lib/gcc/nios2-elf/4.1.2/../../../../nios2-elf/lib/mno-hw-mul\libc.a(lib_a-malloc.o)
 .data          0x00079700      0x408 c:/altera/10.1sp1/nios2eds/bin/gnu/h-i686-mingw32/bin/../lib/gcc/nios2-elf/4.1.2/../../../../nios2-elf/lib/mno-hw-mul\libc.a(lib_a-mallocr.o)
                0x00079700                __malloc_av_
 .data          0x00079b08        0x0 c:/altera/10.1sp1/nios2eds/bin/gnu/h-i686-mingw32/bin/../lib/gcc/nios2-elf/4.1.2/../../../../nios2-elf/lib/mno-hw-mul\libc.a(lib_a-memcpy.o)
 .data          0x00079b08        0x0 c:/altera/10.1sp1/nios2eds/bin/gnu/h-i686-mingw32/bin/../lib/gcc/nios2-elf/4.1.2/../../../../nios2-elf/lib/mno-hw-mul\libc.a(lib_a-memset.o)
 .data          0x00079b08        0x0 c:/altera/10.1sp1/nios2eds/bin/gnu/h-i686-mingw32/bin/../lib/gcc/nios2-elf/4.1.2/../../../../nios2-elf/lib/mno-hw-mul\libc.a(lib_a-perror.o)
 .data          0x00079b08        0x0 c:/altera/10.1sp1/nios2eds/bin/gnu/h-i686-mingw32/bin/../lib/gcc/nios2-elf/4.1.2/../../../../nios2-elf/lib/mno-hw-mul\libc.a(lib_a-printf.o)
 .data          0x00079b08        0x0 c:/altera/10.1sp1/nios2eds/bin/gnu/h-i686-mingw32/bin/../lib/gcc/nios2-elf/4.1.2/../../../../nios2-elf/lib/mno-hw-mul\libc.a(lib_a-putc.o)
 .data          0x00079b08        0x0 c:/altera/10.1sp1/nios2eds/bin/gnu/h-i686-mingw32/bin/../lib/gcc/nios2-elf/4.1.2/../../../../nios2-elf/lib/mno-hw-mul\libc.a(lib_a-putchar.o)
 .data          0x00079b08        0x0 c:/altera/10.1sp1/nios2eds/bin/gnu/h-i686-mingw32/bin/../lib/gcc/nios2-elf/4.1.2/../../../../nios2-elf/lib/mno-hw-mul\libc.a(lib_a-puts.o)
 .data          0x00079b08        0x0 c:/altera/10.1sp1/nios2eds/bin/gnu/h-i686-mingw32/bin/../lib/gcc/nios2-elf/4.1.2/../../../../nios2-elf/lib/mno-hw-mul\libc.a(lib_a-rget.o)
 .data          0x00079b08        0x0 c:/altera/10.1sp1/nios2eds/bin/gnu/h-i686-mingw32/bin/../lib/gcc/nios2-elf/4.1.2/../../../../nios2-elf/lib/mno-hw-mul\libc.a(lib_a-sbrkr.o)
 .data          0x00079b08        0x0 c:/altera/10.1sp1/nios2eds/bin/gnu/h-i686-mingw32/bin/../lib/gcc/nios2-elf/4.1.2/../../../../nios2-elf/lib/mno-hw-mul\libc.a(lib_a-sprintf.o)
 .data          0x00079b08        0x0 c:/altera/10.1sp1/nios2eds/bin/gnu/h-i686-mingw32/bin/../lib/gcc/nios2-elf/4.1.2/../../../../nios2-elf/lib/mno-hw-mul\libc.a(lib_a-strcpy.o)
 .data          0x00079b08        0x0 c:/altera/10.1sp1/nios2eds/bin/gnu/h-i686-mingw32/bin/../lib/gcc/nios2-elf/4.1.2/../../../../nios2-elf/lib/mno-hw-mul\libc.a(lib_a-strerror.o)
 .data          0x00079b08        0x0 c:/altera/10.1sp1/nios2eds/bin/gnu/h-i686-mingw32/bin/../lib/gcc/nios2-elf/4.1.2/../../../../nios2-elf/lib/mno-hw-mul\libc.a(lib_a-strlen.o)
 .data          0x00079b08        0x0 c:/altera/10.1sp1/nios2eds/bin/gnu/h-i686-mingw32/bin/../lib/gcc/nios2-elf/4.1.2/../../../../nios2-elf/lib/mno-hw-mul\libc.a(lib_a-u_strerr.o)
 .data          0x00079b08        0x0 c:/altera/10.1sp1/nios2eds/bin/gnu/h-i686-mingw32/bin/../lib/gcc/nios2-elf/4.1.2/../../../../nios2-elf/lib/mno-hw-mul\libc.a(lib_a-vfprintf.o)
 .data          0x00079b08        0x0 c:/altera/10.1sp1/nios2eds/bin/gnu/h-i686-mingw32/bin/../lib/gcc/nios2-elf/4.1.2/../../../../nios2-elf/lib/mno-hw-mul\libc.a(lib_a-wbuf.o)
 .data          0x00079b08        0x0 c:/altera/10.1sp1/nios2eds/bin/gnu/h-i686-mingw32/bin/../lib/gcc/nios2-elf/4.1.2/../../../../nios2-elf/lib/mno-hw-mul\libc.a(lib_a-wsetup.o)
 .data          0x00079b08        0x0 c:/altera/10.1sp1/nios2eds/bin/gnu/h-i686-mingw32/bin/../lib/gcc/nios2-elf/4.1.2/../../../../nios2-elf/lib/mno-hw-mul\libc.a(lib_a-dtoa.o)
 .data          0x00079b08        0x0 c:/altera/10.1sp1/nios2eds/bin/gnu/h-i686-mingw32/bin/../lib/gcc/nios2-elf/4.1.2/../../../../nios2-elf/lib/mno-hw-mul\libc.a(lib_a-fflush.o)
 .data          0x00079b08        0x0 c:/altera/10.1sp1/nios2eds/bin/gnu/h-i686-mingw32/bin/../lib/gcc/nios2-elf/4.1.2/../../../../nios2-elf/lib/mno-hw-mul\libc.a(lib_a-findfp.o)
 .data          0x00079b08        0x0 c:/altera/10.1sp1/nios2eds/bin/gnu/h-i686-mingw32/bin/../lib/gcc/nios2-elf/4.1.2/../../../../nios2-elf/lib/mno-hw-mul\libc.a(lib_a-fputc.o)
 .data          0x00079b08        0x0 c:/altera/10.1sp1/nios2eds/bin/gnu/h-i686-mingw32/bin/../lib/gcc/nios2-elf/4.1.2/../../../../nios2-elf/lib/mno-hw-mul\libc.a(lib_a-fputs.o)
 .data          0x00079b08        0x0 c:/altera/10.1sp1/nios2eds/bin/gnu/h-i686-mingw32/bin/../lib/gcc/nios2-elf/4.1.2/../../../../nios2-elf/lib/mno-hw-mul\libc.a(lib_a-freer.o)
 .data          0x00079b08        0x0 c:/altera/10.1sp1/nios2eds/bin/gnu/h-i686-mingw32/bin/../lib/gcc/nios2-elf/4.1.2/../../../../nios2-elf/lib/mno-hw-mul\libc.a(lib_a-fvwrite.o)
 .data          0x00079b08        0x0 c:/altera/10.1sp1/nios2eds/bin/gnu/h-i686-mingw32/bin/../lib/gcc/nios2-elf/4.1.2/../../../../nios2-elf/lib/mno-hw-mul\libc.a(lib_a-fwalk.o)
 .data          0x00079b08        0x0 c:/altera/10.1sp1/nios2eds/bin/gnu/h-i686-mingw32/bin/../lib/gcc/nios2-elf/4.1.2/../../../../nios2-elf/lib/mno-hw-mul\libc.a(lib_a-int_errno.o)
 .data          0x00079b08        0xc c:/altera/10.1sp1/nios2eds/bin/gnu/h-i686-mingw32/bin/../lib/gcc/nios2-elf/4.1.2/../../../../nios2-elf/lib/mno-hw-mul\libc.a(lib_a-locale.o)
                0x00079b08                __lc_ctype
 .data          0x00079b14        0x0 c:/altera/10.1sp1/nios2eds/bin/gnu/h-i686-mingw32/bin/../lib/gcc/nios2-elf/4.1.2/../../../../nios2-elf/lib/mno-hw-mul\libc.a(lib_a-makebuf.o)
 .data          0x00079b14        0x0 c:/altera/10.1sp1/nios2eds/bin/gnu/h-i686-mingw32/bin/../lib/gcc/nios2-elf/4.1.2/../../../../nios2-elf/lib/mno-hw-mul\libc.a(lib_a-memchr.o)
 .data          0x00079b14        0x0 c:/altera/10.1sp1/nios2eds/bin/gnu/h-i686-mingw32/bin/../lib/gcc/nios2-elf/4.1.2/../../../../nios2-elf/lib/mno-hw-mul\libc.a(lib_a-memmove.o)
 .data          0x00079b14        0x0 c:/altera/10.1sp1/nios2eds/bin/gnu/h-i686-mingw32/bin/../lib/gcc/nios2-elf/4.1.2/../../../../nios2-elf/lib/mno-hw-mul\libc.a(lib_a-mprec.o)
 .data          0x00079b14        0x0 c:/altera/10.1sp1/nios2eds/bin/gnu/h-i686-mingw32/bin/../lib/gcc/nios2-elf/4.1.2/../../../../nios2-elf/lib/mno-hw-mul\libc.a(lib_a-reallocr.o)
 .data          0x00079b14        0x0 c:/altera/10.1sp1/nios2eds/bin/gnu/h-i686-mingw32/bin/../lib/gcc/nios2-elf/4.1.2/../../../../nios2-elf/lib/mno-hw-mul\libc.a(lib_a-refill.o)
 .data          0x00079b14        0x0 c:/altera/10.1sp1/nios2eds/bin/gnu/h-i686-mingw32/bin/../lib/gcc/nios2-elf/4.1.2/../../../../nios2-elf/lib/mno-hw-mul\libc.a(lib_a-s_isinfd.o)
 .data          0x00079b14        0x0 c:/altera/10.1sp1/nios2eds/bin/gnu/h-i686-mingw32/bin/../lib/gcc/nios2-elf/4.1.2/../../../../nios2-elf/lib/mno-hw-mul\libc.a(lib_a-stdio.o)
 .data          0x00079b14        0x0 c:/altera/10.1sp1/nios2eds/bin/gnu/h-i686-mingw32/bin/../lib/gcc/nios2-elf/4.1.2/../../../../nios2-elf/lib/mno-hw-mul\libc.a(lib_a-strcmp.o)
 .data          0x00079b14        0x0 c:/altera/10.1sp1/nios2eds/bin/gnu/h-i686-mingw32/bin/../lib/gcc/nios2-elf/4.1.2/../../../../nios2-elf/lib/mno-hw-mul\libc.a(lib_a-writer.o)
 .data          0x00079b14        0x0 c:/altera/10.1sp1/nios2eds/bin/gnu/h-i686-mingw32/bin/../lib/gcc/nios2-elf/4.1.2/../../../../nios2-elf/lib/mno-hw-mul\libc.a(lib_a-callocr.o)
 .data          0x00079b14        0x0 c:/altera/10.1sp1/nios2eds/bin/gnu/h-i686-mingw32/bin/../lib/gcc/nios2-elf/4.1.2/../../../../nios2-elf/lib/mno-hw-mul\libc.a(lib_a-closer.o)
 .data          0x00079b14        0x0 c:/altera/10.1sp1/nios2eds/bin/gnu/h-i686-mingw32/bin/../lib/gcc/nios2-elf/4.1.2/../../../../nios2-elf/lib/mno-hw-mul\libc.a(lib_a-fclose.o)
 .data          0x00079b14        0x0 c:/altera/10.1sp1/nios2eds/bin/gnu/h-i686-mingw32/bin/../lib/gcc/nios2-elf/4.1.2/../../../../nios2-elf/lib/mno-hw-mul\libc.a(lib_a-fstatr.o)
 .data          0x00079b14        0x0 c:/altera/10.1sp1/nios2eds/bin/gnu/h-i686-mingw32/bin/../lib/gcc/nios2-elf/4.1.2/../../../../nios2-elf/lib/mno-hw-mul\libc.a(lib_a-isattyr.o)
 .data          0x00079b14        0x0 c:/altera/10.1sp1/nios2eds/bin/gnu/h-i686-mingw32/bin/../lib/gcc/nios2-elf/4.1.2/../../../../nios2-elf/lib/mno-hw-mul\libc.a(lib_a-lseekr.o)
 .data          0x00079b14        0x0 c:/altera/10.1sp1/nios2eds/bin/gnu/h-i686-mingw32/bin/../lib/gcc/nios2-elf/4.1.2/../../../../nios2-elf/lib/mno-hw-mul\libc.a(lib_a-readr.o)
 .data          0x00079b14        0x0 c:/altera/10.1sp1/nios2eds/bin/gnu/h-i686-mingw32/bin/../lib/gcc/nios2-elf/4.1.2/mno-hw-mul\libgcc.a(_udivdi3.o)
 .data          0x00079b14        0x0 c:/altera/10.1sp1/nios2eds/bin/gnu/h-i686-mingw32/bin/../lib/gcc/nios2-elf/4.1.2/mno-hw-mul\libgcc.a(_umoddi3.o)
 .data          0x00079b14        0x0 c:/altera/10.1sp1/nios2eds/bin/gnu/h-i686-mingw32/bin/../lib/gcc/nios2-elf/4.1.2/mno-hw-mul\libgcc.a(_ne_df.o)
 .data          0x00079b14        0x0 ../RedeFFTHW_bsp\libucosii_bsp.a(alt_fstat.o)
 .data          0x00079b14        0x0 ../RedeFFTHW_bsp\libucosii_bsp.a(alt_isatty.o)
 .data          0x00079b14        0x0 ../RedeFFTHW_bsp\libucosii_bsp.a(alt_load.o)
 .data          0x00079b14        0x0 ../RedeFFTHW_bsp\libucosii_bsp.a(alt_lseek.o)
 .data          0x00079b14        0x0 ../RedeFFTHW_bsp\libucosii_bsp.a(alt_main.o)
 .data          0x00079b14        0x0 ../RedeFFTHW_bsp\libucosii_bsp.a(alt_remap_cached.o)
 .data          0x00079b14        0x0 ../RedeFFTHW_bsp\libucosii_bsp.a(alt_remap_uncached.o)
 .data          0x00079b14        0x0 ../RedeFFTHW_bsp\libucosii_bsp.a(alt_sbrk.o)
 .data          0x00079b14        0x0 ../RedeFFTHW_bsp\libucosii_bsp.a(alt_tick.o)
 .data          0x00079b14        0x0 ../RedeFFTHW_bsp\libucosii_bsp.a(alt_uncached_malloc.o)
 .data          0x00079b14        0x0 ../RedeFFTHW_bsp\libucosii_bsp.a(alt_usleep.o)
 .data          0x00079b14        0x0 ../RedeFFTHW_bsp\libucosii_bsp.a(alt_env_lock.o)
 .data          0x00079b14        0x0 ../RedeFFTHW_bsp\libucosii_bsp.a(alt_malloc_lock.o)
 .data          0x00079b14        0x0 ../RedeFFTHW_bsp\libucosii_bsp.a(os_core.o)
 .data          0x00079b14        0x0 ../RedeFFTHW_bsp\libucosii_bsp.a(os_dbg.o)
 .data          0x00079b14        0x0 ../RedeFFTHW_bsp\libucosii_bsp.a(os_flag.o)
 .data          0x00079b14        0x0 ../RedeFFTHW_bsp\libucosii_bsp.a(os_mem.o)
 .data          0x00079b14        0x0 ../RedeFFTHW_bsp\libucosii_bsp.a(os_q.o)
 .data          0x00079b14        0x0 ../RedeFFTHW_bsp\libucosii_bsp.a(os_sem.o)
 .data          0x00079b14        0x0 ../RedeFFTHW_bsp\libucosii_bsp.a(os_task.o)
 .data          0x00079b14        0x0 ../RedeFFTHW_bsp\libucosii_bsp.a(os_time.o)
 .data          0x00079b14     0x10fc ../RedeFFTHW_bsp\libucosii_bsp.a(alt_sys_init.o)
 .data          0x0007ac10        0x0 ../RedeFFTHW_bsp\libucosii_bsp.a(altera_avalon_jtag_uart_fd.o)
 .data          0x0007ac10        0x0 ../RedeFFTHW_bsp\libucosii_bsp.a(altera_avalon_jtag_uart_init.o)
 .data          0x0007ac10        0x0 ../RedeFFTHW_bsp\libucosii_bsp.a(altera_avalon_jtag_uart_ioctl.o)
 .data          0x0007ac10        0x0 ../RedeFFTHW_bsp\libucosii_bsp.a(altera_avalon_jtag_uart_read.o)
 .data          0x0007ac10        0x0 ../RedeFFTHW_bsp\libucosii_bsp.a(altera_avalon_jtag_uart_write.o)
 .data          0x0007ac10        0x0 ../RedeFFTHW_bsp\libucosii_bsp.a(altera_avalon_sgdma.o)
 .data          0x0007ac10        0x0 ../RedeFFTHW_bsp\libucosii_bsp.a(altera_avalon_timer_sc.o)
 .data          0x0007ac10        0x0 ../RedeFFTHW_bsp\libucosii_bsp.a(ins_tse_mac.o)
 .data          0x0007ac10        0x0 ../RedeFFTHW_bsp\libucosii_bsp.a(perf_print_formatted_report.o)
 .data          0x0007ac10        0x0 ../RedeFFTHW_bsp\libucosii_bsp.a(alt_iniche_close.o)
 .data          0x0007ac10        0x0 ../RedeFFTHW_bsp\libucosii_bsp.a(alt_iniche_dev.o)
 .data          0x0007ac10        0x0 ../RedeFFTHW_bsp\libucosii_bsp.a(alt_iniche_read.o)
 .data          0x0007ac10        0x0 ../RedeFFTHW_bsp\libucosii_bsp.a(alt_iniche_write.o)
 .data          0x0007ac10        0x0 ../RedeFFTHW_bsp\libucosii_bsp.a(ipnet.o)
 .data          0x0007ac10        0x0 ../RedeFFTHW_bsp\libucosii_bsp.a(ipstart.o)
 .data          0x0007ac10        0x0 ../RedeFFTHW_bsp\libucosii_bsp.a(igmp_cmn.o)
 .data          0x0007ac10        0x0 ../RedeFFTHW_bsp\libucosii_bsp.a(bsdsock.o)
 .data          0x0007ac10        0x0 ../RedeFFTHW_bsp\libucosii_bsp.a(cksum.o)
 .data          0x0007ac10        0x0 ../RedeFFTHW_bsp\libucosii_bsp.a(in_utils.o)
 .data          0x0007ac10       0x30 ../RedeFFTHW_bsp\libucosii_bsp.a(netmain.o)
                0x0007ac10                nettasks
 .data          0x0007ac40        0x0 ../RedeFFTHW_bsp\libucosii_bsp.a(tk_crnos.o)
 .data          0x0007ac40        0x0 ../RedeFFTHW_bsp\libucosii_bsp.a(dhcpclnt.o)
 .data          0x0007ac40        0x0 ../RedeFFTHW_bsp\libucosii_bsp.a(dhcputil.o)
 .data          0x0007ac40        0x0 ../RedeFFTHW_bsp\libucosii_bsp.a(pktalloc.o)
 .data          0x0007ac40        0x0 ../RedeFFTHW_bsp\libucosii_bsp.a(q.o)
 .data          0x0007ac40        0x0 ../RedeFFTHW_bsp\libucosii_bsp.a(udp_open.o)
 .data          0x0007ac40        0x0 ../RedeFFTHW_bsp\libucosii_bsp.a(asm_cksum.o)
 .data          0x0007ac40        0x0 ../RedeFFTHW_bsp\libucosii_bsp.a(brdutils.o)
 .data          0x0007ac40        0x0 ../RedeFFTHW_bsp\libucosii_bsp.a(osportco.o)
 .data          0x0007ac40        0x0 ../RedeFFTHW_bsp\libucosii_bsp.a(targnios.o)
 .data          0x0007ac40       0x48 ../RedeFFTHW_bsp\libucosii_bsp.a(nptcp.o)
                0x0007ac40                tcp_protosw
                0x0007ac58                udp_protosw
                0x0007ac70                rawip_protosw
 .data          0x0007ac88        0x0 ../RedeFFTHW_bsp\libucosii_bsp.a(rawsock.o)
 .data          0x0007ac88        0x0 ../RedeFFTHW_bsp\libucosii_bsp.a(sockcall.o)
 .data          0x0007ac88        0x0 ../RedeFFTHW_bsp\libucosii_bsp.a(socket.o)
 .data          0x0007ac88        0x0 ../RedeFFTHW_bsp\libucosii_bsp.a(socket2.o)
 .data          0x0007ac88        0x0 ../RedeFFTHW_bsp\libucosii_bsp.a(soselect.o)
 .data          0x0007ac88        0x0 ../RedeFFTHW_bsp\libucosii_bsp.a(tcp_in.o)
 .data          0x0007ac88        0xb ../RedeFFTHW_bsp\libucosii_bsp.a(tcp_out.o)
                0x0007ac88                tcp_outflags
 .data          0x0007ac93        0x0 ../RedeFFTHW_bsp\libucosii_bsp.a(tcp_subr.o)
 .data          0x0007ac93        0xd ../RedeFFTHW_bsp\libucosii_bsp.a(tcp_timr.o)
                0x0007ac93                tcp_backoff
 .data          0x0007aca0        0x0 ../RedeFFTHW_bsp\libucosii_bsp.a(tcp_usr.o)
 .data          0x0007aca0        0x0 ../RedeFFTHW_bsp\libucosii_bsp.a(tcpport.o)
 .data          0x0007aca0        0x0 ../RedeFFTHW_bsp\libucosii_bsp.a(udpsock.o)
 .data          0x0007aca0        0x0 ../RedeFFTHW_bsp\libucosii_bsp.a(alt_alarm_start.o)
 .data          0x0007aca0        0x0 ../RedeFFTHW_bsp\libucosii_bsp.a(alt_busy_sleep.o)
 .data          0x0007aca0        0x0 ../RedeFFTHW_bsp\libucosii_bsp.a(alt_close.o)
 .data          0x0007aca0        0x0 ../RedeFFTHW_bsp\libucosii_bsp.a(alt_dcache_flush.o)
 .data          0x0007aca0        0x0 ../RedeFFTHW_bsp\libucosii_bsp.a(alt_dcache_flush_all.o)
 .data          0x0007aca0      0x1a8 ../RedeFFTHW_bsp\libucosii_bsp.a(alt_dev.o)
                0x0007aca0                alt_dev_null
                0x0007acc8                alt_fd_list
 .data          0x0007ae48        0x0 ../RedeFFTHW_bsp\libucosii_bsp.a(alt_dev_llist_insert.o)
 .data          0x0007ae48        0x0 ../RedeFFTHW_bsp\libucosii_bsp.a(alt_do_ctors.o)
 .data          0x0007ae48        0x0 ../RedeFFTHW_bsp\libucosii_bsp.a(alt_do_dtors.o)
 .data          0x0007ae48        0x0 ../RedeFFTHW_bsp\libucosii_bsp.a(alt_errno.o)
 .data          0x0007ae48        0x0 ../RedeFFTHW_bsp\libucosii_bsp.a(alt_find_dev.o)
 .data          0x0007ae48        0x0 ../RedeFFTHW_bsp\libucosii_bsp.a(alt_icache_flush_all.o)
 .data          0x0007ae48        0x0 ../RedeFFTHW_bsp\libucosii_bsp.a(alt_iic.o)
 .data          0x0007ae48        0x0 ../RedeFFTHW_bsp\libucosii_bsp.a(alt_iic_isr_register.o)
 .data          0x0007ae48        0x0 ../RedeFFTHW_bsp\libucosii_bsp.a(alt_io_redirect.o)
 .data          0x0007ae48        0x0 ../RedeFFTHW_bsp\libucosii_bsp.a(alt_irq_entry.o)
 .data          0x0007ae48        0x0 ../RedeFFTHW_bsp\libucosii_bsp.a(alt_irq_handler.o)
 .data          0x0007ae48        0x0 ../RedeFFTHW_bsp\libucosii_bsp.a(alt_irq_vars.o)
 .data          0x0007ae48        0x0 ../RedeFFTHW_bsp\libucosii_bsp.a(alt_open.o)
 .data          0x0007ae48        0x0 ../RedeFFTHW_bsp\libucosii_bsp.a(alt_read.o)
 .data          0x0007ae48        0x0 ../RedeFFTHW_bsp\libucosii_bsp.a(alt_release_fd.o)
 .data          0x0007ae48        0x0 ../RedeFFTHW_bsp\libucosii_bsp.a(alt_write.o)
 .data          0x0007ae48        0x0 ../RedeFFTHW_bsp\libucosii_bsp.a(altera_nios2_irq.o)
 .data          0x0007ae48        0x0 ../RedeFFTHW_bsp\libucosii_bsp.a(os_cpu_a.o)
 .data          0x0007ae48        0x0 ../RedeFFTHW_bsp\libucosii_bsp.a(os_cpu_c.o)
 .data          0x0007ae48        0x0 ../RedeFFTHW_bsp\libucosii_bsp.a(altera_avalon_performance_counter.o)
 .data          0x0007ae48        0x0 ../RedeFFTHW_bsp\libucosii_bsp.a(altera_avalon_tse.o)
 .data          0x0007ae48      0x120 ../RedeFFTHW_bsp\libucosii_bsp.a(altera_avalon_tse_system_info.o)
                0x0007ae48                tse_mac_device
 .data          0x0007af68       0x18 ../RedeFFTHW_bsp\libucosii_bsp.a(allports.o)
                0x0007af68                icmpdu_types
 .data          0x0007af80        0x0 ../RedeFFTHW_bsp\libucosii_bsp.a(timeouts.o)
 .data          0x0007af80        0x0 ../RedeFFTHW_bsp\libucosii_bsp.a(tk_misc.o)
 .data          0x0007af80        0x0 ../RedeFFTHW_bsp\libucosii_bsp.a(alt_iniche_fcntl.o)
 .data          0x0007af80        0x0 ../RedeFFTHW_bsp\libucosii_bsp.a(et_arp.o)
 .data          0x0007af80        0x0 ../RedeFFTHW_bsp\libucosii_bsp.a(iface.o)
 .data          0x0007af80        0x0 ../RedeFFTHW_bsp\libucosii_bsp.a(ip.o)
 .data          0x0007af80        0x0 ../RedeFFTHW_bsp\libucosii_bsp.a(ip_reasm.o)
 .data          0x0007af80        0x0 ../RedeFFTHW_bsp\libucosii_bsp.a(ipdemux.o)
 .data          0x0007af80        0x0 ../RedeFFTHW_bsp\libucosii_bsp.a(ipmc.o)
 .data          0x0007af80        0x0 ../RedeFFTHW_bsp\libucosii_bsp.a(ipport.o)
 .data          0x0007af80        0x0 ../RedeFFTHW_bsp\libucosii_bsp.a(ipraw.o)
 .data          0x0007af80        0x9 ../RedeFFTHW_bsp\libucosii_bsp.a(iproute.o)
                0x0007af80                rtp_priority
 .data          0x0007af89        0x0 ../RedeFFTHW_bsp\libucosii_bsp.a(udp.o)
 .data          0x0007af89        0x0 ../RedeFFTHW_bsp\libucosii_bsp.a(igmp.o)
 .data          0x0007af89        0x0 ../RedeFFTHW_bsp\libucosii_bsp.a(igmp2.o)
 .data          0x0007af89        0x0 ../RedeFFTHW_bsp\libucosii_bsp.a(ipopt.o)
 .data          0x0007af89        0x0 ../RedeFFTHW_bsp\libucosii_bsp.a(u_mctest.o)
 .data          0x0007af89        0x0 ../RedeFFTHW_bsp\libucosii_bsp.a(dhcsetup.o)
 *fill*         0x0007af89        0x3 00
 .data          0x0007af8c       0xd4 ../RedeFFTHW_bsp\libucosii_bsp.a(memdev.o)
                0x0007af8c                mdio
                0x0007afb0                mdlist
 .data          0x0007b060        0x0 ../RedeFFTHW_bsp\libucosii_bsp.a(parseip.o)
 .data          0x0007b060        0x0 ../RedeFFTHW_bsp\libucosii_bsp.a(tcpcksum.o)
 .data          0x0007b060        0x0 ../RedeFFTHW_bsp\libucosii_bsp.a(in_pcb.o)
 .data          0x0007b060       0x80 ../RedeFFTHW_bsp\libucosii_bsp.a(vfsfiles.o)
                0x0007b060                vfs_root_path
 .data          0x0007b0e0        0x0 ../RedeFFTHW_bsp\libucosii_bsp.a(vfsport.o)
 .data          0x0007b0e0        0x0 ../RedeFFTHW_bsp\libucosii_bsp.a(alt_exception_entry.o)
 .data          0x0007b0e0        0x0 ../RedeFFTHW_bsp\libucosii_bsp.a(alt_fcntl.o)
 .data          0x0007b0e0        0x0 ../RedeFFTHW_bsp\libucosii_bsp.a(alt_find_file.o)
 .data          0x0007b0e0        0x0 ../RedeFFTHW_bsp\libucosii_bsp.a(alt_get_fd.o)
 .data          0x0007b0e0       0x18 ../RedeFFTHW_bsp\libucosii_bsp.a(icmp.o)
 .data          0x0007b0f8        0x0 c:/altera/10.1sp1/nios2eds/bin/gnu/h-i686-mingw32/bin/../lib/gcc/nios2-elf/4.1.2/../../../../nios2-elf/lib/mno-hw-mul\libc.a(lib_a-atexit.o)
 .data          0x0007b0f8        0x0 c:/altera/10.1sp1/nios2eds/bin/gnu/h-i686-mingw32/bin/../lib/gcc/nios2-elf/4.1.2/../../../../nios2-elf/lib/mno-hw-mul\libc.a(lib_a-atoi.o)
 .data          0x0007b0f8        0x0 c:/altera/10.1sp1/nios2eds/bin/gnu/h-i686-mingw32/bin/../lib/gcc/nios2-elf/4.1.2/../../../../nios2-elf/lib/mno-hw-mul\libc.a(lib_a-calloc.o)
 .data          0x0007b0f8        0x0 c:/altera/10.1sp1/nios2eds/bin/gnu/h-i686-mingw32/bin/../lib/gcc/nios2-elf/4.1.2/../../../../nios2-elf/lib/mno-hw-mul\libc.a(lib_a-exit.o)
 .data          0x0007b0f8        0x0 c:/altera/10.1sp1/nios2eds/bin/gnu/h-i686-mingw32/bin/../lib/gcc/nios2-elf/4.1.2/../../../../nios2-elf/lib/mno-hw-mul\libc.a(lib_a-memcmp.o)
 .data          0x0007b0f8        0x0 c:/altera/10.1sp1/nios2eds/bin/gnu/h-i686-mingw32/bin/../lib/gcc/nios2-elf/4.1.2/../../../../nios2-elf/lib/mno-hw-mul\libc.a(lib_a-strchr.o)
 .data          0x0007b0f8        0x0 c:/altera/10.1sp1/nios2eds/bin/gnu/h-i686-mingw32/bin/../lib/gcc/nios2-elf/4.1.2/../../../../nios2-elf/lib/mno-hw-mul\libc.a(lib_a-strncmp.o)
 .data          0x0007b0f8        0x0 c:/altera/10.1sp1/nios2eds/bin/gnu/h-i686-mingw32/bin/../lib/gcc/nios2-elf/4.1.2/../../../../nios2-elf/lib/mno-hw-mul\libc.a(lib_a-strncpy.o)
 .data          0x0007b0f8        0x0 c:/altera/10.1sp1/nios2eds/bin/gnu/h-i686-mingw32/bin/../lib/gcc/nios2-elf/4.1.2/../../../../nios2-elf/lib/mno-hw-mul\libc.a(lib_a-strtol.o)
 .data          0x0007b0f8        0x0 c:/altera/10.1sp1/nios2eds/bin/gnu/h-i686-mingw32/bin/../lib/gcc/nios2-elf/4.1.2/../../../../nios2-elf/lib/mno-hw-mul\libc.a(lib_a-vprintf.o)
 .data          0x0007b0f8        0x0 c:/altera/10.1sp1/nios2eds/bin/gnu/h-i686-mingw32/bin/../lib/gcc/nios2-elf/4.1.2/../../../../nios2-elf/lib/mno-hw-mul\libc.a(lib_a-vsprintf.o)
 .data          0x0007b0f8        0x0 c:/altera/10.1sp1/nios2eds/bin/gnu/h-i686-mingw32/bin/../lib/gcc/nios2-elf/4.1.2/../../../../nios2-elf/lib/mno-hw-mul\libc.a(lib_a-__atexit.o)
 .data          0x0007b0f8        0x0 c:/altera/10.1sp1/nios2eds/bin/gnu/h-i686-mingw32/bin/../lib/gcc/nios2-elf/4.1.2/../../../../nios2-elf/lib/mno-hw-mul\libc.a(lib_a-__call_atexit.o)
 .data          0x0007b0f8        0x0 c:/altera/10.1sp1/nios2eds/bin/gnu/h-i686-mingw32/bin/../lib/gcc/nios2-elf/4.1.2/mno-hw-mul\libgcc.a(_floatundidf.o)
 .data          0x0007b0f8        0x0 ../RedeFFTHW_bsp\libucosii_bsp.a(alt_exit.o)
                0x000830f8                _gp = ABSOLUTE ((. + 0x8000))
                0x000830f8                PROVIDE (gp, _gp)
 *(.sdata .sdata.* .gnu.linkonce.s.*)
 .sdata         0x0007b0f8        0x8 obj/AquisicaoRede.o
                0x0007b0f8                btnFecharAquis_Caption
 .sdata         0x0007b100        0x8 obj/DanWindow/DanWindow.o
                0x0007b100                display_width
                0x0007b104                display_height
 .sdata         0x0007b108       0x10 obj/LCDTask.o
                0x0007b108                largura_logo
                0x0007b10c                altura_logo
                0x0007b110                btnIniciar_Caption
 .sdata         0x0007b118        0x8 obj/TerminalSerial.o
                0x0007b118                btnFecharTermSerial_Caption
 .sdata         0x0007b120        0x4 obj/graphics_lib/simple_graphics.o
                0x0007b120                cour10_font
 .sdata         0x0007b124       0x10 obj/simple_socket_server.o
 .sdata         0x0007b134        0x4 c:/altera/10.1sp1/nios2eds/bin/gnu/h-i686-mingw32/bin/../lib/gcc/nios2-elf/4.1.2/../../../../nios2-elf/lib/mno-hw-mul\libm.a(lib_a-s_lib_ver.o)
                0x0007b134                __fdlib_version
 .sdata         0x0007b138        0x4 c:/altera/10.1sp1/nios2eds/bin/gnu/h-i686-mingw32/bin/../lib/gcc/nios2-elf/4.1.2/../../../../nios2-elf/lib/mno-hw-mul\libc.a(lib_a-ctype_.o)
                0x0007b138                __ctype_ptr
 .sdata         0x0007b13c        0x8 c:/altera/10.1sp1/nios2eds/bin/gnu/h-i686-mingw32/bin/../lib/gcc/nios2-elf/4.1.2/../../../../nios2-elf/lib/mno-hw-mul\libc.a(lib_a-impure.o)
                0x0007b13c                _impure_ptr
                0x0007b140                _global_impure_ptr
 .sdata         0x0007b144        0x8 c:/altera/10.1sp1/nios2eds/bin/gnu/h-i686-mingw32/bin/../lib/gcc/nios2-elf/4.1.2/../../../../nios2-elf/lib/mno-hw-mul\libc.a(lib_a-mallocr.o)
                0x0007b144                __malloc_trim_threshold
                0x0007b148                __malloc_sbrk_base
 .sdata         0x0007b14c        0x8 c:/altera/10.1sp1/nios2eds/bin/gnu/h-i686-mingw32/bin/../lib/gcc/nios2-elf/4.1.2/../../../../nios2-elf/lib/mno-hw-mul\libc.a(lib_a-locale.o)
                0x0007b14c                __mb_cur_max
 .sdata         0x0007b154        0x4 ../RedeFFTHW_bsp\libucosii_bsp.a(alt_sbrk.o)
 .sdata         0x0007b158        0x8 ../RedeFFTHW_bsp\libucosii_bsp.a(alt_tick.o)
                0x0007b158                alt_alarm_list
 .sdata         0x0007b160        0x4 ../RedeFFTHW_bsp\libucosii_bsp.a(alt_env_lock.o)
 .sdata         0x0007b164        0x4 ../RedeFFTHW_bsp\libucosii_bsp.a(alt_malloc_lock.o)
 .sdata         0x0007b168       0x74 ../RedeFFTHW_bsp\libucosii_bsp.a(os_dbg.o)
                0x0007b168                OSDebugEn
                0x0007b16c                OSEndiannessTest
                0x0007b170                OSEventEn
                0x0007b172                OSEventMax
                0x0007b174                OSEventNameSize
                0x0007b176                OSEventSize
                0x0007b178                OSEventTblSize
                0x0007b17a                OSEventMultiEn
                0x0007b17c                OSFlagEn
                0x0007b17e                OSFlagGrpSize
                0x0007b180                OSFlagNodeSize
                0x0007b182                OSFlagWidth
                0x0007b184                OSFlagMax
                0x0007b186                OSFlagNameSize
                0x0007b188                OSLowestPrio
                0x0007b18a                OSMboxEn
                0x0007b18c                OSMemEn
                0x0007b18e                OSMemMax
                0x0007b190                OSMemNameSize
                0x0007b192                OSMemSize
                0x0007b194                OSMemTblSize
                0x0007b196                OSMutexEn
                0x0007b198                OSPtrSize
                0x0007b19a                OSQEn
                0x0007b19c                OSQMax
                0x0007b19e                OSQSize
                0x0007b1a0                OSRdyTblSize
                0x0007b1a2                OSSemEn
                0x0007b1a4                OSStkWidth
                0x0007b1a6                OSTaskCreateEn
                0x0007b1a8                OSTaskCreateExtEn
                0x0007b1aa                OSTaskDelEn
                0x0007b1ac                OSTaskIdleStkSize
                0x0007b1ae                OSTaskProfileEn
                0x0007b1b0                OSTaskMax
                0x0007b1b2                OSTaskNameSize
                0x0007b1b4                OSTaskStatEn
                0x0007b1b6                OSTaskStatStkSize
                0x0007b1b8                OSTaskStatStkChkEn
                0x0007b1ba                OSTaskSwHookEn
                0x0007b1bc                OSTCBPrioTblMax
                0x0007b1be                OSTCBSize
                0x0007b1c0                OSTicksPerSec
                0x0007b1c2                OSTimeTickHookEn
                0x0007b1c4                OSVersionNbr
                0x0007b1c6                OSTmrEn
                0x0007b1c8                OSTmrCfgMax
                0x0007b1ca                OSTmrCfgNameSize
                0x0007b1cc                OSTmrCfgWheelSize
                0x0007b1ce                OSTmrCfgTicksPerSec
                0x0007b1d0                OSTmrSize
                0x0007b1d2                OSTmrTblSize
                0x0007b1d4                OSTmrWheelSize
                0x0007b1d6                OSTmrWheelTblSize
                0x0007b1d8                OSDataSize
 .sdata         0x0007b1dc        0x4 ../RedeFFTHW_bsp\libucosii_bsp.a(alt_sys_init.o)
                0x0007b1dc                tse_mac_name
 .sdata         0x0007b1e0        0x8 ../RedeFFTHW_bsp\libucosii_bsp.a(altera_avalon_sgdma.o)
                0x0007b1e0                alt_sgdma_list
 .sdata         0x0007b1e8        0x8 ../RedeFFTHW_bsp\libucosii_bsp.a(alt_iniche_dev.o)
                0x0007b1e8                alt_iniche_dev_list
 .sdata         0x0007b1f0        0x4 ../RedeFFTHW_bsp\libucosii_bsp.a(ipstart.o)
                0x0007b1f0                ipmcfail_str
 .sdata         0x0007b1f4        0x4 ../RedeFFTHW_bsp\libucosii_bsp.a(cksum.o)
 .sdata         0x0007b1f8        0x4 ../RedeFFTHW_bsp\libucosii_bsp.a(netmain.o)
                0x0007b1f8                num_net_tasks
 .sdata         0x0007b1fc        0xc ../RedeFFTHW_bsp\libucosii_bsp.a(dhcpclnt.o)
                0x0007b1fc                xids
                0x0007b200                reqlist
                0x0007b204                reqlist_len
 .sdata         0x0007b208       0x10 ../RedeFFTHW_bsp\libucosii_bsp.a(pktalloc.o)
                0x0007b208                lilbufs
                0x0007b20c                lilbufsiz
                0x0007b210                bigbufs
                0x0007b214                bigbufsiz
 .sdata         0x0007b218        0x4 ../RedeFFTHW_bsp\libucosii_bsp.a(brdutils.o)
                0x0007b218                kb_last
 .sdata         0x0007b21c        0x4 ../RedeFFTHW_bsp\libucosii_bsp.a(nptcp.o)
                0x0007b21c                TCPTV_MSL
 .sdata         0x0007b220        0x2 ../RedeFFTHW_bsp\libucosii_bsp.a(socket.o)
                0x0007b220                socket_defaults
 .sdata         0x0007b222        0x1 ../RedeFFTHW_bsp\libucosii_bsp.a(tcp_in.o)
                0x0007b222                tcprexmtthresh
 *fill*         0x0007b223        0x1 00
 .sdata         0x0007b224        0x4 ../RedeFFTHW_bsp\libucosii_bsp.a(tcp_subr.o)
                0x0007b224                tcp_ttl
 .sdata         0x0007b228        0x8 ../RedeFFTHW_bsp\libucosii_bsp.a(tcp_timr.o)
                0x0007b228                tcp_keepidle
                0x0007b22c                tcp_keepintvl
 .sdata         0x0007b230        0x8 ../RedeFFTHW_bsp\libucosii_bsp.a(tcp_usr.o)
                0x0007b230                tcp_sendspace
                0x0007b234                tcp_recvspace
 .sdata         0x0007b238       0x14 ../RedeFFTHW_bsp\libucosii_bsp.a(alt_dev.o)
                0x0007b238                alt_fs_list
                0x0007b240                alt_dev_list
                0x0007b248                alt_max_fd
 .sdata         0x0007b24c        0x4 ../RedeFFTHW_bsp\libucosii_bsp.a(alt_errno.o)
                0x0007b24c                alt_errno
 .sdata         0x0007b250        0x4 ../RedeFFTHW_bsp\libucosii_bsp.a(alt_irq_vars.o)
                0x0007b250                alt_priority_mask
 .sdata         0x0007b254        0x1 ../RedeFFTHW_bsp\libucosii_bsp.a(altera_avalon_tse.o)
                0x0007b254                max_mac_system
 *fill*         0x0007b255        0x3 00
 .sdata         0x0007b258       0x10 ../RedeFFTHW_bsp\libucosii_bsp.a(allports.o)
                0x0007b258                name
                0x0007b25c                prompt
                0x0007b260                pingdelay
                0x0007b264                deflength
 .sdata         0x0007b268        0x4 ../RedeFFTHW_bsp\libucosii_bsp.a(et_arp.o)
                0x0007b268                arp_ageout
 .sdata         0x0007b26c        0x8 ../RedeFFTHW_bsp\libucosii_bsp.a(ip.o)
                0x0007b270                ipRoutes
 .sdata         0x0007b274        0x4 ../RedeFFTHW_bsp\libucosii_bsp.a(u_mctest.o)
 .sdata         0x0007b278        0x4 ../RedeFFTHW_bsp\libucosii_bsp.a(memdev.o)
                0x0007b278                mdlist_size
 .sdata         0x0007b27c        0x4 ../RedeFFTHW_bsp\libucosii_bsp.a(parseip.o)
                0x0007b27c                pton_error
 .sdata         0x0007b280        0x4 ../RedeFFTHW_bsp\libucosii_bsp.a(vfsfiles.o)
                0x0007b280                http_root_path
 *(.sdata2 .sdata2.* .gnu.linkonce.s2.*)
                0x0007b284                . = ALIGN (0x4)
                0x0007b284                _edata = ABSOLUTE (.)
                0x0007b284                PROVIDE (edata, ABSOLUTE (.))
                0x0007b284                PROVIDE (__ram_rwdata_end, ABSOLUTE (.))
                0x0007b284                PROVIDE (__flash_rwdata_start, LOADADDR (.rwdata))

.bss            0x0007e0e4   0x118878
                0x0007e0e4                __bss_start = ABSOLUTE (.)
                0x0007e0e4                PROVIDE (__sbss_start, ABSOLUTE (.))
                0x0007e0e4                PROVIDE (___sbss_start, ABSOLUTE (.))
 *(.dynsbss)
 *(.sbss .sbss.* .gnu.linkonce.sb.*)
 .sbss          0x0007e0e4        0x8 obj/AquisicaoRede.o
                0x0007e0e4                Aquisicao_Graphs
 .sbss          0x0007e0ec       0x28 obj/DanWindow/DanWindow.o
                0x0007e0ec                PenDown
                0x0007e0f0                caption_height
                0x0007e0f4                caption_length
                0x0007e0f8                PressedObject
                0x0007e0fc                Xcoord
                0x0007e100                Ycoord
                0x0007e104                display
                0x0007e108                CurrentScreen
                0x0007e10c                pen_is_down
                0x0007e110                PressedObjectType
 .sbss          0x0007e114        0x8 obj/FFT/simpleDFT.o
                0x0007e114                Wy
                0x0007e118                Wx
 .sbss          0x0007e11c       0x18 obj/LCDTask.o
                0x0007e11c                mostraMenu
                0x0007e12c                Desktop_Buttons
 .sbss          0x0007e134       0x14 obj/TerminalSerial.o
                0x0007e134                TerminalSerial_Buttons
                0x0007e138                TerminalSerial_Labels
                0x0007e140                TerminalSerial_Boxes
 .sbss          0x0007e148        0x1 obj/iniche_init.o
                0x0007e148                to_ssstask
 *fill*         0x0007e149        0x3 00
 .sbss          0x0007e14c        0x8 obj/network_utilities.o
                0x0007e14c                last_flash_sector_offset
                0x0007e150                last_flash_sector
 .sbss          0x0007e154       0x18 obj/simple_socket_server.o
                0x0007e154                novos_dados
                0x0007e158                iniciar_socket
                0x0007e15c                fdSocketReceiver
                0x0007e160                EventoSocket
                0x0007e164                fdSocketSender
                0x0007e168                fdSocketSenderResult
 .sbss          0x0007e16c        0xc c:/altera/10.1sp1/nios2eds/bin/gnu/h-i686-mingw32/bin/../lib/gcc/nios2-elf/4.1.2/../../../../nios2-elf/lib/mno-hw-mul\libc.a(lib_a-mallocr.o)
                0x0007e16c                __malloc_top_pad
                0x0007e170                __malloc_max_sbrked_mem
                0x0007e174                __malloc_max_total_mem
 .sbss          0x0007e178        0x4 c:/altera/10.1sp1/nios2eds/bin/gnu/h-i686-mingw32/bin/../lib/gcc/nios2-elf/4.1.2/../../../../nios2-elf/lib/mno-hw-mul\libc.a(lib_a-int_errno.o)
                0x0007e178                errno
 .sbss          0x0007e17c        0xc c:/altera/10.1sp1/nios2eds/bin/gnu/h-i686-mingw32/bin/../lib/gcc/nios2-elf/4.1.2/../../../../nios2-elf/lib/mno-hw-mul\libc.a(lib_a-locale.o)
                0x0007e17c                __nlocale_changed
                0x0007e180                __mlocale_changed
                0x0007e184                _PathLocale
 .sbss          0x0007e188        0xc ../RedeFFTHW_bsp\libucosii_bsp.a(alt_main.o)
                0x0007e188                alt_argc
                0x0007e18c                alt_argv
                0x0007e190                alt_envp
 .sbss          0x0007e194        0x8 ../RedeFFTHW_bsp\libucosii_bsp.a(alt_tick.o)
                0x0007e194                _alt_tick_rate
                0x0007e198                _alt_nticks
 .sbss          0x0007e19c        0x8 ../RedeFFTHW_bsp\libucosii_bsp.a(alt_env_lock.o)
                0x0007e1a0                alt_envsem
 .sbss          0x0007e1a4        0x8 ../RedeFFTHW_bsp\libucosii_bsp.a(alt_malloc_lock.o)
                0x0007e1a8                alt_heapsem
 .sbss          0x0007e1ac       0x50 ../RedeFFTHW_bsp\libucosii_bsp.a(os_core.o)
                0x0007e1ac                OSLockNesting
                0x0007e1ad                OSRunning
                0x0007e1b0                OSIdleCtr
                0x0007e1b4                OSPrioHighRdy
                0x0007e1b5                OSPrioCur
                0x0007e1b8                OSTCBList
                0x0007e1bc                OSTickStepState
                0x0007e1c0                OSCtxSwCtr
                0x0007e1c4                OSIdleCtrMax
                0x0007e1c8                OSTCBFreeList
                0x0007e1cc                OSCPUUsage
                0x0007e1cd                OSTaskCtr
                0x0007e1d0                OSMemFreeList
                0x0007e1d4                OSTCBHighRdy
                0x0007e1d8                OSQFreeList
                0x0007e1dc                OSRdyGrp
                0x0007e1dd                OSRdyTbl
                0x0007e1e0                OSEventFreeList
                0x0007e1e4                OSIntNesting
                0x0007e1e8                OSTCBCur
                0x0007e1ec                OSTime
                0x0007e1f0                OSFlagFreeList
                0x0007e1f4                OSStatRdy
                0x0007e1f8                OSIdleCtrRun
 .sbss          0x0007e1fc        0x1 ../RedeFFTHW_bsp\libucosii_bsp.a(ins_tse_mac.o)
                0x0007e1fc                number_of_tse_mac
 *fill*         0x0007e1fd        0x3 00
 .sbss          0x0007e200        0xc ../RedeFFTHW_bsp\libucosii_bsp.a(ipnet.o)
                0x0007e200                MaxLnh
                0x0007e204                MaxMtu
                0x0007e208                NDEBUG
 .sbss          0x0007e20c        0x8 ../RedeFFTHW_bsp\libucosii_bsp.a(ipstart.o)
                0x0007e20c                ifNumber
 .sbss          0x0007e214       0x10 ../RedeFFTHW_bsp\libucosii_bsp.a(igmp_cmn.o)
                0x0007e214                igmp_timers_are_running
                0x0007e218                igmp_cticks
                0x0007e21c                igmp_all_hosts_group
                0x0007e220                igmp_all_rtrs_group
 .sbss          0x0007e224        0xe ../RedeFFTHW_bsp\libucosii_bsp.a(netmain.o)
                0x0007e224                netmain_wakes
                0x0007e228                nettick_wakes
                0x0007e22c                iniche_net_ready
                0x0007e230                to_netmain
                0x0007e231                to_nettick
 *fill*         0x0007e232        0x2 00
 .sbss          0x0007e234        0x4 ../RedeFFTHW_bsp\libucosii_bsp.a(tk_crnos.o)
                0x0007e234                tcp_sleep_timeout
 .sbss          0x0007e238       0x34 ../RedeFFTHW_bsp\libucosii_bsp.a(dhcpclnt.o)
                0x0007e238                dhc_conn
                0x0007e23c                dsc_errors
                0x0007e240                dsc_discovers
                0x0007e244                dsc_offers
                0x0007e248                dsc_requests
                0x0007e24c                dsc_acks
                0x0007e250                dsc_bpreplys
                0x0007e254                dsc_declines
                0x0007e258                dsc_releases
                0x0007e25c                dsc_naks
                0x0007e260                dsc_renew
                0x0007e264                dsc_rebind
                0x0007e268                dsc_rlyerrs
 .sbss          0x0007e26c        0x4 ../RedeFFTHW_bsp\libucosii_bsp.a(udp_open.o)
                0x0007e26c                firstudp
 .sbss          0x0007e270       0x18 ../RedeFFTHW_bsp\libucosii_bsp.a(brdutils.o)
                0x0007e274                cticks_initialized
                0x0007e278                irq_level
                0x0007e280                cticks_factor
                0x0007e284                OS_TPS
 .sbss          0x0007e288       0x18 ../RedeFFTHW_bsp\libucosii_bsp.a(osportco.o)
                0x0007e288                tcp_sleep_count
                0x0007e28c                tcp_wakeup_count
                0x0007e290                netq_intmask
                0x0007e294                old_mode
                0x0007e298                global_TCPwakeup_setIndx
                0x0007e29c                cticks
 .sbss          0x0007e2a0        0xc ../RedeFFTHW_bsp\libucosii_bsp.a(targnios.o)
                0x0007e2a0                memtrapsize
                0x0007e2a4                mheap_sem_ptr
                0x0007e2a8                rcvdq_sem_ptr
 .sbss          0x0007e2ac       0x12 ../RedeFFTHW_bsp\libucosii_bsp.a(nptcp.o)
                0x0007e2ac                nextslow
                0x0007e2b4                mbstat
                0x0007e2bc                select_wait
 *fill*         0x0007e2be        0x2 00
 .sbss          0x0007e2c0        0x8 ../RedeFFTHW_bsp\libucosii_bsp.a(tcp_in.o)
                0x0007e2c0                tcpprintfs
                0x0007e2c4                dropline
 .sbss          0x0007e2c8        0x4 ../RedeFFTHW_bsp\libucosii_bsp.a(tcp_out.o)
                0x0007e2c8                tcp_optionbuf
 .sbss          0x0007e2cc        0x8 ../RedeFFTHW_bsp\libucosii_bsp.a(tcp_timr.o)
                0x0007e2cc                tcp_maxidle
                0x0007e2d0                tcp_iss
 .sbss          0x0007e2d4        0x4 ../RedeFFTHW_bsp\libucosii_bsp.a(alt_dev.o)
                0x0007e2d4                alt_fd_list_lock
 .sbss          0x0007e2d8        0x4 ../RedeFFTHW_bsp\libucosii_bsp.a(alt_irq_vars.o)
                0x0007e2d8                alt_irq_active
 .sbss          0x0007e2dc        0x4 ../RedeFFTHW_bsp\libucosii_bsp.a(altera_avalon_tse.o)
                0x0007e2dc                phy_profile_count
                0x0007e2dd                mac_group_count
 .sbss          0x0007e2e0        0x8 ../RedeFFTHW_bsp\libucosii_bsp.a(allports.o)
                0x0007e2e0                activehost
 .sbss          0x0007e2e8        0xc ../RedeFFTHW_bsp\libucosii_bsp.a(timeouts.o)
                0x0007e2e8                nextppp
                0x0007e2ec                port_1s_callout
 .sbss          0x0007e2f4       0x1c ../RedeFFTHW_bsp\libucosii_bsp.a(et_arp.o)
                0x0007e2f8                arpcache
                0x0007e2fc                arpReqsIn
                0x0007e300                arpReqsOut
                0x0007e304                arpRepsIn
                0x0007e308                arpRepsOut
 .sbss          0x0007e310        0x4 ../RedeFFTHW_bsp\libucosii_bsp.a(ip.o)
                0x0007e310                rt_mib
 .sbss          0x0007e314        0xc ../RedeFFTHW_bsp\libucosii_bsp.a(ip_reasm.o)
                0x0007e314                ipr_curr_mem
                0x0007e318                h_ireq
                0x0007e31c                ire_cticks
 .sbss          0x0007e320       0x11 ../RedeFFTHW_bsp\libucosii_bsp.a(ipport.o)
                0x0007e320                port_prep
                0x0007e324                net_system_exit
                0x0007e328                so_evtmap_create
                0x0007e32c                so_evtmap_delete
                0x0007e330                so_evtmap
 *fill*         0x0007e331        0x3 00
 .sbss          0x0007e334        0x4 ../RedeFFTHW_bsp\libucosii_bsp.a(ipraw.o)
                0x0007e334                ipraw_eps
 .sbss          0x0007e338        0x4 ../RedeFFTHW_bsp\libucosii_bsp.a(iproute.o)
                0x0007e338                cachedRoute
 .sbss          0x0007e33c        0x2 ../RedeFFTHW_bsp\libucosii_bsp.a(udp.o)
 *fill*         0x0007e33e        0x2 00
 .sbss          0x0007e340        0x8 ../RedeFFTHW_bsp\libucosii_bsp.a(in_pcb.o)
                0x0007e340                inpcb_cachehits
                0x0007e344                inpcb_cachemiss
 .sbss          0x0007e348       0x20 ../RedeFFTHW_bsp\libucosii_bsp.a(vfsfiles.o)
                0x0007e348                vfsystems
                0x0007e34c                vfiles
                0x0007e350                vfsfiles
                0x0007e354                vfopen_error
                0x0007e358                vfs_dir_stale
                0x0007e35c                vfs_open_files
                0x0007e360                vfs_total_rw_space
                0x0007e364                vfs_total_dyna_files
 .sbss          0x0007e368        0x4 ../RedeFFTHW_bsp\libucosii_bsp.a(icmp.o)
                0x0007e368                icmpdu_hook
 *(.sbss2 .sbss2.* .gnu.linkonce.sb2.*)
 *(.scommon)
                0x0007e36c                PROVIDE (__sbss_end, ABSOLUTE (.))
                0x0007e36c                PROVIDE (___sbss_end, ABSOLUTE (.))
 *(.dynbss)
 *(.bss .bss.* .gnu.linkonce.b.*)
 .bss           0x0007e36c        0x0 ../RedeFFTHW_bsp/obj/HAL/src/crt0.o
 .bss           0x0007e36c   0x102800 obj/AquisicaoRede.o
 .bss           0x00180b6c        0x0 obj/DanWindow/DanWindow.o
 .bss           0x00180b6c        0x0 obj/FFT/simpleDFT.o
 .bss           0x00180b6c        0x0 obj/LCDTask.o
 .bss           0x00180b6c        0x0 obj/TerminalSerial.o
 .bss           0x00180b6c        0x0 obj/alt_error_handler.o
 .bss           0x00180b6c        0x0 obj/alt_touchscreen/alt_touchscreen.o
 .bss           0x00180b6c        0x0 obj/alt_tpo_lcd/alt_tpo_lcd.o
 .bss           0x00180b6c        0x0 obj/alt_video_display/alt_video_display.o
 .bss           0x00180b6c        0x0 obj/fixedpoint2_16.o
 .bss           0x00180b6c        0x0 obj/graphics_lib/simple_graphics.o
 .bss           0x00180b6c        0x0 obj/iniche_init.o
 .bss           0x00180b6c        0x0 obj/network_utilities.o
 .bss           0x00180b6c        0x0 obj/simple_socket_server.o
 .bss           0x00180b6c        0x0 c:/altera/10.1sp1/nios2eds/bin/gnu/h-i686-mingw32/bin/../lib/gcc/nios2-elf/4.1.2/../../../../nios2-elf/lib/mno-hw-mul\libm.a(lib_a-s_cos.o)
 .bss           0x00180b6c        0x0 c:/altera/10.1sp1/nios2eds/bin/gnu/h-i686-mingw32/bin/../lib/gcc/nios2-elf/4.1.2/../../../../nios2-elf/lib/mno-hw-mul\libm.a(lib_a-s_sin.o)
 .bss           0x00180b6c        0x0 c:/altera/10.1sp1/nios2eds/bin/gnu/h-i686-mingw32/bin/../lib/gcc/nios2-elf/4.1.2/../../../../nios2-elf/lib/mno-hw-mul\libm.a(lib_a-w_sqrt.o)
 .bss           0x00180b6c        0x0 c:/altera/10.1sp1/nios2eds/bin/gnu/h-i686-mingw32/bin/../lib/gcc/nios2-elf/4.1.2/../../../../nios2-elf/lib/mno-hw-mul\libm.a(lib_a-wf_sqrt.o)
 .bss           0x00180b6c        0x0 c:/altera/10.1sp1/nios2eds/bin/gnu/h-i686-mingw32/bin/../lib/gcc/nios2-elf/4.1.2/../../../../nios2-elf/lib/mno-hw-mul\libm.a(lib_a-e_rem_pio2.o)
 .bss           0x00180b6c        0x0 c:/altera/10.1sp1/nios2eds/bin/gnu/h-i686-mingw32/bin/../lib/gcc/nios2-elf/4.1.2/../../../../nios2-elf/lib/mno-hw-mul\libm.a(lib_a-e_sqrt.o)
 .bss           0x00180b6c        0x0 c:/altera/10.1sp1/nios2eds/bin/gnu/h-i686-mingw32/bin/../lib/gcc/nios2-elf/4.1.2/../../../../nios2-elf/lib/mno-hw-mul\libm.a(lib_a-ef_sqrt.o)
 .bss           0x00180b6c        0x0 c:/altera/10.1sp1/nios2eds/bin/gnu/h-i686-mingw32/bin/../lib/gcc/nios2-elf/4.1.2/../../../../nios2-elf/lib/mno-hw-mul\libm.a(lib_a-k_cos.o)
 .bss           0x00180b6c        0x0 c:/altera/10.1sp1/nios2eds/bin/gnu/h-i686-mingw32/bin/../lib/gcc/nios2-elf/4.1.2/../../../../nios2-elf/lib/mno-hw-mul\libm.a(lib_a-k_rem_pio2.o)
 .bss           0x00180b6c        0x0 c:/altera/10.1sp1/nios2eds/bin/gnu/h-i686-mingw32/bin/../lib/gcc/nios2-elf/4.1.2/../../../../nios2-elf/lib/mno-hw-mul\libm.a(lib_a-k_sin.o)
 .bss           0x00180b6c        0x0 c:/altera/10.1sp1/nios2eds/bin/gnu/h-i686-mingw32/bin/../lib/gcc/nios2-elf/4.1.2/../../../../nios2-elf/lib/mno-hw-mul\libm.a(lib_a-s_fabs.o)
 .bss           0x00180b6c        0x0 c:/altera/10.1sp1/nios2eds/bin/gnu/h-i686-mingw32/bin/../lib/gcc/nios2-elf/4.1.2/../../../../nios2-elf/lib/mno-hw-mul\libm.a(lib_a-s_floor.o)
 .bss           0x00180b6c        0x0 c:/altera/10.1sp1/nios2eds/bin/gnu/h-i686-mingw32/bin/../lib/gcc/nios2-elf/4.1.2/../../../../nios2-elf/lib/mno-hw-mul\libm.a(lib_a-s_isnand.o)
 .bss           0x00180b6c        0x0 c:/altera/10.1sp1/nios2eds/bin/gnu/h-i686-mingw32/bin/../lib/gcc/nios2-elf/4.1.2/../../../../nios2-elf/lib/mno-hw-mul\libm.a(lib_a-s_lib_ver.o)
 .bss           0x00180b6c        0x0 c:/altera/10.1sp1/nios2eds/bin/gnu/h-i686-mingw32/bin/../lib/gcc/nios2-elf/4.1.2/../../../../nios2-elf/lib/mno-hw-mul\libm.a(lib_a-s_matherr.o)
 .bss           0x00180b6c        0x0 c:/altera/10.1sp1/nios2eds/bin/gnu/h-i686-mingw32/bin/../lib/gcc/nios2-elf/4.1.2/../../../../nios2-elf/lib/mno-hw-mul\libm.a(lib_a-s_scalbn.o)
 .bss           0x00180b6c        0x0 c:/altera/10.1sp1/nios2eds/bin/gnu/h-i686-mingw32/bin/../lib/gcc/nios2-elf/4.1.2/../../../../nios2-elf/lib/mno-hw-mul\libm.a(lib_a-sf_isnan.o)
 .bss           0x00180b6c        0x0 c:/altera/10.1sp1/nios2eds/bin/gnu/h-i686-mingw32/bin/../lib/gcc/nios2-elf/4.1.2/../../../../nios2-elf/lib/mno-hw-mul\libm.a(lib_a-s_copysign.o)
 .bss           0x00180b6c        0x0 c:/altera/10.1sp1/nios2eds/bin/gnu/h-i686-mingw32/bin/../lib/gcc/nios2-elf/4.1.2/mno-hw-mul\libgcc.a(_muldi3.o)
 .bss           0x00180b6c        0x0 c:/altera/10.1sp1/nios2eds/bin/gnu/h-i686-mingw32/bin/../lib/gcc/nios2-elf/4.1.2/mno-hw-mul\libgcc.a(_addsub_sf.o)
 .bss           0x00180b6c        0x0 c:/altera/10.1sp1/nios2eds/bin/gnu/h-i686-mingw32/bin/../lib/gcc/nios2-elf/4.1.2/mno-hw-mul\libgcc.a(_mul_sf.o)
 .bss           0x00180b6c        0x0 c:/altera/10.1sp1/nios2eds/bin/gnu/h-i686-mingw32/bin/../lib/gcc/nios2-elf/4.1.2/mno-hw-mul\libgcc.a(_div_sf.o)
 .bss           0x00180b6c        0x0 c:/altera/10.1sp1/nios2eds/bin/gnu/h-i686-mingw32/bin/../lib/gcc/nios2-elf/4.1.2/mno-hw-mul\libgcc.a(_ge_sf.o)
 .bss           0x00180b6c        0x0 c:/altera/10.1sp1/nios2eds/bin/gnu/h-i686-mingw32/bin/../lib/gcc/nios2-elf/4.1.2/mno-hw-mul\libgcc.a(_lt_sf.o)
 .bss           0x00180b6c        0x0 c:/altera/10.1sp1/nios2eds/bin/gnu/h-i686-mingw32/bin/../lib/gcc/nios2-elf/4.1.2/mno-hw-mul\libgcc.a(_si_to_sf.o)
 .bss           0x00180b6c        0x0 c:/altera/10.1sp1/nios2eds/bin/gnu/h-i686-mingw32/bin/../lib/gcc/nios2-elf/4.1.2/mno-hw-mul\libgcc.a(_sf_to_si.o)
 .bss           0x00180b6c        0x0 c:/altera/10.1sp1/nios2eds/bin/gnu/h-i686-mingw32/bin/../lib/gcc/nios2-elf/4.1.2/mno-hw-mul\libgcc.a(_sf_to_df.o)
 .bss           0x00180b6c        0x0 c:/altera/10.1sp1/nios2eds/bin/gnu/h-i686-mingw32/bin/../lib/gcc/nios2-elf/4.1.2/mno-hw-mul\libgcc.a(_thenan_sf.o)
 .bss           0x00180b6c        0x0 c:/altera/10.1sp1/nios2eds/bin/gnu/h-i686-mingw32/bin/../lib/gcc/nios2-elf/4.1.2/mno-hw-mul\libgcc.a(_addsub_df.o)
 .bss           0x00180b6c        0x0 c:/altera/10.1sp1/nios2eds/bin/gnu/h-i686-mingw32/bin/../lib/gcc/nios2-elf/4.1.2/mno-hw-mul\libgcc.a(_mul_df.o)
 .bss           0x00180b6c        0x0 c:/altera/10.1sp1/nios2eds/bin/gnu/h-i686-mingw32/bin/../lib/gcc/nios2-elf/4.1.2/mno-hw-mul\libgcc.a(_div_df.o)
 .bss           0x00180b6c        0x0 c:/altera/10.1sp1/nios2eds/bin/gnu/h-i686-mingw32/bin/../lib/gcc/nios2-elf/4.1.2/mno-hw-mul\libgcc.a(_eq_df.o)
 .bss           0x00180b6c        0x0 c:/altera/10.1sp1/nios2eds/bin/gnu/h-i686-mingw32/bin/../lib/gcc/nios2-elf/4.1.2/mno-hw-mul\libgcc.a(_gt_df.o)
 .bss           0x00180b6c        0x0 c:/altera/10.1sp1/nios2eds/bin/gnu/h-i686-mingw32/bin/../lib/gcc/nios2-elf/4.1.2/mno-hw-mul\libgcc.a(_ge_df.o)
 .bss           0x00180b6c        0x0 c:/altera/10.1sp1/nios2eds/bin/gnu/h-i686-mingw32/bin/../lib/gcc/nios2-elf/4.1.2/mno-hw-mul\libgcc.a(_lt_df.o)
 .bss           0x00180b6c        0x0 c:/altera/10.1sp1/nios2eds/bin/gnu/h-i686-mingw32/bin/../lib/gcc/nios2-elf/4.1.2/mno-hw-mul\libgcc.a(_si_to_df.o)
 .bss           0x00180b6c        0x0 c:/altera/10.1sp1/nios2eds/bin/gnu/h-i686-mingw32/bin/../lib/gcc/nios2-elf/4.1.2/mno-hw-mul\libgcc.a(_df_to_si.o)
 .bss           0x00180b6c        0x0 c:/altera/10.1sp1/nios2eds/bin/gnu/h-i686-mingw32/bin/../lib/gcc/nios2-elf/4.1.2/mno-hw-mul\libgcc.a(_make_df.o)
 .bss           0x00180b6c        0x0 c:/altera/10.1sp1/nios2eds/bin/gnu/h-i686-mingw32/bin/../lib/gcc/nios2-elf/4.1.2/mno-hw-mul\libgcc.a(_df_to_sf.o)
 .bss           0x00180b6c        0x0 c:/altera/10.1sp1/nios2eds/bin/gnu/h-i686-mingw32/bin/../lib/gcc/nios2-elf/4.1.2/mno-hw-mul\libgcc.a(_thenan_df.o)
 .bss           0x00180b6c        0x0 c:/altera/10.1sp1/nios2eds/bin/gnu/h-i686-mingw32/bin/../lib/gcc/nios2-elf/4.1.2/mno-hw-mul\libgcc.a(_usi_to_df.o)
 .bss           0x00180b6c        0x0 c:/altera/10.1sp1/nios2eds/bin/gnu/h-i686-mingw32/bin/../lib/gcc/nios2-elf/4.1.2/mno-hw-mul\libgcc.a(lib2-divmod.o)
 .bss           0x00180b6c        0x0 c:/altera/10.1sp1/nios2eds/bin/gnu/h-i686-mingw32/bin/../lib/gcc/nios2-elf/4.1.2/mno-hw-mul\libgcc.a(lib2-mul.o)
 .bss           0x00180b6c        0x0 c:/altera/10.1sp1/nios2eds/bin/gnu/h-i686-mingw32/bin/../lib/gcc/nios2-elf/4.1.2/mno-hw-mul\libgcc.a(_clzsi2.o)
 .bss           0x00180b6c        0x0 c:/altera/10.1sp1/nios2eds/bin/gnu/h-i686-mingw32/bin/../lib/gcc/nios2-elf/4.1.2/mno-hw-mul\libgcc.a(_pack_sf.o)
 .bss           0x00180b6c        0x0 c:/altera/10.1sp1/nios2eds/bin/gnu/h-i686-mingw32/bin/../lib/gcc/nios2-elf/4.1.2/mno-hw-mul\libgcc.a(_unpack_sf.o)
 .bss           0x00180b6c        0x0 c:/altera/10.1sp1/nios2eds/bin/gnu/h-i686-mingw32/bin/../lib/gcc/nios2-elf/4.1.2/mno-hw-mul\libgcc.a(_fpcmp_parts_sf.o)
 .bss           0x00180b6c        0x0 c:/altera/10.1sp1/nios2eds/bin/gnu/h-i686-mingw32/bin/../lib/gcc/nios2-elf/4.1.2/mno-hw-mul\libgcc.a(_make_sf.o)
 .bss           0x00180b6c        0x0 c:/altera/10.1sp1/nios2eds/bin/gnu/h-i686-mingw32/bin/../lib/gcc/nios2-elf/4.1.2/mno-hw-mul\libgcc.a(_pack_df.o)
 .bss           0x00180b6c        0x0 c:/altera/10.1sp1/nios2eds/bin/gnu/h-i686-mingw32/bin/../lib/gcc/nios2-elf/4.1.2/mno-hw-mul\libgcc.a(_unpack_df.o)
 .bss           0x00180b6c        0x0 c:/altera/10.1sp1/nios2eds/bin/gnu/h-i686-mingw32/bin/../lib/gcc/nios2-elf/4.1.2/mno-hw-mul\libgcc.a(_fpcmp_parts_df.o)
 .bss           0x00180b6c        0x0 c:/altera/10.1sp1/nios2eds/bin/gnu/h-i686-mingw32/bin/../lib/gcc/nios2-elf/4.1.2/mno-hw-mul\libgcc.a(_clz.o)
 .bss           0x00180b6c        0x0 c:/altera/10.1sp1/nios2eds/bin/gnu/h-i686-mingw32/bin/../lib/gcc/nios2-elf/4.1.2/../../../../nios2-elf/lib/mno-hw-mul\libc.a(lib_a-ctype_.o)
 .bss           0x00180b6c        0x0 c:/altera/10.1sp1/nios2eds/bin/gnu/h-i686-mingw32/bin/../lib/gcc/nios2-elf/4.1.2/../../../../nios2-elf/lib/mno-hw-mul\libc.a(lib_a-errno.o)
 .bss           0x00180b6c        0x0 c:/altera/10.1sp1/nios2eds/bin/gnu/h-i686-mingw32/bin/../lib/gcc/nios2-elf/4.1.2/../../../../nios2-elf/lib/mno-hw-mul\libc.a(lib_a-fprintf.o)
 .bss           0x00180b6c        0x0 c:/altera/10.1sp1/nios2eds/bin/gnu/h-i686-mingw32/bin/../lib/gcc/nios2-elf/4.1.2/../../../../nios2-elf/lib/mno-hw-mul\libc.a(lib_a-fwrite.o)
 .bss           0x00180b6c        0x0 c:/altera/10.1sp1/nios2eds/bin/gnu/h-i686-mingw32/bin/../lib/gcc/nios2-elf/4.1.2/../../../../nios2-elf/lib/mno-hw-mul\libc.a(lib_a-getc.o)
 .bss           0x00180b6c        0x0 c:/altera/10.1sp1/nios2eds/bin/gnu/h-i686-mingw32/bin/../lib/gcc/nios2-elf/4.1.2/../../../../nios2-elf/lib/mno-hw-mul\libc.a(lib_a-impure.o)
 .bss           0x00180b6c        0x0 c:/altera/10.1sp1/nios2eds/bin/gnu/h-i686-mingw32/bin/../lib/gcc/nios2-elf/4.1.2/../../../../nios2-elf/lib/mno-hw-mul\libc.a(lib_a-malign.o)
 .bss           0x00180b6c        0x0 c:/altera/10.1sp1/nios2eds/bin/gnu/h-i686-mingw32/bin/../lib/gcc/nios2-elf/4.1.2/../../../../nios2-elf/lib/mno-hw-mul\libc.a(lib_a-malignr.o)
 .bss           0x00180b6c        0x0 c:/altera/10.1sp1/nios2eds/bin/gnu/h-i686-mingw32/bin/../lib/gcc/nios2-elf/4.1.2/../../../../nios2-elf/lib/mno-hw-mul\libc.a(lib_a-malloc.o)
 .bss           0x00180b6c       0x28 c:/altera/10.1sp1/nios2eds/bin/gnu/h-i686-mingw32/bin/../lib/gcc/nios2-elf/4.1.2/../../../../nios2-elf/lib/mno-hw-mul\libc.a(lib_a-mallocr.o)
                0x00180b6c                __malloc_current_mallinfo
 .bss           0x00180b94        0x0 c:/altera/10.1sp1/nios2eds/bin/gnu/h-i686-mingw32/bin/../lib/gcc/nios2-elf/4.1.2/../../../../nios2-elf/lib/mno-hw-mul\libc.a(lib_a-memcpy.o)
 .bss           0x00180b94        0x0 c:/altera/10.1sp1/nios2eds/bin/gnu/h-i686-mingw32/bin/../lib/gcc/nios2-elf/4.1.2/../../../../nios2-elf/lib/mno-hw-mul\libc.a(lib_a-memset.o)
 .bss           0x00180b94        0x0 c:/altera/10.1sp1/nios2eds/bin/gnu/h-i686-mingw32/bin/../lib/gcc/nios2-elf/4.1.2/../../../../nios2-elf/lib/mno-hw-mul\libc.a(lib_a-perror.o)
 .bss           0x00180b94        0x0 c:/altera/10.1sp1/nios2eds/bin/gnu/h-i686-mingw32/bin/../lib/gcc/nios2-elf/4.1.2/../../../../nios2-elf/lib/mno-hw-mul\libc.a(lib_a-printf.o)
 .bss           0x00180b94        0x0 c:/altera/10.1sp1/nios2eds/bin/gnu/h-i686-mingw32/bin/../lib/gcc/nios2-elf/4.1.2/../../../../nios2-elf/lib/mno-hw-mul\libc.a(lib_a-putc.o)
 .bss           0x00180b94        0x0 c:/altera/10.1sp1/nios2eds/bin/gnu/h-i686-mingw32/bin/../lib/gcc/nios2-elf/4.1.2/../../../../nios2-elf/lib/mno-hw-mul\libc.a(lib_a-putchar.o)
 .bss           0x00180b94        0x0 c:/altera/10.1sp1/nios2eds/bin/gnu/h-i686-mingw32/bin/../lib/gcc/nios2-elf/4.1.2/../../../../nios2-elf/lib/mno-hw-mul\libc.a(lib_a-puts.o)
 .bss           0x00180b94        0x0 c:/altera/10.1sp1/nios2eds/bin/gnu/h-i686-mingw32/bin/../lib/gcc/nios2-elf/4.1.2/../../../../nios2-elf/lib/mno-hw-mul\libc.a(lib_a-rget.o)
 .bss           0x00180b94        0x0 c:/altera/10.1sp1/nios2eds/bin/gnu/h-i686-mingw32/bin/../lib/gcc/nios2-elf/4.1.2/../../../../nios2-elf/lib/mno-hw-mul\libc.a(lib_a-sbrkr.o)
 .bss           0x00180b94        0x0 c:/altera/10.1sp1/nios2eds/bin/gnu/h-i686-mingw32/bin/../lib/gcc/nios2-elf/4.1.2/../../../../nios2-elf/lib/mno-hw-mul\libc.a(lib_a-sprintf.o)
 .bss           0x00180b94        0x0 c:/altera/10.1sp1/nios2eds/bin/gnu/h-i686-mingw32/bin/../lib/gcc/nios2-elf/4.1.2/../../../../nios2-elf/lib/mno-hw-mul\libc.a(lib_a-strcpy.o)
 .bss           0x00180b94        0x0 c:/altera/10.1sp1/nios2eds/bin/gnu/h-i686-mingw32/bin/../lib/gcc/nios2-elf/4.1.2/../../../../nios2-elf/lib/mno-hw-mul\libc.a(lib_a-strerror.o)
 .bss           0x00180b94        0x0 c:/altera/10.1sp1/nios2eds/bin/gnu/h-i686-mingw32/bin/../lib/gcc/nios2-elf/4.1.2/../../../../nios2-elf/lib/mno-hw-mul\libc.a(lib_a-strlen.o)
 .bss           0x00180b94        0x0 c:/altera/10.1sp1/nios2eds/bin/gnu/h-i686-mingw32/bin/../lib/gcc/nios2-elf/4.1.2/../../../../nios2-elf/lib/mno-hw-mul\libc.a(lib_a-u_strerr.o)
 .bss           0x00180b94        0x0 c:/altera/10.1sp1/nios2eds/bin/gnu/h-i686-mingw32/bin/../lib/gcc/nios2-elf/4.1.2/../../../../nios2-elf/lib/mno-hw-mul\libc.a(lib_a-vfprintf.o)
 .bss           0x00180b94        0x0 c:/altera/10.1sp1/nios2eds/bin/gnu/h-i686-mingw32/bin/../lib/gcc/nios2-elf/4.1.2/../../../../nios2-elf/lib/mno-hw-mul\libc.a(lib_a-wbuf.o)
 .bss           0x00180b94        0x0 c:/altera/10.1sp1/nios2eds/bin/gnu/h-i686-mingw32/bin/../lib/gcc/nios2-elf/4.1.2/../../../../nios2-elf/lib/mno-hw-mul\libc.a(lib_a-wsetup.o)
 .bss           0x00180b94        0x0 c:/altera/10.1sp1/nios2eds/bin/gnu/h-i686-mingw32/bin/../lib/gcc/nios2-elf/4.1.2/../../../../nios2-elf/lib/mno-hw-mul\libc.a(lib_a-dtoa.o)
 .bss           0x00180b94        0x0 c:/altera/10.1sp1/nios2eds/bin/gnu/h-i686-mingw32/bin/../lib/gcc/nios2-elf/4.1.2/../../../../nios2-elf/lib/mno-hw-mul\libc.a(lib_a-fflush.o)
 .bss           0x00180b94        0x0 c:/altera/10.1sp1/nios2eds/bin/gnu/h-i686-mingw32/bin/../lib/gcc/nios2-elf/4.1.2/../../../../nios2-elf/lib/mno-hw-mul\libc.a(lib_a-findfp.o)
 .bss           0x00180b94        0x0 c:/altera/10.1sp1/nios2eds/bin/gnu/h-i686-mingw32/bin/../lib/gcc/nios2-elf/4.1.2/../../../../nios2-elf/lib/mno-hw-mul\libc.a(lib_a-fputc.o)
 .bss           0x00180b94        0x0 c:/altera/10.1sp1/nios2eds/bin/gnu/h-i686-mingw32/bin/../lib/gcc/nios2-elf/4.1.2/../../../../nios2-elf/lib/mno-hw-mul\libc.a(lib_a-fputs.o)
 .bss           0x00180b94        0x0 c:/altera/10.1sp1/nios2eds/bin/gnu/h-i686-mingw32/bin/../lib/gcc/nios2-elf/4.1.2/../../../../nios2-elf/lib/mno-hw-mul\libc.a(lib_a-freer.o)
 .bss           0x00180b94        0x0 c:/altera/10.1sp1/nios2eds/bin/gnu/h-i686-mingw32/bin/../lib/gcc/nios2-elf/4.1.2/../../../../nios2-elf/lib/mno-hw-mul\libc.a(lib_a-fvwrite.o)
 .bss           0x00180b94        0x0 c:/altera/10.1sp1/nios2eds/bin/gnu/h-i686-mingw32/bin/../lib/gcc/nios2-elf/4.1.2/../../../../nios2-elf/lib/mno-hw-mul\libc.a(lib_a-fwalk.o)
 .bss           0x00180b94        0x0 c:/altera/10.1sp1/nios2eds/bin/gnu/h-i686-mingw32/bin/../lib/gcc/nios2-elf/4.1.2/../../../../nios2-elf/lib/mno-hw-mul\libc.a(lib_a-int_errno.o)
 .bss           0x00180b94        0x0 c:/altera/10.1sp1/nios2eds/bin/gnu/h-i686-mingw32/bin/../lib/gcc/nios2-elf/4.1.2/../../../../nios2-elf/lib/mno-hw-mul\libc.a(lib_a-locale.o)
 .bss           0x00180b94        0x0 c:/altera/10.1sp1/nios2eds/bin/gnu/h-i686-mingw32/bin/../lib/gcc/nios2-elf/4.1.2/../../../../nios2-elf/lib/mno-hw-mul\libc.a(lib_a-makebuf.o)
 .bss           0x00180b94        0x0 c:/altera/10.1sp1/nios2eds/bin/gnu/h-i686-mingw32/bin/../lib/gcc/nios2-elf/4.1.2/../../../../nios2-elf/lib/mno-hw-mul\libc.a(lib_a-memchr.o)
 .bss           0x00180b94        0x0 c:/altera/10.1sp1/nios2eds/bin/gnu/h-i686-mingw32/bin/../lib/gcc/nios2-elf/4.1.2/../../../../nios2-elf/lib/mno-hw-mul\libc.a(lib_a-memmove.o)
 .bss           0x00180b94        0x0 c:/altera/10.1sp1/nios2eds/bin/gnu/h-i686-mingw32/bin/../lib/gcc/nios2-elf/4.1.2/../../../../nios2-elf/lib/mno-hw-mul\libc.a(lib_a-mprec.o)
 .bss           0x00180b94        0x0 c:/altera/10.1sp1/nios2eds/bin/gnu/h-i686-mingw32/bin/../lib/gcc/nios2-elf/4.1.2/../../../../nios2-elf/lib/mno-hw-mul\libc.a(lib_a-reallocr.o)
 .bss           0x00180b94        0x0 c:/altera/10.1sp1/nios2eds/bin/gnu/h-i686-mingw32/bin/../lib/gcc/nios2-elf/4.1.2/../../../../nios2-elf/lib/mno-hw-mul\libc.a(lib_a-refill.o)
 .bss           0x00180b94        0x0 c:/altera/10.1sp1/nios2eds/bin/gnu/h-i686-mingw32/bin/../lib/gcc/nios2-elf/4.1.2/../../../../nios2-elf/lib/mno-hw-mul\libc.a(lib_a-s_isinfd.o)
 .bss           0x00180b94        0x0 c:/altera/10.1sp1/nios2eds/bin/gnu/h-i686-mingw32/bin/../lib/gcc/nios2-elf/4.1.2/../../../../nios2-elf/lib/mno-hw-mul\libc.a(lib_a-stdio.o)
 .bss           0x00180b94        0x0 c:/altera/10.1sp1/nios2eds/bin/gnu/h-i686-mingw32/bin/../lib/gcc/nios2-elf/4.1.2/../../../../nios2-elf/lib/mno-hw-mul\libc.a(lib_a-strcmp.o)
 .bss           0x00180b94        0x0 c:/altera/10.1sp1/nios2eds/bin/gnu/h-i686-mingw32/bin/../lib/gcc/nios2-elf/4.1.2/../../../../nios2-elf/lib/mno-hw-mul\libc.a(lib_a-writer.o)
 .bss           0x00180b94        0x0 c:/altera/10.1sp1/nios2eds/bin/gnu/h-i686-mingw32/bin/../lib/gcc/nios2-elf/4.1.2/../../../../nios2-elf/lib/mno-hw-mul\libc.a(lib_a-callocr.o)
 .bss           0x00180b94        0x0 c:/altera/10.1sp1/nios2eds/bin/gnu/h-i686-mingw32/bin/../lib/gcc/nios2-elf/4.1.2/../../../../nios2-elf/lib/mno-hw-mul\libc.a(lib_a-closer.o)
 .bss           0x00180b94        0x0 c:/altera/10.1sp1/nios2eds/bin/gnu/h-i686-mingw32/bin/../lib/gcc/nios2-elf/4.1.2/../../../../nios2-elf/lib/mno-hw-mul\libc.a(lib_a-fclose.o)
 .bss           0x00180b94        0x0 c:/altera/10.1sp1/nios2eds/bin/gnu/h-i686-mingw32/bin/../lib/gcc/nios2-elf/4.1.2/../../../../nios2-elf/lib/mno-hw-mul\libc.a(lib_a-fstatr.o)
 .bss           0x00180b94        0x0 c:/altera/10.1sp1/nios2eds/bin/gnu/h-i686-mingw32/bin/../lib/gcc/nios2-elf/4.1.2/../../../../nios2-elf/lib/mno-hw-mul\libc.a(lib_a-isattyr.o)
 .bss           0x00180b94        0x0 c:/altera/10.1sp1/nios2eds/bin/gnu/h-i686-mingw32/bin/../lib/gcc/nios2-elf/4.1.2/../../../../nios2-elf/lib/mno-hw-mul\libc.a(lib_a-lseekr.o)
 .bss           0x00180b94        0x0 c:/altera/10.1sp1/nios2eds/bin/gnu/h-i686-mingw32/bin/../lib/gcc/nios2-elf/4.1.2/../../../../nios2-elf/lib/mno-hw-mul\libc.a(lib_a-readr.o)
 .bss           0x00180b94        0x0 c:/altera/10.1sp1/nios2eds/bin/gnu/h-i686-mingw32/bin/../lib/gcc/nios2-elf/4.1.2/mno-hw-mul\libgcc.a(_udivdi3.o)
 .bss           0x00180b94        0x0 c:/altera/10.1sp1/nios2eds/bin/gnu/h-i686-mingw32/bin/../lib/gcc/nios2-elf/4.1.2/mno-hw-mul\libgcc.a(_umoddi3.o)
 .bss           0x00180b94        0x0 c:/altera/10.1sp1/nios2eds/bin/gnu/h-i686-mingw32/bin/../lib/gcc/nios2-elf/4.1.2/mno-hw-mul\libgcc.a(_ne_df.o)
 .bss           0x00180b94        0x0 ../RedeFFTHW_bsp\libucosii_bsp.a(alt_fstat.o)
 .bss           0x00180b94        0x0 ../RedeFFTHW_bsp\libucosii_bsp.a(alt_isatty.o)
 .bss           0x00180b94        0x0 ../RedeFFTHW_bsp\libucosii_bsp.a(alt_load.o)
 .bss           0x00180b94        0x0 ../RedeFFTHW_bsp\libucosii_bsp.a(alt_lseek.o)
 .bss           0x00180b94        0x0 ../RedeFFTHW_bsp\libucosii_bsp.a(alt_main.o)
 .bss           0x00180b94        0x0 ../RedeFFTHW_bsp\libucosii_bsp.a(alt_remap_cached.o)
 .bss           0x00180b94        0x0 ../RedeFFTHW_bsp\libucosii_bsp.a(alt_remap_uncached.o)
 .bss           0x00180b94        0x0 ../RedeFFTHW_bsp\libucosii_bsp.a(alt_sbrk.o)
 .bss           0x00180b94        0x0 ../RedeFFTHW_bsp\libucosii_bsp.a(alt_tick.o)
 .bss           0x00180b94        0x0 ../RedeFFTHW_bsp\libucosii_bsp.a(alt_uncached_malloc.o)
 .bss           0x00180b94        0x0 ../RedeFFTHW_bsp\libucosii_bsp.a(alt_usleep.o)
 .bss           0x00180b94        0x0 ../RedeFFTHW_bsp\libucosii_bsp.a(alt_env_lock.o)
 .bss           0x00180b94        0x0 ../RedeFFTHW_bsp\libucosii_bsp.a(alt_malloc_lock.o)
 .bss           0x00180b94        0x0 ../RedeFFTHW_bsp\libucosii_bsp.a(os_core.o)
 .bss           0x00180b94        0x0 ../RedeFFTHW_bsp\libucosii_bsp.a(os_dbg.o)
 .bss           0x00180b94        0x0 ../RedeFFTHW_bsp\libucosii_bsp.a(os_flag.o)
 .bss           0x00180b94        0x0 ../RedeFFTHW_bsp\libucosii_bsp.a(os_mem.o)
 .bss           0x00180b94        0x0 ../RedeFFTHW_bsp\libucosii_bsp.a(os_q.o)
 .bss           0x00180b94        0x0 ../RedeFFTHW_bsp\libucosii_bsp.a(os_sem.o)
 .bss           0x00180b94        0x0 ../RedeFFTHW_bsp\libucosii_bsp.a(os_task.o)
 .bss           0x00180b94        0x0 ../RedeFFTHW_bsp\libucosii_bsp.a(os_time.o)
 .bss           0x00180b94        0x0 ../RedeFFTHW_bsp\libucosii_bsp.a(alt_sys_init.o)
 .bss           0x00180b94        0x0 ../RedeFFTHW_bsp\libucosii_bsp.a(altera_avalon_jtag_uart_fd.o)
 .bss           0x00180b94        0x0 ../RedeFFTHW_bsp\libucosii_bsp.a(altera_avalon_jtag_uart_init.o)
 .bss           0x00180b94        0x0 ../RedeFFTHW_bsp\libucosii_bsp.a(altera_avalon_jtag_uart_ioctl.o)
 .bss           0x00180b94        0x0 ../RedeFFTHW_bsp\libucosii_bsp.a(altera_avalon_jtag_uart_read.o)
 .bss           0x00180b94        0x0 ../RedeFFTHW_bsp\libucosii_bsp.a(altera_avalon_jtag_uart_write.o)
 .bss           0x00180b94        0x0 ../RedeFFTHW_bsp\libucosii_bsp.a(altera_avalon_sgdma.o)
 .bss           0x00180b94        0x0 ../RedeFFTHW_bsp\libucosii_bsp.a(altera_avalon_timer_sc.o)
 .bss           0x00180b94        0x0 ../RedeFFTHW_bsp\libucosii_bsp.a(ins_tse_mac.o)
 .bss           0x00180b94        0x0 ../RedeFFTHW_bsp\libucosii_bsp.a(perf_print_formatted_report.o)
 .bss           0x00180b94        0x0 ../RedeFFTHW_bsp\libucosii_bsp.a(alt_iniche_close.o)
 .bss           0x00180b94        0x0 ../RedeFFTHW_bsp\libucosii_bsp.a(alt_iniche_dev.o)
 .bss           0x00180b94        0x0 ../RedeFFTHW_bsp\libucosii_bsp.a(alt_iniche_read.o)
 .bss           0x00180b94        0x0 ../RedeFFTHW_bsp\libucosii_bsp.a(alt_iniche_write.o)
 .bss           0x00180b94        0x0 ../RedeFFTHW_bsp\libucosii_bsp.a(ipnet.o)
 .bss           0x00180b94       0x3c ../RedeFFTHW_bsp\libucosii_bsp.a(ipstart.o)
 .bss           0x00180bd0        0x0 ../RedeFFTHW_bsp\libucosii_bsp.a(igmp_cmn.o)
 .bss           0x00180bd0        0x0 ../RedeFFTHW_bsp\libucosii_bsp.a(bsdsock.o)
 .bss           0x00180bd0        0x0 ../RedeFFTHW_bsp\libucosii_bsp.a(cksum.o)
 .bss           0x00180bd0       0x18 ../RedeFFTHW_bsp\libucosii_bsp.a(in_utils.o)
 .bss           0x00180be8        0x0 ../RedeFFTHW_bsp\libucosii_bsp.a(netmain.o)
 .bss           0x00180be8        0x0 ../RedeFFTHW_bsp\libucosii_bsp.a(tk_crnos.o)
 .bss           0x00180be8        0x0 ../RedeFFTHW_bsp\libucosii_bsp.a(dhcpclnt.o)
 .bss           0x00180be8        0x0 ../RedeFFTHW_bsp\libucosii_bsp.a(dhcputil.o)
 .bss           0x00180be8        0x0 ../RedeFFTHW_bsp\libucosii_bsp.a(pktalloc.o)
 .bss           0x00180be8        0x0 ../RedeFFTHW_bsp\libucosii_bsp.a(q.o)
 .bss           0x00180be8        0x0 ../RedeFFTHW_bsp\libucosii_bsp.a(udp_open.o)
 .bss           0x00180be8        0x0 ../RedeFFTHW_bsp\libucosii_bsp.a(asm_cksum.o)
 .bss           0x00180be8        0x0 ../RedeFFTHW_bsp\libucosii_bsp.a(brdutils.o)
 .bss           0x00180be8        0x0 ../RedeFFTHW_bsp\libucosii_bsp.a(osportco.o)
 .bss           0x00180be8        0x0 ../RedeFFTHW_bsp\libucosii_bsp.a(targnios.o)
 .bss           0x00180be8        0x0 ../RedeFFTHW_bsp\libucosii_bsp.a(nptcp.o)
 .bss           0x00180be8        0x0 ../RedeFFTHW_bsp\libucosii_bsp.a(rawsock.o)
 .bss           0x00180be8        0x0 ../RedeFFTHW_bsp\libucosii_bsp.a(sockcall.o)
 .bss           0x00180be8        0x0 ../RedeFFTHW_bsp\libucosii_bsp.a(socket.o)
 .bss           0x00180be8        0x0 ../RedeFFTHW_bsp\libucosii_bsp.a(socket2.o)
 .bss           0x00180be8        0x0 ../RedeFFTHW_bsp\libucosii_bsp.a(soselect.o)
 .bss           0x00180be8        0x0 ../RedeFFTHW_bsp\libucosii_bsp.a(tcp_in.o)
 .bss           0x00180be8        0x0 ../RedeFFTHW_bsp\libucosii_bsp.a(tcp_out.o)
 .bss           0x00180be8        0x0 ../RedeFFTHW_bsp\libucosii_bsp.a(tcp_subr.o)
 .bss           0x00180be8        0x0 ../RedeFFTHW_bsp\libucosii_bsp.a(tcp_timr.o)
 .bss           0x00180be8        0x0 ../RedeFFTHW_bsp\libucosii_bsp.a(tcp_usr.o)
 .bss           0x00180be8        0x0 ../RedeFFTHW_bsp\libucosii_bsp.a(tcpport.o)
 .bss           0x00180be8        0x0 ../RedeFFTHW_bsp\libucosii_bsp.a(udpsock.o)
 .bss           0x00180be8        0x0 ../RedeFFTHW_bsp\libucosii_bsp.a(alt_alarm_start.o)
 .bss           0x00180be8        0x0 ../RedeFFTHW_bsp\libucosii_bsp.a(alt_busy_sleep.o)
 .bss           0x00180be8        0x0 ../RedeFFTHW_bsp\libucosii_bsp.a(alt_close.o)
 .bss           0x00180be8        0x0 ../RedeFFTHW_bsp\libucosii_bsp.a(alt_dcache_flush.o)
 .bss           0x00180be8        0x0 ../RedeFFTHW_bsp\libucosii_bsp.a(alt_dcache_flush_all.o)
 .bss           0x00180be8        0x0 ../RedeFFTHW_bsp\libucosii_bsp.a(alt_dev.o)
 .bss           0x00180be8        0x0 ../RedeFFTHW_bsp\libucosii_bsp.a(alt_dev_llist_insert.o)
 .bss           0x00180be8        0x0 ../RedeFFTHW_bsp\libucosii_bsp.a(alt_do_ctors.o)
 .bss           0x00180be8        0x0 ../RedeFFTHW_bsp\libucosii_bsp.a(alt_do_dtors.o)
 .bss           0x00180be8        0x0 ../RedeFFTHW_bsp\libucosii_bsp.a(alt_errno.o)
 .bss           0x00180be8        0x0 ../RedeFFTHW_bsp\libucosii_bsp.a(alt_find_dev.o)
 .bss           0x00180be8        0x0 ../RedeFFTHW_bsp\libucosii_bsp.a(alt_icache_flush_all.o)
 .bss           0x00180be8        0x0 ../RedeFFTHW_bsp\libucosii_bsp.a(alt_iic.o)
 .bss           0x00180be8        0x0 ../RedeFFTHW_bsp\libucosii_bsp.a(alt_iic_isr_register.o)
 .bss           0x00180be8        0x0 ../RedeFFTHW_bsp\libucosii_bsp.a(alt_io_redirect.o)
 .bss           0x00180be8        0x0 ../RedeFFTHW_bsp\libucosii_bsp.a(alt_irq_entry.o)
 .bss           0x00180be8        0x0 ../RedeFFTHW_bsp\libucosii_bsp.a(alt_irq_handler.o)
 .bss           0x00180be8        0x0 ../RedeFFTHW_bsp\libucosii_bsp.a(alt_irq_vars.o)
 .bss           0x00180be8        0x0 ../RedeFFTHW_bsp\libucosii_bsp.a(alt_open.o)
 .bss           0x00180be8        0x0 ../RedeFFTHW_bsp\libucosii_bsp.a(alt_read.o)
 .bss           0x00180be8        0x0 ../RedeFFTHW_bsp\libucosii_bsp.a(alt_release_fd.o)
 .bss           0x00180be8        0x0 ../RedeFFTHW_bsp\libucosii_bsp.a(alt_write.o)
 .bss           0x00180be8        0x0 ../RedeFFTHW_bsp\libucosii_bsp.a(altera_nios2_irq.o)
 .bss           0x00180be8        0x0 ../RedeFFTHW_bsp\libucosii_bsp.a(os_cpu_a.o)
 .bss           0x00180be8        0x0 ../RedeFFTHW_bsp\libucosii_bsp.a(os_cpu_c.o)
 .bss           0x00180be8        0x0 ../RedeFFTHW_bsp\libucosii_bsp.a(altera_avalon_performance_counter.o)
 .bss           0x00180be8        0x0 ../RedeFFTHW_bsp\libucosii_bsp.a(altera_avalon_tse.o)
 .bss           0x00180be8        0x0 ../RedeFFTHW_bsp\libucosii_bsp.a(altera_avalon_tse_system_info.o)
 .bss           0x00180be8        0x0 ../RedeFFTHW_bsp\libucosii_bsp.a(allports.o)
 .bss           0x00180be8        0x0 ../RedeFFTHW_bsp\libucosii_bsp.a(timeouts.o)
 .bss           0x00180be8        0x0 ../RedeFFTHW_bsp\libucosii_bsp.a(tk_misc.o)
 .bss           0x00180be8        0x0 ../RedeFFTHW_bsp\libucosii_bsp.a(alt_iniche_fcntl.o)
 .bss           0x00180be8        0x0 ../RedeFFTHW_bsp\libucosii_bsp.a(et_arp.o)
 .bss           0x00180be8        0x0 ../RedeFFTHW_bsp\libucosii_bsp.a(iface.o)
 .bss           0x00180be8        0x0 ../RedeFFTHW_bsp\libucosii_bsp.a(ip.o)
 .bss           0x00180be8        0x0 ../RedeFFTHW_bsp\libucosii_bsp.a(ip_reasm.o)
 .bss           0x00180be8        0x0 ../RedeFFTHW_bsp\libucosii_bsp.a(ipdemux.o)
 .bss           0x00180be8        0x0 ../RedeFFTHW_bsp\libucosii_bsp.a(ipmc.o)
 .bss           0x00180be8        0x0 ../RedeFFTHW_bsp\libucosii_bsp.a(ipport.o)
 .bss           0x00180be8        0x0 ../RedeFFTHW_bsp\libucosii_bsp.a(ipraw.o)
 .bss           0x00180be8        0x0 ../RedeFFTHW_bsp\libucosii_bsp.a(iproute.o)
 .bss           0x00180be8        0x0 ../RedeFFTHW_bsp\libucosii_bsp.a(udp.o)
 .bss           0x00180be8        0x0 ../RedeFFTHW_bsp\libucosii_bsp.a(igmp.o)
 .bss           0x00180be8        0x0 ../RedeFFTHW_bsp\libucosii_bsp.a(igmp2.o)
 .bss           0x00180be8        0x0 ../RedeFFTHW_bsp\libucosii_bsp.a(ipopt.o)
 .bss           0x00180be8        0x0 ../RedeFFTHW_bsp\libucosii_bsp.a(u_mctest.o)
 .bss           0x00180be8        0x0 ../RedeFFTHW_bsp\libucosii_bsp.a(dhcsetup.o)
 .bss           0x00180be8        0x0 ../RedeFFTHW_bsp\libucosii_bsp.a(memdev.o)
 .bss           0x00180be8       0x1e ../RedeFFTHW_bsp\libucosii_bsp.a(parseip.o)
 .bss           0x00180c06        0x0 ../RedeFFTHW_bsp\libucosii_bsp.a(tcpcksum.o)
 .bss           0x00180c06        0x0 ../RedeFFTHW_bsp\libucosii_bsp.a(in_pcb.o)
 .bss           0x00180c06        0x0 ../RedeFFTHW_bsp\libucosii_bsp.a(vfsfiles.o)
 .bss           0x00180c06        0x0 ../RedeFFTHW_bsp\libucosii_bsp.a(vfsport.o)
 .bss           0x00180c06        0x0 ../RedeFFTHW_bsp\libucosii_bsp.a(alt_exception_entry.o)
 .bss           0x00180c06        0x0 ../RedeFFTHW_bsp\libucosii_bsp.a(alt_fcntl.o)
 .bss           0x00180c06        0x0 ../RedeFFTHW_bsp\libucosii_bsp.a(alt_find_file.o)
 .bss           0x00180c06        0x0 ../RedeFFTHW_bsp\libucosii_bsp.a(alt_get_fd.o)
 .bss           0x00180c06        0x0 ../RedeFFTHW_bsp\libucosii_bsp.a(icmp.o)
 .bss           0x00180c06        0x0 c:/altera/10.1sp1/nios2eds/bin/gnu/h-i686-mingw32/bin/../lib/gcc/nios2-elf/4.1.2/../../../../nios2-elf/lib/mno-hw-mul\libc.a(lib_a-atexit.o)
 .bss           0x00180c06        0x0 c:/altera/10.1sp1/nios2eds/bin/gnu/h-i686-mingw32/bin/../lib/gcc/nios2-elf/4.1.2/../../../../nios2-elf/lib/mno-hw-mul\libc.a(lib_a-atoi.o)
 .bss           0x00180c06        0x0 c:/altera/10.1sp1/nios2eds/bin/gnu/h-i686-mingw32/bin/../lib/gcc/nios2-elf/4.1.2/../../../../nios2-elf/lib/mno-hw-mul\libc.a(lib_a-calloc.o)
 .bss           0x00180c06        0x0 c:/altera/10.1sp1/nios2eds/bin/gnu/h-i686-mingw32/bin/../lib/gcc/nios2-elf/4.1.2/../../../../nios2-elf/lib/mno-hw-mul\libc.a(lib_a-exit.o)
 .bss           0x00180c06        0x0 c:/altera/10.1sp1/nios2eds/bin/gnu/h-i686-mingw32/bin/../lib/gcc/nios2-elf/4.1.2/../../../../nios2-elf/lib/mno-hw-mul\libc.a(lib_a-memcmp.o)
 .bss           0x00180c06        0x0 c:/altera/10.1sp1/nios2eds/bin/gnu/h-i686-mingw32/bin/../lib/gcc/nios2-elf/4.1.2/../../../../nios2-elf/lib/mno-hw-mul\libc.a(lib_a-strchr.o)
 .bss           0x00180c06        0x0 c:/altera/10.1sp1/nios2eds/bin/gnu/h-i686-mingw32/bin/../lib/gcc/nios2-elf/4.1.2/../../../../nios2-elf/lib/mno-hw-mul\libc.a(lib_a-strncmp.o)
 .bss           0x00180c06        0x0 c:/altera/10.1sp1/nios2eds/bin/gnu/h-i686-mingw32/bin/../lib/gcc/nios2-elf/4.1.2/../../../../nios2-elf/lib/mno-hw-mul\libc.a(lib_a-strncpy.o)
 .bss           0x00180c06        0x0 c:/altera/10.1sp1/nios2eds/bin/gnu/h-i686-mingw32/bin/../lib/gcc/nios2-elf/4.1.2/../../../../nios2-elf/lib/mno-hw-mul\libc.a(lib_a-strtol.o)
 .bss           0x00180c06        0x0 c:/altera/10.1sp1/nios2eds/bin/gnu/h-i686-mingw32/bin/../lib/gcc/nios2-elf/4.1.2/../../../../nios2-elf/lib/mno-hw-mul\libc.a(lib_a-vprintf.o)
 .bss           0x00180c06        0x0 c:/altera/10.1sp1/nios2eds/bin/gnu/h-i686-mingw32/bin/../lib/gcc/nios2-elf/4.1.2/../../../../nios2-elf/lib/mno-hw-mul\libc.a(lib_a-vsprintf.o)
 .bss           0x00180c06        0x0 c:/altera/10.1sp1/nios2eds/bin/gnu/h-i686-mingw32/bin/../lib/gcc/nios2-elf/4.1.2/../../../../nios2-elf/lib/mno-hw-mul\libc.a(lib_a-__atexit.o)
 .bss           0x00180c06        0x0 c:/altera/10.1sp1/nios2eds/bin/gnu/h-i686-mingw32/bin/../lib/gcc/nios2-elf/4.1.2/../../../../nios2-elf/lib/mno-hw-mul\libc.a(lib_a-__call_atexit.o)
 .bss           0x00180c06        0x0 c:/altera/10.1sp1/nios2eds/bin/gnu/h-i686-mingw32/bin/../lib/gcc/nios2-elf/4.1.2/mno-hw-mul\libgcc.a(_floatundidf.o)
 .bss           0x00180c06        0x0 ../RedeFFTHW_bsp\libucosii_bsp.a(alt_exit.o)
 *(COMMON)
 *fill*         0x00180c06        0x2 00
 COMMON         0x00180c08      0xb00 obj/AquisicaoRede.o
                0x00180c08                btnF4
                0x00180c60                btnF2
                0x00180cb8                grpFrequencia
                0x00180d0c                lblConex
                0x00180d48                btnF1
                0x00180da0                lblAquisicaoTitulo
                0x00180ddc                DadosFFT
                0x00180fdc                boxMenuTitulo
                0x00181028                lblIP
                0x00181064                boxBarraStatus
                0x001810b0                grpTempo
                0x00181104                Tempo_Dados
                0x00181304                Aquisicao
                0x00181354                lblPorta
                0x00181390                btnFecharAquis
                0x001813e8                Aquisicao_Buttons
                0x00181400                lblStatus
                0x0018143c                Aquisicao_Boxes
                0x0018144c                boxBarraFerramentas
                0x00181498                Frequencia_Dados
                0x00181698                Aquisicao_Labels
                0x001816b0                btnF3
 COMMON         0x00181708      0x12c obj/DanWindow/DanWindow.o
                0x00181708                touchscreen
                0x00181828                lcd
 COMMON         0x00181834      0x5cc obj/LCDTask.o
                0x00181834                boxMenuItem3
                0x00181880                lblMenuItem1
                0x001818bc                boxMenuItem0
                0x00181908                boxMessage
                0x00181954                lblHora
                0x00181990                boxMessageTitle
                0x001819dc                boxMenuItem2
                0x00181a28                Desktop_Boxes
                0x00181a48                lblMenuItem2
                0x00181a84                Desktop
                0x00181ad4                lblMessageTitle
                0x00181b10                lblMenuItem0
                0x00181b4c                Desktop_Labels
                0x00181b68                boxFundoMenu
                0x00181bb4                lblMessage
                0x00181bf0                btnIniciar
                0x00181c48                boxMenuItem1
                0x00181c94                imgPlanoFundo
                0x00181cd4                boxBandeja
                0x00181d20                boxBarraTarefas
                0x00181d6c                lblMenuItem3
                0x00181da8                btnMessage
 COMMON         0x00181e00      0x1b8 obj/TerminalSerial.o
                0x00181e00                lblLinha1TermSerial
                0x00181e3c                boxPainelTermSerial
                0x00181e88                TerminalSerial
                0x00181ed8                boxTituloTermSerial
                0x00181f24                btnFecharTermSerial
                0x00181f7c                lblTerminalSerialTitulo
 COMMON         0x00181fb8     0x2000 obj/iniche_init.o
                0x00181fb8                SSSInitialTaskStk
 COMMON         0x00183fb8     0xe684 obj/simple_socket_server.o
                0x00183fb8                socket_sender_task_stk
                0x00185fb8                socket_result_sender_task_stk
                0x00187fb8                aquisicao_task1_stk
                0x00188fb8                buffer_rx
                0x00189f58                bufferDADOS
                0x0018aef8                buffer_tx
                0x0018be98                lcd_task_stk
                0x0018de98                socket_receiver_task_stk
                0x0018fe98                timer_task_stk
                0x00190698                pacote
                0x0019163c                aquisicao_task_stk
 COMMON         0x0019263c     0x3224 ../RedeFFTHW_bsp\libucosii_bsp.a(os_core.o)
                0x0019263c                OSFlagTbl
                0x001929ac                OSMemTbl
                0x001935dc                OSTaskStatStk
                0x00193ddc                OSQTbl
                0x00193fbc                OSTaskIdleStk
                0x001947bc                OSEventTbl
                0x001952fc                OSTCBTbl
                0x0019580c                OSTCBPrioTbl
 COMMON         0x00195860       0xe0 ../RedeFFTHW_bsp\libucosii_bsp.a(alt_sys_init.o)
                0x00195860                tse_mac_if
 COMMON         0x00195940      0x160 ../RedeFFTHW_bsp\libucosii_bsp.a(ins_tse_mac.o)
                0x00195940                tse_iniche_dev_driver_data
                0x00195970                tse
 COMMON         0x00195aa0       0x14 ../RedeFFTHW_bsp\libucosii_bsp.a(ipnet.o)
                0x00195aa0                rcvdq
 COMMON         0x00195ab4      0x310 ../RedeFFTHW_bsp\libucosii_bsp.a(ipstart.o)
                0x00195ab4                netstatic
                0x00195db4                nets
 COMMON         0x00195dc4       0x64 ../RedeFFTHW_bsp\libucosii_bsp.a(igmp_cmn.o)
                0x00195dc4                igmpstats
 COMMON         0x00195e28       0x24 ../RedeFFTHW_bsp\libucosii_bsp.a(in_utils.o)
                0x00195e28                eth_prt_buf
                0x00195e3a                ipreturn
 COMMON         0x00195e4c       0xf0 ../RedeFFTHW_bsp\libucosii_bsp.a(dhcpclnt.o)
                0x00195e4c                dhc_states
 COMMON         0x00195f3c      0x128 ../RedeFFTHW_bsp\libucosii_bsp.a(pktalloc.o)
                0x00195f3c                lilfreeq
                0x00195f50                memestats
                0x00195f60                pktlog
                0x00196050                bigfreeq
 COMMON         0x00196064      0x1ec ../RedeFFTHW_bsp\libucosii_bsp.a(osportco.o)
                0x00196064                global_tcb_ext
                0x00196160                global_TCPwakeup_set
 COMMON         0x00196250       0x58 ../RedeFFTHW_bsp\libucosii_bsp.a(targnios.o)
                0x00196250                resid_semaphore
                0x00196290                app_semaphore
 COMMON         0x001962a8       0x78 ../RedeFFTHW_bsp\libucosii_bsp.a(nptcp.o)
                0x001962a8                soq
                0x001962bc                tcpmib
                0x001962f8                mbufq
                0x0019630c                mfreeq
 COMMON         0x00196320       0x28 ../RedeFFTHW_bsp\libucosii_bsp.a(tcp_in.o)
                0x00196320                tcp_saveti
 COMMON         0x00196348      0x10c ../RedeFFTHW_bsp\libucosii_bsp.a(tcp_subr.o)
                0x00196348                tcb
                0x00196374                tcpstat
 COMMON         0x00196454      0x100 ../RedeFFTHW_bsp\libucosii_bsp.a(alt_irq_handler.o)
                0x00196454                alt_irq
 COMMON         0x00196554       0x20 ../RedeFFTHW_bsp\libucosii_bsp.a(altera_avalon_tse.o)
                0x00196554                pmac_groups
                0x00196564                pphy_profiles
 COMMON         0x00196574       0x64 ../RedeFFTHW_bsp\libucosii_bsp.a(timeouts.o)
                0x00196574                intimers
 COMMON         0x001965d8      0x100 ../RedeFFTHW_bsp\libucosii_bsp.a(et_arp.o)
                0x001965d8                arp_table
 COMMON         0x001966d8       0x14 ../RedeFFTHW_bsp\libucosii_bsp.a(iface.o)
                0x001966d8                netlist
 COMMON         0x001966ec       0x50 ../RedeFFTHW_bsp\libucosii_bsp.a(ip.o)
                0x001966ec                ip_mib
 COMMON         0x0019673c       0x18 ../RedeFFTHW_bsp\libucosii_bsp.a(ip_reasm.o)
                0x0019673c                ire_stats
 COMMON         0x00196754       0x10 ../RedeFFTHW_bsp\libucosii_bsp.a(udp.o)
                0x00196754                udp_mib
 COMMON         0x00196764       0x68 ../RedeFFTHW_bsp\libucosii_bsp.a(icmp.o)
                0x00196764                icmp_mib
 COMMON         0x001967cc      0x190 c:/altera/10.1sp1/nios2eds/bin/gnu/h-i686-mingw32/bin/../lib/gcc/nios2-elf/4.1.2/../../../../nios2-elf/lib/mno-hw-mul\libc.a(lib_a-atexit.o)
                0x001967cc                _atexit0
                0x0019695c                . = ALIGN (0x4)
                0x0019695c                __bss_end = ABSOLUTE (.)

.sdram          0x0019695c        0x0
                0x0019695c                PROVIDE (_alt_partition_sdram_start, ABSOLUTE (.))
 *(.sdram. sdram.*)
                0x0019695c                . = ALIGN (0x4)
                0x0019695c                PROVIDE (_alt_partition_sdram_end, ABSOLUTE (.))
                0x0019695c                _end = ABSOLUTE (.)
                0x0019695c                end = ABSOLUTE (.)
                0x0019695c                __alt_stack_base = ABSOLUTE (.)
                0x0019695c                PROVIDE (_alt_partition_sdram_load_addr, LOADADDR (.sdram))

.descriptor_memory
                0x04002000        0x0 load address 0x0019695c
                0x04002000                PROVIDE (_alt_partition_descriptor_memory_start, ABSOLUTE (.))
 *(.descriptor_memory. descriptor_memory.*)
                0x04002000                . = ALIGN (0x4)
                0x04002000                PROVIDE (_alt_partition_descriptor_memory_end, ABSOLUTE (.))
                0x0019695c                PROVIDE (_alt_partition_descriptor_memory_load_addr, LOADADDR (.descriptor_memory))

.stab
 *(.stab)

.stabstr
 *(.stabstr)

.stab.excl
 *(.stab.excl)

.stab.exclstr
 *(.stab.exclstr)

.stab.index
 *(.stab.index)

.stab.indexstr
 *(.stab.indexstr)

.comment        0x00000000       0x23
 *(.comment)
 .comment       0x00000000       0x23 obj/AquisicaoRede.o
                                 0x24 (size before relaxing)
 .comment       0x00000000       0x24 obj/DanWindow/DanWindow.o
 .comment       0x00000000       0x24 obj/FFT/simpleDFT.o
 .comment       0x00000000       0x24 obj/LCDTask.o
 .comment       0x00000000       0x24 obj/TerminalSerial.o
 .comment       0x00000000       0x24 obj/alt_error_handler.o
 .comment       0x00000000       0x24 obj/alt_touchscreen/alt_touchscreen.o
 .comment       0x00000000       0x24 obj/alt_tpo_lcd/alt_tpo_lcd.o
 .comment       0x00000000       0x24 obj/alt_video_display/alt_video_display.o
 .comment       0x00000000       0x24 obj/fixedpoint2_16.o
 .comment       0x00000000       0x24 obj/graphics_lib/simple_graphics.o
 .comment       0x00000000       0x24 obj/iniche_init.o
 .comment       0x00000000       0x24 obj/network_utilities.o
 .comment       0x00000000       0x24 obj/simple_socket_server.o
 .comment       0x00000000       0x24 c:/altera/10.1sp1/nios2eds/bin/gnu/h-i686-mingw32/bin/../lib/gcc/nios2-elf/4.1.2/../../../../nios2-elf/lib/mno-hw-mul\libm.a(lib_a-s_cos.o)
 .comment       0x00000000       0x24 c:/altera/10.1sp1/nios2eds/bin/gnu/h-i686-mingw32/bin/../lib/gcc/nios2-elf/4.1.2/../../../../nios2-elf/lib/mno-hw-mul\libm.a(lib_a-s_sin.o)
 .comment       0x00000000       0x24 c:/altera/10.1sp1/nios2eds/bin/gnu/h-i686-mingw32/bin/../lib/gcc/nios2-elf/4.1.2/../../../../nios2-elf/lib/mno-hw-mul\libm.a(lib_a-w_sqrt.o)
 .comment       0x00000000       0x24 c:/altera/10.1sp1/nios2eds/bin/gnu/h-i686-mingw32/bin/../lib/gcc/nios2-elf/4.1.2/../../../../nios2-elf/lib/mno-hw-mul\libm.a(lib_a-wf_sqrt.o)
 .comment       0x00000000       0x24 c:/altera/10.1sp1/nios2eds/bin/gnu/h-i686-mingw32/bin/../lib/gcc/nios2-elf/4.1.2/../../../../nios2-elf/lib/mno-hw-mul\libm.a(lib_a-e_rem_pio2.o)
 .comment       0x00000000       0x24 c:/altera/10.1sp1/nios2eds/bin/gnu/h-i686-mingw32/bin/../lib/gcc/nios2-elf/4.1.2/../../../../nios2-elf/lib/mno-hw-mul\libm.a(lib_a-e_sqrt.o)
 .comment       0x00000000       0x24 c:/altera/10.1sp1/nios2eds/bin/gnu/h-i686-mingw32/bin/../lib/gcc/nios2-elf/4.1.2/../../../../nios2-elf/lib/mno-hw-mul\libm.a(lib_a-ef_sqrt.o)
 .comment       0x00000000       0x24 c:/altera/10.1sp1/nios2eds/bin/gnu/h-i686-mingw32/bin/../lib/gcc/nios2-elf/4.1.2/../../../../nios2-elf/lib/mno-hw-mul\libm.a(lib_a-k_cos.o)
 .comment       0x00000000       0x24 c:/altera/10.1sp1/nios2eds/bin/gnu/h-i686-mingw32/bin/../lib/gcc/nios2-elf/4.1.2/../../../../nios2-elf/lib/mno-hw-mul\libm.a(lib_a-k_rem_pio2.o)
 .comment       0x00000000       0x24 c:/altera/10.1sp1/nios2eds/bin/gnu/h-i686-mingw32/bin/../lib/gcc/nios2-elf/4.1.2/../../../../nios2-elf/lib/mno-hw-mul\libm.a(lib_a-k_sin.o)
 .comment       0x00000000       0x24 c:/altera/10.1sp1/nios2eds/bin/gnu/h-i686-mingw32/bin/../lib/gcc/nios2-elf/4.1.2/../../../../nios2-elf/lib/mno-hw-mul\libm.a(lib_a-s_fabs.o)
 .comment       0x00000000       0x24 c:/altera/10.1sp1/nios2eds/bin/gnu/h-i686-mingw32/bin/../lib/gcc/nios2-elf/4.1.2/../../../../nios2-elf/lib/mno-hw-mul\libm.a(lib_a-s_floor.o)
 .comment       0x00000000       0x24 c:/altera/10.1sp1/nios2eds/bin/gnu/h-i686-mingw32/bin/../lib/gcc/nios2-elf/4.1.2/../../../../nios2-elf/lib/mno-hw-mul\libm.a(lib_a-s_isnand.o)
 .comment       0x00000000       0x24 c:/altera/10.1sp1/nios2eds/bin/gnu/h-i686-mingw32/bin/../lib/gcc/nios2-elf/4.1.2/../../../../nios2-elf/lib/mno-hw-mul\libm.a(lib_a-s_lib_ver.o)
 .comment       0x00000000       0x24 c:/altera/10.1sp1/nios2eds/bin/gnu/h-i686-mingw32/bin/../lib/gcc/nios2-elf/4.1.2/../../../../nios2-elf/lib/mno-hw-mul\libm.a(lib_a-s_matherr.o)
 .comment       0x00000000       0x24 c:/altera/10.1sp1/nios2eds/bin/gnu/h-i686-mingw32/bin/../lib/gcc/nios2-elf/4.1.2/../../../../nios2-elf/lib/mno-hw-mul\libm.a(lib_a-s_scalbn.o)
 .comment       0x00000000       0x24 c:/altera/10.1sp1/nios2eds/bin/gnu/h-i686-mingw32/bin/../lib/gcc/nios2-elf/4.1.2/../../../../nios2-elf/lib/mno-hw-mul\libm.a(lib_a-sf_isnan.o)
 .comment       0x00000000       0x24 c:/altera/10.1sp1/nios2eds/bin/gnu/h-i686-mingw32/bin/../lib/gcc/nios2-elf/4.1.2/../../../../nios2-elf/lib/mno-hw-mul\libm.a(lib_a-s_copysign.o)
 .comment       0x00000000       0x24 c:/altera/10.1sp1/nios2eds/bin/gnu/h-i686-mingw32/bin/../lib/gcc/nios2-elf/4.1.2/mno-hw-mul\libgcc.a(_muldi3.o)
 .comment       0x00000000       0x24 c:/altera/10.1sp1/nios2eds/bin/gnu/h-i686-mingw32/bin/../lib/gcc/nios2-elf/4.1.2/mno-hw-mul\libgcc.a(_addsub_sf.o)
 .comment       0x00000000       0x24 c:/altera/10.1sp1/nios2eds/bin/gnu/h-i686-mingw32/bin/../lib/gcc/nios2-elf/4.1.2/mno-hw-mul\libgcc.a(_mul_sf.o)
 .comment       0x00000000       0x24 c:/altera/10.1sp1/nios2eds/bin/gnu/h-i686-mingw32/bin/../lib/gcc/nios2-elf/4.1.2/mno-hw-mul\libgcc.a(_div_sf.o)
 .comment       0x00000000       0x24 c:/altera/10.1sp1/nios2eds/bin/gnu/h-i686-mingw32/bin/../lib/gcc/nios2-elf/4.1.2/mno-hw-mul\libgcc.a(_ge_sf.o)
 .comment       0x00000000       0x24 c:/altera/10.1sp1/nios2eds/bin/gnu/h-i686-mingw32/bin/../lib/gcc/nios2-elf/4.1.2/mno-hw-mul\libgcc.a(_lt_sf.o)
 .comment       0x00000000       0x24 c:/altera/10.1sp1/nios2eds/bin/gnu/h-i686-mingw32/bin/../lib/gcc/nios2-elf/4.1.2/mno-hw-mul\libgcc.a(_si_to_sf.o)
 .comment       0x00000000       0x24 c:/altera/10.1sp1/nios2eds/bin/gnu/h-i686-mingw32/bin/../lib/gcc/nios2-elf/4.1.2/mno-hw-mul\libgcc.a(_sf_to_si.o)
 .comment       0x00000000       0x24 c:/altera/10.1sp1/nios2eds/bin/gnu/h-i686-mingw32/bin/../lib/gcc/nios2-elf/4.1.2/mno-hw-mul\libgcc.a(_sf_to_df.o)
 .comment       0x00000000       0x24 c:/altera/10.1sp1/nios2eds/bin/gnu/h-i686-mingw32/bin/../lib/gcc/nios2-elf/4.1.2/mno-hw-mul\libgcc.a(_thenan_sf.o)
 .comment       0x00000000       0x24 c:/altera/10.1sp1/nios2eds/bin/gnu/h-i686-mingw32/bin/../lib/gcc/nios2-elf/4.1.2/mno-hw-mul\libgcc.a(_addsub_df.o)
 .comment       0x00000000       0x24 c:/altera/10.1sp1/nios2eds/bin/gnu/h-i686-mingw32/bin/../lib/gcc/nios2-elf/4.1.2/mno-hw-mul\libgcc.a(_mul_df.o)
 .comment       0x00000000       0x24 c:/altera/10.1sp1/nios2eds/bin/gnu/h-i686-mingw32/bin/../lib/gcc/nios2-elf/4.1.2/mno-hw-mul\libgcc.a(_div_df.o)
 .comment       0x00000000       0x24 c:/altera/10.1sp1/nios2eds/bin/gnu/h-i686-mingw32/bin/../lib/gcc/nios2-elf/4.1.2/mno-hw-mul\libgcc.a(_eq_df.o)
 .comment       0x00000000       0x24 c:/altera/10.1sp1/nios2eds/bin/gnu/h-i686-mingw32/bin/../lib/gcc/nios2-elf/4.1.2/mno-hw-mul\libgcc.a(_gt_df.o)
 .comment       0x00000000       0x24 c:/altera/10.1sp1/nios2eds/bin/gnu/h-i686-mingw32/bin/../lib/gcc/nios2-elf/4.1.2/mno-hw-mul\libgcc.a(_ge_df.o)
 .comment       0x00000000       0x24 c:/altera/10.1sp1/nios2eds/bin/gnu/h-i686-mingw32/bin/../lib/gcc/nios2-elf/4.1.2/mno-hw-mul\libgcc.a(_lt_df.o)
 .comment       0x00000000       0x24 c:/altera/10.1sp1/nios2eds/bin/gnu/h-i686-mingw32/bin/../lib/gcc/nios2-elf/4.1.2/mno-hw-mul\libgcc.a(_si_to_df.o)
 .comment       0x00000000       0x24 c:/altera/10.1sp1/nios2eds/bin/gnu/h-i686-mingw32/bin/../lib/gcc/nios2-elf/4.1.2/mno-hw-mul\libgcc.a(_df_to_si.o)
 .comment       0x00000000       0x24 c:/altera/10.1sp1/nios2eds/bin/gnu/h-i686-mingw32/bin/../lib/gcc/nios2-elf/4.1.2/mno-hw-mul\libgcc.a(_make_df.o)
 .comment       0x00000000       0x24 c:/altera/10.1sp1/nios2eds/bin/gnu/h-i686-mingw32/bin/../lib/gcc/nios2-elf/4.1.2/mno-hw-mul\libgcc.a(_df_to_sf.o)
 .comment       0x00000000       0x24 c:/altera/10.1sp1/nios2eds/bin/gnu/h-i686-mingw32/bin/../lib/gcc/nios2-elf/4.1.2/mno-hw-mul\libgcc.a(_thenan_df.o)
 .comment       0x00000000       0x24 c:/altera/10.1sp1/nios2eds/bin/gnu/h-i686-mingw32/bin/../lib/gcc/nios2-elf/4.1.2/mno-hw-mul\libgcc.a(_usi_to_df.o)
 .comment       0x00000000       0x24 c:/altera/10.1sp1/nios2eds/bin/gnu/h-i686-mingw32/bin/../lib/gcc/nios2-elf/4.1.2/mno-hw-mul\libgcc.a(lib2-divmod.o)
 .comment       0x00000000       0x24 c:/altera/10.1sp1/nios2eds/bin/gnu/h-i686-mingw32/bin/../lib/gcc/nios2-elf/4.1.2/mno-hw-mul\libgcc.a(lib2-mul.o)
 .comment       0x00000000       0x24 c:/altera/10.1sp1/nios2eds/bin/gnu/h-i686-mingw32/bin/../lib/gcc/nios2-elf/4.1.2/mno-hw-mul\libgcc.a(_clzsi2.o)
 .comment       0x00000000       0x24 c:/altera/10.1sp1/nios2eds/bin/gnu/h-i686-mingw32/bin/../lib/gcc/nios2-elf/4.1.2/mno-hw-mul\libgcc.a(_pack_sf.o)
 .comment       0x00000000       0x24 c:/altera/10.1sp1/nios2eds/bin/gnu/h-i686-mingw32/bin/../lib/gcc/nios2-elf/4.1.2/mno-hw-mul\libgcc.a(_unpack_sf.o)
 .comment       0x00000000       0x24 c:/altera/10.1sp1/nios2eds/bin/gnu/h-i686-mingw32/bin/../lib/gcc/nios2-elf/4.1.2/mno-hw-mul\libgcc.a(_fpcmp_parts_sf.o)
 .comment       0x00000000       0x24 c:/altera/10.1sp1/nios2eds/bin/gnu/h-i686-mingw32/bin/../lib/gcc/nios2-elf/4.1.2/mno-hw-mul\libgcc.a(_make_sf.o)
 .comment       0x00000000       0x24 c:/altera/10.1sp1/nios2eds/bin/gnu/h-i686-mingw32/bin/../lib/gcc/nios2-elf/4.1.2/mno-hw-mul\libgcc.a(_pack_df.o)
 .comment       0x00000000       0x24 c:/altera/10.1sp1/nios2eds/bin/gnu/h-i686-mingw32/bin/../lib/gcc/nios2-elf/4.1.2/mno-hw-mul\libgcc.a(_unpack_df.o)
 .comment       0x00000000       0x24 c:/altera/10.1sp1/nios2eds/bin/gnu/h-i686-mingw32/bin/../lib/gcc/nios2-elf/4.1.2/mno-hw-mul\libgcc.a(_fpcmp_parts_df.o)
 .comment       0x00000000       0x24 c:/altera/10.1sp1/nios2eds/bin/gnu/h-i686-mingw32/bin/../lib/gcc/nios2-elf/4.1.2/mno-hw-mul\libgcc.a(_clz.o)
 .comment       0x00000000       0x24 c:/altera/10.1sp1/nios2eds/bin/gnu/h-i686-mingw32/bin/../lib/gcc/nios2-elf/4.1.2/../../../../nios2-elf/lib/mno-hw-mul\libc.a(lib_a-ctype_.o)
 .comment       0x00000000       0x24 c:/altera/10.1sp1/nios2eds/bin/gnu/h-i686-mingw32/bin/../lib/gcc/nios2-elf/4.1.2/../../../../nios2-elf/lib/mno-hw-mul\libc.a(lib_a-errno.o)
 .comment       0x00000000       0x24 c:/altera/10.1sp1/nios2eds/bin/gnu/h-i686-mingw32/bin/../lib/gcc/nios2-elf/4.1.2/../../../../nios2-elf/lib/mno-hw-mul\libc.a(lib_a-fprintf.o)
 .comment       0x00000000       0x24 c:/altera/10.1sp1/nios2eds/bin/gnu/h-i686-mingw32/bin/../lib/gcc/nios2-elf/4.1.2/../../../../nios2-elf/lib/mno-hw-mul\libc.a(lib_a-fwrite.o)
 .comment       0x00000000       0x24 c:/altera/10.1sp1/nios2eds/bin/gnu/h-i686-mingw32/bin/../lib/gcc/nios2-elf/4.1.2/../../../../nios2-elf/lib/mno-hw-mul\libc.a(lib_a-getc.o)
 .comment       0x00000000       0x24 c:/altera/10.1sp1/nios2eds/bin/gnu/h-i686-mingw32/bin/../lib/gcc/nios2-elf/4.1.2/../../../../nios2-elf/lib/mno-hw-mul\libc.a(lib_a-impure.o)
 .comment       0x00000000       0x24 c:/altera/10.1sp1/nios2eds/bin/gnu/h-i686-mingw32/bin/../lib/gcc/nios2-elf/4.1.2/../../../../nios2-elf/lib/mno-hw-mul\libc.a(lib_a-malign.o)
 .comment       0x00000000       0x24 c:/altera/10.1sp1/nios2eds/bin/gnu/h-i686-mingw32/bin/../lib/gcc/nios2-elf/4.1.2/../../../../nios2-elf/lib/mno-hw-mul\libc.a(lib_a-malignr.o)
 .comment       0x00000000       0x24 c:/altera/10.1sp1/nios2eds/bin/gnu/h-i686-mingw32/bin/../lib/gcc/nios2-elf/4.1.2/../../../../nios2-elf/lib/mno-hw-mul\libc.a(lib_a-malloc.o)
 .comment       0x00000000       0x24 c:/altera/10.1sp1/nios2eds/bin/gnu/h-i686-mingw32/bin/../lib/gcc/nios2-elf/4.1.2/../../../../nios2-elf/lib/mno-hw-mul\libc.a(lib_a-mallocr.o)
 .comment       0x00000000       0x24 c:/altera/10.1sp1/nios2eds/bin/gnu/h-i686-mingw32/bin/../lib/gcc/nios2-elf/4.1.2/../../../../nios2-elf/lib/mno-hw-mul\libc.a(lib_a-memcpy.o)
 .comment       0x00000000       0x24 c:/altera/10.1sp1/nios2eds/bin/gnu/h-i686-mingw32/bin/../lib/gcc/nios2-elf/4.1.2/../../../../nios2-elf/lib/mno-hw-mul\libc.a(lib_a-memset.o)
 .comment       0x00000000       0x24 c:/altera/10.1sp1/nios2eds/bin/gnu/h-i686-mingw32/bin/../lib/gcc/nios2-elf/4.1.2/../../../../nios2-elf/lib/mno-hw-mul\libc.a(lib_a-perror.o)
 .comment       0x00000000       0x24 c:/altera/10.1sp1/nios2eds/bin/gnu/h-i686-mingw32/bin/../lib/gcc/nios2-elf/4.1.2/../../../../nios2-elf/lib/mno-hw-mul\libc.a(lib_a-printf.o)
 .comment       0x00000000       0x24 c:/altera/10.1sp1/nios2eds/bin/gnu/h-i686-mingw32/bin/../lib/gcc/nios2-elf/4.1.2/../../../../nios2-elf/lib/mno-hw-mul\libc.a(lib_a-putc.o)
 .comment       0x00000000       0x24 c:/altera/10.1sp1/nios2eds/bin/gnu/h-i686-mingw32/bin/../lib/gcc/nios2-elf/4.1.2/../../../../nios2-elf/lib/mno-hw-mul\libc.a(lib_a-putchar.o)
 .comment       0x00000000       0x24 c:/altera/10.1sp1/nios2eds/bin/gnu/h-i686-mingw32/bin/../lib/gcc/nios2-elf/4.1.2/../../../../nios2-elf/lib/mno-hw-mul\libc.a(lib_a-puts.o)
 .comment       0x00000000       0x24 c:/altera/10.1sp1/nios2eds/bin/gnu/h-i686-mingw32/bin/../lib/gcc/nios2-elf/4.1.2/../../../../nios2-elf/lib/mno-hw-mul\libc.a(lib_a-rget.o)
 .comment       0x00000000       0x24 c:/altera/10.1sp1/nios2eds/bin/gnu/h-i686-mingw32/bin/../lib/gcc/nios2-elf/4.1.2/../../../../nios2-elf/lib/mno-hw-mul\libc.a(lib_a-sbrkr.o)
 .comment       0x00000000       0x24 c:/altera/10.1sp1/nios2eds/bin/gnu/h-i686-mingw32/bin/../lib/gcc/nios2-elf/4.1.2/../../../../nios2-elf/lib/mno-hw-mul\libc.a(lib_a-sprintf.o)
 .comment       0x00000000       0x24 c:/altera/10.1sp1/nios2eds/bin/gnu/h-i686-mingw32/bin/../lib/gcc/nios2-elf/4.1.2/../../../../nios2-elf/lib/mno-hw-mul\libc.a(lib_a-strcpy.o)
 .comment       0x00000000       0x24 c:/altera/10.1sp1/nios2eds/bin/gnu/h-i686-mingw32/bin/../lib/gcc/nios2-elf/4.1.2/../../../../nios2-elf/lib/mno-hw-mul\libc.a(lib_a-strerror.o)
 .comment       0x00000000       0x24 c:/altera/10.1sp1/nios2eds/bin/gnu/h-i686-mingw32/bin/../lib/gcc/nios2-elf/4.1.2/../../../../nios2-elf/lib/mno-hw-mul\libc.a(lib_a-strlen.o)
 .comment       0x00000000       0x24 c:/altera/10.1sp1/nios2eds/bin/gnu/h-i686-mingw32/bin/../lib/gcc/nios2-elf/4.1.2/../../../../nios2-elf/lib/mno-hw-mul\libc.a(lib_a-u_strerr.o)
 .comment       0x00000000       0x24 c:/altera/10.1sp1/nios2eds/bin/gnu/h-i686-mingw32/bin/../lib/gcc/nios2-elf/4.1.2/../../../../nios2-elf/lib/mno-hw-mul\libc.a(lib_a-vfprintf.o)
 .comment       0x00000000       0x24 c:/altera/10.1sp1/nios2eds/bin/gnu/h-i686-mingw32/bin/../lib/gcc/nios2-elf/4.1.2/../../../../nios2-elf/lib/mno-hw-mul\libc.a(lib_a-wbuf.o)
 .comment       0x00000000       0x24 c:/altera/10.1sp1/nios2eds/bin/gnu/h-i686-mingw32/bin/../lib/gcc/nios2-elf/4.1.2/../../../../nios2-elf/lib/mno-hw-mul\libc.a(lib_a-wsetup.o)
 .comment       0x00000000       0x24 c:/altera/10.1sp1/nios2eds/bin/gnu/h-i686-mingw32/bin/../lib/gcc/nios2-elf/4.1.2/../../../../nios2-elf/lib/mno-hw-mul\libc.a(lib_a-dtoa.o)
 .comment       0x00000000       0x24 c:/altera/10.1sp1/nios2eds/bin/gnu/h-i686-mingw32/bin/../lib/gcc/nios2-elf/4.1.2/../../../../nios2-elf/lib/mno-hw-mul\libc.a(lib_a-fflush.o)
 .comment       0x00000000       0x24 c:/altera/10.1sp1/nios2eds/bin/gnu/h-i686-mingw32/bin/../lib/gcc/nios2-elf/4.1.2/../../../../nios2-elf/lib/mno-hw-mul\libc.a(lib_a-findfp.o)
 .comment       0x00000000       0x24 c:/altera/10.1sp1/nios2eds/bin/gnu/h-i686-mingw32/bin/../lib/gcc/nios2-elf/4.1.2/../../../../nios2-elf/lib/mno-hw-mul\libc.a(lib_a-fputc.o)
 .comment       0x00000000       0x24 c:/altera/10.1sp1/nios2eds/bin/gnu/h-i686-mingw32/bin/../lib/gcc/nios2-elf/4.1.2/../../../../nios2-elf/lib/mno-hw-mul\libc.a(lib_a-fputs.o)
 .comment       0x00000000       0x24 c:/altera/10.1sp1/nios2eds/bin/gnu/h-i686-mingw32/bin/../lib/gcc/nios2-elf/4.1.2/../../../../nios2-elf/lib/mno-hw-mul\libc.a(lib_a-freer.o)
 .comment       0x00000000       0x24 c:/altera/10.1sp1/nios2eds/bin/gnu/h-i686-mingw32/bin/../lib/gcc/nios2-elf/4.1.2/../../../../nios2-elf/lib/mno-hw-mul\libc.a(lib_a-fvwrite.o)
 .comment       0x00000000       0x24 c:/altera/10.1sp1/nios2eds/bin/gnu/h-i686-mingw32/bin/../lib/gcc/nios2-elf/4.1.2/../../../../nios2-elf/lib/mno-hw-mul\libc.a(lib_a-fwalk.o)
 .comment       0x00000000       0x24 c:/altera/10.1sp1/nios2eds/bin/gnu/h-i686-mingw32/bin/../lib/gcc/nios2-elf/4.1.2/../../../../nios2-elf/lib/mno-hw-mul\libc.a(lib_a-int_errno.o)
 .comment       0x00000000       0x24 c:/altera/10.1sp1/nios2eds/bin/gnu/h-i686-mingw32/bin/../lib/gcc/nios2-elf/4.1.2/../../../../nios2-elf/lib/mno-hw-mul\libc.a(lib_a-locale.o)
 .comment       0x00000000       0x24 c:/altera/10.1sp1/nios2eds/bin/gnu/h-i686-mingw32/bin/../lib/gcc/nios2-elf/4.1.2/../../../../nios2-elf/lib/mno-hw-mul\libc.a(lib_a-makebuf.o)
 .comment       0x00000000       0x24 c:/altera/10.1sp1/nios2eds/bin/gnu/h-i686-mingw32/bin/../lib/gcc/nios2-elf/4.1.2/../../../../nios2-elf/lib/mno-hw-mul\libc.a(lib_a-memchr.o)
 .comment       0x00000000       0x24 c:/altera/10.1sp1/nios2eds/bin/gnu/h-i686-mingw32/bin/../lib/gcc/nios2-elf/4.1.2/../../../../nios2-elf/lib/mno-hw-mul\libc.a(lib_a-memmove.o)
 .comment       0x00000000       0x24 c:/altera/10.1sp1/nios2eds/bin/gnu/h-i686-mingw32/bin/../lib/gcc/nios2-elf/4.1.2/../../../../nios2-elf/lib/mno-hw-mul\libc.a(lib_a-mprec.o)
 .comment       0x00000000       0x24 c:/altera/10.1sp1/nios2eds/bin/gnu/h-i686-mingw32/bin/../lib/gcc/nios2-elf/4.1.2/../../../../nios2-elf/lib/mno-hw-mul\libc.a(lib_a-reallocr.o)
 .comment       0x00000000       0x24 c:/altera/10.1sp1/nios2eds/bin/gnu/h-i686-mingw32/bin/../lib/gcc/nios2-elf/4.1.2/../../../../nios2-elf/lib/mno-hw-mul\libc.a(lib_a-refill.o)
 .comment       0x00000000       0x24 c:/altera/10.1sp1/nios2eds/bin/gnu/h-i686-mingw32/bin/../lib/gcc/nios2-elf/4.1.2/../../../../nios2-elf/lib/mno-hw-mul\libc.a(lib_a-s_isinfd.o)
 .comment       0x00000000       0x24 c:/altera/10.1sp1/nios2eds/bin/gnu/h-i686-mingw32/bin/../lib/gcc/nios2-elf/4.1.2/../../../../nios2-elf/lib/mno-hw-mul\libc.a(lib_a-stdio.o)
 .comment       0x00000000       0x24 c:/altera/10.1sp1/nios2eds/bin/gnu/h-i686-mingw32/bin/../lib/gcc/nios2-elf/4.1.2/../../../../nios2-elf/lib/mno-hw-mul\libc.a(lib_a-strcmp.o)
 .comment       0x00000000       0x24 c:/altera/10.1sp1/nios2eds/bin/gnu/h-i686-mingw32/bin/../lib/gcc/nios2-elf/4.1.2/../../../../nios2-elf/lib/mno-hw-mul\libc.a(lib_a-writer.o)
 .comment       0x00000000       0x24 c:/altera/10.1sp1/nios2eds/bin/gnu/h-i686-mingw32/bin/../lib/gcc/nios2-elf/4.1.2/../../../../nios2-elf/lib/mno-hw-mul\libc.a(lib_a-callocr.o)
 .comment       0x00000000       0x24 c:/altera/10.1sp1/nios2eds/bin/gnu/h-i686-mingw32/bin/../lib/gcc/nios2-elf/4.1.2/../../../../nios2-elf/lib/mno-hw-mul\libc.a(lib_a-closer.o)
 .comment       0x00000000       0x24 c:/altera/10.1sp1/nios2eds/bin/gnu/h-i686-mingw32/bin/../lib/gcc/nios2-elf/4.1.2/../../../../nios2-elf/lib/mno-hw-mul\libc.a(lib_a-fclose.o)
 .comment       0x00000000       0x24 c:/altera/10.1sp1/nios2eds/bin/gnu/h-i686-mingw32/bin/../lib/gcc/nios2-elf/4.1.2/../../../../nios2-elf/lib/mno-hw-mul\libc.a(lib_a-fstatr.o)
 .comment       0x00000000       0x24 c:/altera/10.1sp1/nios2eds/bin/gnu/h-i686-mingw32/bin/../lib/gcc/nios2-elf/4.1.2/../../../../nios2-elf/lib/mno-hw-mul\libc.a(lib_a-isattyr.o)
 .comment       0x00000000       0x24 c:/altera/10.1sp1/nios2eds/bin/gnu/h-i686-mingw32/bin/../lib/gcc/nios2-elf/4.1.2/../../../../nios2-elf/lib/mno-hw-mul\libc.a(lib_a-lseekr.o)
 .comment       0x00000000       0x24 c:/altera/10.1sp1/nios2eds/bin/gnu/h-i686-mingw32/bin/../lib/gcc/nios2-elf/4.1.2/../../../../nios2-elf/lib/mno-hw-mul\libc.a(lib_a-readr.o)
 .comment       0x00000000       0x24 c:/altera/10.1sp1/nios2eds/bin/gnu/h-i686-mingw32/bin/../lib/gcc/nios2-elf/4.1.2/mno-hw-mul\libgcc.a(_udivdi3.o)
 .comment       0x00000000       0x24 c:/altera/10.1sp1/nios2eds/bin/gnu/h-i686-mingw32/bin/../lib/gcc/nios2-elf/4.1.2/mno-hw-mul\libgcc.a(_umoddi3.o)
 .comment       0x00000000       0x24 c:/altera/10.1sp1/nios2eds/bin/gnu/h-i686-mingw32/bin/../lib/gcc/nios2-elf/4.1.2/mno-hw-mul\libgcc.a(_ne_df.o)
 .comment       0x00000000       0x24 ../RedeFFTHW_bsp\libucosii_bsp.a(alt_fstat.o)
 .comment       0x00000000       0x24 ../RedeFFTHW_bsp\libucosii_bsp.a(alt_isatty.o)
 .comment       0x00000000       0x24 ../RedeFFTHW_bsp\libucosii_bsp.a(alt_load.o)
 .comment       0x00000000       0x24 ../RedeFFTHW_bsp\libucosii_bsp.a(alt_lseek.o)
 .comment       0x00000000       0x24 ../RedeFFTHW_bsp\libucosii_bsp.a(alt_main.o)
 .comment       0x00000000       0x24 ../RedeFFTHW_bsp\libucosii_bsp.a(alt_remap_cached.o)
 .comment       0x00000000       0x24 ../RedeFFTHW_bsp\libucosii_bsp.a(alt_remap_uncached.o)
 .comment       0x00000000       0x24 ../RedeFFTHW_bsp\libucosii_bsp.a(alt_sbrk.o)
 .comment       0x00000000       0x24 ../RedeFFTHW_bsp\libucosii_bsp.a(alt_tick.o)
 .comment       0x00000000       0x24 ../RedeFFTHW_bsp\libucosii_bsp.a(alt_uncached_malloc.o)
 .comment       0x00000000       0x24 ../RedeFFTHW_bsp\libucosii_bsp.a(alt_usleep.o)
 .comment       0x00000000       0x24 ../RedeFFTHW_bsp\libucosii_bsp.a(alt_env_lock.o)
 .comment       0x00000000       0x24 ../RedeFFTHW_bsp\libucosii_bsp.a(alt_malloc_lock.o)
 .comment       0x00000000       0x24 ../RedeFFTHW_bsp\libucosii_bsp.a(os_core.o)
 .comment       0x00000000       0x24 ../RedeFFTHW_bsp\libucosii_bsp.a(os_dbg.o)
 .comment       0x00000000       0x24 ../RedeFFTHW_bsp\libucosii_bsp.a(os_flag.o)
 .comment       0x00000000       0x24 ../RedeFFTHW_bsp\libucosii_bsp.a(os_mem.o)
 .comment       0x00000000       0x24 ../RedeFFTHW_bsp\libucosii_bsp.a(os_q.o)
 .comment       0x00000000       0x24 ../RedeFFTHW_bsp\libucosii_bsp.a(os_sem.o)
 .comment       0x00000000       0x24 ../RedeFFTHW_bsp\libucosii_bsp.a(os_task.o)
 .comment       0x00000000       0x24 ../RedeFFTHW_bsp\libucosii_bsp.a(os_time.o)
 .comment       0x00000000       0x24 ../RedeFFTHW_bsp\libucosii_bsp.a(alt_sys_init.o)
 .comment       0x00000000       0x24 ../RedeFFTHW_bsp\libucosii_bsp.a(altera_avalon_jtag_uart_fd.o)
 .comment       0x00000000       0x24 ../RedeFFTHW_bsp\libucosii_bsp.a(altera_avalon_jtag_uart_init.o)
 .comment       0x00000000       0x24 ../RedeFFTHW_bsp\libucosii_bsp.a(altera_avalon_jtag_uart_ioctl.o)
 .comment       0x00000000       0x24 ../RedeFFTHW_bsp\libucosii_bsp.a(altera_avalon_jtag_uart_read.o)
 .comment       0x00000000       0x24 ../RedeFFTHW_bsp\libucosii_bsp.a(altera_avalon_jtag_uart_write.o)
 .comment       0x00000000       0x24 ../RedeFFTHW_bsp\libucosii_bsp.a(altera_avalon_sgdma.o)
 .comment       0x00000000       0x24 ../RedeFFTHW_bsp\libucosii_bsp.a(altera_avalon_timer_sc.o)
 .comment       0x00000000       0x24 ../RedeFFTHW_bsp\libucosii_bsp.a(ins_tse_mac.o)
 .comment       0x00000000       0x24 ../RedeFFTHW_bsp\libucosii_bsp.a(perf_print_formatted_report.o)
 .comment       0x00000000       0x24 ../RedeFFTHW_bsp\libucosii_bsp.a(alt_iniche_close.o)
 .comment       0x00000000       0x24 ../RedeFFTHW_bsp\libucosii_bsp.a(alt_iniche_dev.o)
 .comment       0x00000000       0x24 ../RedeFFTHW_bsp\libucosii_bsp.a(alt_iniche_read.o)
 .comment       0x00000000       0x24 ../RedeFFTHW_bsp\libucosii_bsp.a(alt_iniche_write.o)
 .comment       0x00000000       0x24 ../RedeFFTHW_bsp\libucosii_bsp.a(ipnet.o)
 .comment       0x00000000       0x24 ../RedeFFTHW_bsp\libucosii_bsp.a(ipstart.o)
 .comment       0x00000000       0x24 ../RedeFFTHW_bsp\libucosii_bsp.a(igmp_cmn.o)
 .comment       0x00000000       0x24 ../RedeFFTHW_bsp\libucosii_bsp.a(bsdsock.o)
 .comment       0x00000000       0x24 ../RedeFFTHW_bsp\libucosii_bsp.a(cksum.o)
 .comment       0x00000000       0x24 ../RedeFFTHW_bsp\libucosii_bsp.a(in_utils.o)
 .comment       0x00000000       0x24 ../RedeFFTHW_bsp\libucosii_bsp.a(netmain.o)
 .comment       0x00000000       0x24 ../RedeFFTHW_bsp\libucosii_bsp.a(tk_crnos.o)
 .comment       0x00000000       0x24 ../RedeFFTHW_bsp\libucosii_bsp.a(dhcpclnt.o)
 .comment       0x00000000       0x24 ../RedeFFTHW_bsp\libucosii_bsp.a(dhcputil.o)
 .comment       0x00000000       0x24 ../RedeFFTHW_bsp\libucosii_bsp.a(pktalloc.o)
 .comment       0x00000000       0x24 ../RedeFFTHW_bsp\libucosii_bsp.a(q.o)
 .comment       0x00000000       0x24 ../RedeFFTHW_bsp\libucosii_bsp.a(udp_open.o)
 .comment       0x00000000       0x24 ../RedeFFTHW_bsp\libucosii_bsp.a(brdutils.o)
 .comment       0x00000000       0x24 ../RedeFFTHW_bsp\libucosii_bsp.a(osportco.o)
 .comment       0x00000000       0x24 ../RedeFFTHW_bsp\libucosii_bsp.a(targnios.o)
 .comment       0x00000000       0x24 ../RedeFFTHW_bsp\libucosii_bsp.a(nptcp.o)
 .comment       0x00000000       0x24 ../RedeFFTHW_bsp\libucosii_bsp.a(rawsock.o)
 .comment       0x00000000       0x24 ../RedeFFTHW_bsp\libucosii_bsp.a(sockcall.o)
 .comment       0x00000000       0x24 ../RedeFFTHW_bsp\libucosii_bsp.a(socket.o)
 .comment       0x00000000       0x24 ../RedeFFTHW_bsp\libucosii_bsp.a(socket2.o)
 .comment       0x00000000       0x24 ../RedeFFTHW_bsp\libucosii_bsp.a(soselect.o)
 .comment       0x00000000       0x24 ../RedeFFTHW_bsp\libucosii_bsp.a(tcp_in.o)
 .comment       0x00000000       0x24 ../RedeFFTHW_bsp\libucosii_bsp.a(tcp_out.o)
 .comment       0x00000000       0x24 ../RedeFFTHW_bsp\libucosii_bsp.a(tcp_subr.o)
 .comment       0x00000000       0x24 ../RedeFFTHW_bsp\libucosii_bsp.a(tcp_timr.o)
 .comment       0x00000000       0x24 ../RedeFFTHW_bsp\libucosii_bsp.a(tcp_usr.o)
 .comment       0x00000000       0x24 ../RedeFFTHW_bsp\libucosii_bsp.a(tcpport.o)
 .comment       0x00000000       0x24 ../RedeFFTHW_bsp\libucosii_bsp.a(udpsock.o)
 .comment       0x00000000       0x24 ../RedeFFTHW_bsp\libucosii_bsp.a(alt_alarm_start.o)
 .comment       0x00000000       0x24 ../RedeFFTHW_bsp\libucosii_bsp.a(alt_busy_sleep.o)
 .comment       0x00000000       0x24 ../RedeFFTHW_bsp\libucosii_bsp.a(alt_close.o)
 .comment       0x00000000       0x24 ../RedeFFTHW_bsp\libucosii_bsp.a(alt_dcache_flush.o)
 .comment       0x00000000       0x24 ../RedeFFTHW_bsp\libucosii_bsp.a(alt_dcache_flush_all.o)
 .comment       0x00000000       0x24 ../RedeFFTHW_bsp\libucosii_bsp.a(alt_dev.o)
 .comment       0x00000000       0x24 ../RedeFFTHW_bsp\libucosii_bsp.a(alt_dev_llist_insert.o)
 .comment       0x00000000       0x24 ../RedeFFTHW_bsp\libucosii_bsp.a(alt_do_ctors.o)
 .comment       0x00000000       0x24 ../RedeFFTHW_bsp\libucosii_bsp.a(alt_do_dtors.o)
 .comment       0x00000000       0x24 ../RedeFFTHW_bsp\libucosii_bsp.a(alt_errno.o)
 .comment       0x00000000       0x24 ../RedeFFTHW_bsp\libucosii_bsp.a(alt_find_dev.o)
 .comment       0x00000000       0x24 ../RedeFFTHW_bsp\libucosii_bsp.a(alt_icache_flush_all.o)
 .comment       0x00000000       0x24 ../RedeFFTHW_bsp\libucosii_bsp.a(alt_iic.o)
 .comment       0x00000000       0x24 ../RedeFFTHW_bsp\libucosii_bsp.a(alt_iic_isr_register.o)
 .comment       0x00000000       0x24 ../RedeFFTHW_bsp\libucosii_bsp.a(alt_io_redirect.o)
 .comment       0x00000000       0x24 ../RedeFFTHW_bsp\libucosii_bsp.a(alt_irq_handler.o)
 .comment       0x00000000       0x24 ../RedeFFTHW_bsp\libucosii_bsp.a(alt_irq_vars.o)
 .comment       0x00000000       0x24 ../RedeFFTHW_bsp\libucosii_bsp.a(alt_open.o)
 .comment       0x00000000       0x24 ../RedeFFTHW_bsp\libucosii_bsp.a(alt_read.o)
 .comment       0x00000000       0x24 ../RedeFFTHW_bsp\libucosii_bsp.a(alt_release_fd.o)
 .comment       0x00000000       0x24 ../RedeFFTHW_bsp\libucosii_bsp.a(alt_write.o)
 .comment       0x00000000       0x24 ../RedeFFTHW_bsp\libucosii_bsp.a(altera_nios2_irq.o)
 .comment       0x00000000       0x24 ../RedeFFTHW_bsp\libucosii_bsp.a(os_cpu_c.o)
 .comment       0x00000000       0x24 ../RedeFFTHW_bsp\libucosii_bsp.a(altera_avalon_performance_counter.o)
 .comment       0x00000000       0x24 ../RedeFFTHW_bsp\libucosii_bsp.a(altera_avalon_tse.o)
 .comment       0x00000000       0x24 ../RedeFFTHW_bsp\libucosii_bsp.a(altera_avalon_tse_system_info.o)
 .comment       0x00000000       0x24 ../RedeFFTHW_bsp\libucosii_bsp.a(allports.o)
 .comment       0x00000000       0x24 ../RedeFFTHW_bsp\libucosii_bsp.a(timeouts.o)
 .comment       0x00000000       0x24 ../RedeFFTHW_bsp\libucosii_bsp.a(tk_misc.o)
 .comment       0x00000000       0x24 ../RedeFFTHW_bsp\libucosii_bsp.a(alt_iniche_fcntl.o)
 .comment       0x00000000       0x24 ../RedeFFTHW_bsp\libucosii_bsp.a(et_arp.o)
 .comment       0x00000000       0x24 ../RedeFFTHW_bsp\libucosii_bsp.a(iface.o)
 .comment       0x00000000       0x24 ../RedeFFTHW_bsp\libucosii_bsp.a(ip.o)
 .comment       0x00000000       0x24 ../RedeFFTHW_bsp\libucosii_bsp.a(ip_reasm.o)
 .comment       0x00000000       0x24 ../RedeFFTHW_bsp\libucosii_bsp.a(ipdemux.o)
 .comment       0x00000000       0x24 ../RedeFFTHW_bsp\libucosii_bsp.a(ipmc.o)
 .comment       0x00000000       0x24 ../RedeFFTHW_bsp\libucosii_bsp.a(ipport.o)
 .comment       0x00000000       0x24 ../RedeFFTHW_bsp\libucosii_bsp.a(ipraw.o)
 .comment       0x00000000       0x24 ../RedeFFTHW_bsp\libucosii_bsp.a(iproute.o)
 .comment       0x00000000       0x24 ../RedeFFTHW_bsp\libucosii_bsp.a(udp.o)
 .comment       0x00000000       0x24 ../RedeFFTHW_bsp\libucosii_bsp.a(igmp.o)
 .comment       0x00000000       0x24 ../RedeFFTHW_bsp\libucosii_bsp.a(igmp2.o)
 .comment       0x00000000       0x24 ../RedeFFTHW_bsp\libucosii_bsp.a(ipopt.o)
 .comment       0x00000000       0x24 ../RedeFFTHW_bsp\libucosii_bsp.a(u_mctest.o)
 .comment       0x00000000       0x24 ../RedeFFTHW_bsp\libucosii_bsp.a(dhcsetup.o)
 .comment       0x00000000       0x24 ../RedeFFTHW_bsp\libucosii_bsp.a(memdev.o)
 .comment       0x00000000       0x24 ../RedeFFTHW_bsp\libucosii_bsp.a(parseip.o)
 .comment       0x00000000       0x24 ../RedeFFTHW_bsp\libucosii_bsp.a(tcpcksum.o)
 .comment       0x00000000       0x24 ../RedeFFTHW_bsp\libucosii_bsp.a(in_pcb.o)
 .comment       0x00000000       0x24 ../RedeFFTHW_bsp\libucosii_bsp.a(vfsfiles.o)
 .comment       0x00000000       0x24 ../RedeFFTHW_bsp\libucosii_bsp.a(vfsport.o)
 .comment       0x00000000       0x24 ../RedeFFTHW_bsp\libucosii_bsp.a(alt_fcntl.o)
 .comment       0x00000000       0x24 ../RedeFFTHW_bsp\libucosii_bsp.a(alt_find_file.o)
 .comment       0x00000000       0x24 ../RedeFFTHW_bsp\libucosii_bsp.a(alt_get_fd.o)
 .comment       0x00000000       0x24 ../RedeFFTHW_bsp\libucosii_bsp.a(icmp.o)
 .comment       0x00000000       0x24 c:/altera/10.1sp1/nios2eds/bin/gnu/h-i686-mingw32/bin/../lib/gcc/nios2-elf/4.1.2/../../../../nios2-elf/lib/mno-hw-mul\libc.a(lib_a-atexit.o)
 .comment       0x00000000       0x24 c:/altera/10.1sp1/nios2eds/bin/gnu/h-i686-mingw32/bin/../lib/gcc/nios2-elf/4.1.2/../../../../nios2-elf/lib/mno-hw-mul\libc.a(lib_a-atoi.o)
 .comment       0x00000000       0x24 c:/altera/10.1sp1/nios2eds/bin/gnu/h-i686-mingw32/bin/../lib/gcc/nios2-elf/4.1.2/../../../../nios2-elf/lib/mno-hw-mul\libc.a(lib_a-calloc.o)
 .comment       0x00000000       0x24 c:/altera/10.1sp1/nios2eds/bin/gnu/h-i686-mingw32/bin/../lib/gcc/nios2-elf/4.1.2/../../../../nios2-elf/lib/mno-hw-mul\libc.a(lib_a-exit.o)
 .comment       0x00000000       0x24 c:/altera/10.1sp1/nios2eds/bin/gnu/h-i686-mingw32/bin/../lib/gcc/nios2-elf/4.1.2/../../../../nios2-elf/lib/mno-hw-mul\libc.a(lib_a-memcmp.o)
 .comment       0x00000000       0x24 c:/altera/10.1sp1/nios2eds/bin/gnu/h-i686-mingw32/bin/../lib/gcc/nios2-elf/4.1.2/../../../../nios2-elf/lib/mno-hw-mul\libc.a(lib_a-strchr.o)
 .comment       0x00000000       0x24 c:/altera/10.1sp1/nios2eds/bin/gnu/h-i686-mingw32/bin/../lib/gcc/nios2-elf/4.1.2/../../../../nios2-elf/lib/mno-hw-mul\libc.a(lib_a-strncmp.o)
 .comment       0x00000000       0x24 c:/altera/10.1sp1/nios2eds/bin/gnu/h-i686-mingw32/bin/../lib/gcc/nios2-elf/4.1.2/../../../../nios2-elf/lib/mno-hw-mul\libc.a(lib_a-strncpy.o)
 .comment       0x00000000       0x24 c:/altera/10.1sp1/nios2eds/bin/gnu/h-i686-mingw32/bin/../lib/gcc/nios2-elf/4.1.2/../../../../nios2-elf/lib/mno-hw-mul\libc.a(lib_a-strtol.o)
 .comment       0x00000000       0x24 c:/altera/10.1sp1/nios2eds/bin/gnu/h-i686-mingw32/bin/../lib/gcc/nios2-elf/4.1.2/../../../../nios2-elf/lib/mno-hw-mul\libc.a(lib_a-vprintf.o)
 .comment       0x00000000       0x24 c:/altera/10.1sp1/nios2eds/bin/gnu/h-i686-mingw32/bin/../lib/gcc/nios2-elf/4.1.2/../../../../nios2-elf/lib/mno-hw-mul\libc.a(lib_a-vsprintf.o)
 .comment       0x00000000       0x24 c:/altera/10.1sp1/nios2eds/bin/gnu/h-i686-mingw32/bin/../lib/gcc/nios2-elf/4.1.2/../../../../nios2-elf/lib/mno-hw-mul\libc.a(lib_a-__atexit.o)
 .comment       0x00000000       0x24 c:/altera/10.1sp1/nios2eds/bin/gnu/h-i686-mingw32/bin/../lib/gcc/nios2-elf/4.1.2/../../../../nios2-elf/lib/mno-hw-mul\libc.a(lib_a-__call_atexit.o)
 .comment       0x00000000       0x24 c:/altera/10.1sp1/nios2eds/bin/gnu/h-i686-mingw32/bin/../lib/gcc/nios2-elf/4.1.2/mno-hw-mul\libgcc.a(_floatundidf.o)
 .comment       0x00000000       0x24 ../RedeFFTHW_bsp\libucosii_bsp.a(alt_exit.o)

.debug
 *(.debug)

.line
 *(.line)

.debug_srcinfo
 *(.debug_srcinfo)

.debug_sfnames
 *(.debug_sfnames)

.debug_aranges  0x00000000     0x1f98
 *(.debug_aranges)
 .debug_aranges
                0x00000000       0x28 ../RedeFFTHW_bsp/obj/HAL/src/crt0.o
 .debug_aranges
                0x00000028       0x20 obj/AquisicaoRede.o
 .debug_aranges
                0x00000048       0x20 obj/DanWindow/DanWindow.o
 .debug_aranges
                0x00000068       0x20 obj/FFT/simpleDFT.o
 .debug_aranges
                0x00000088       0x20 obj/LCDTask.o
 .debug_aranges
                0x000000a8       0x20 obj/TerminalSerial.o
 .debug_aranges
                0x000000c8       0x20 obj/alt_error_handler.o
 .debug_aranges
                0x000000e8       0x20 obj/alt_tpo_lcd/alt_tpo_lcd.o
 .debug_aranges
                0x00000108       0x20 obj/alt_video_display/alt_video_display.o
 .debug_aranges
                0x00000128       0x20 obj/fixedpoint2_16.o
 .debug_aranges
                0x00000148       0x20 obj/graphics_lib/simple_graphics.o
 .debug_aranges
                0x00000168       0x20 obj/iniche_init.o
 .debug_aranges
                0x00000188       0x20 obj/network_utilities.o
 .debug_aranges
                0x000001a8       0x20 obj/simple_socket_server.o
 .debug_aranges
                0x000001c8       0x20 c:/altera/10.1sp1/nios2eds/bin/gnu/h-i686-mingw32/bin/../lib/gcc/nios2-elf/4.1.2/../../../../nios2-elf/lib/mno-hw-mul\libm.a(lib_a-s_cos.o)
 .debug_aranges
                0x000001e8       0x20 c:/altera/10.1sp1/nios2eds/bin/gnu/h-i686-mingw32/bin/../lib/gcc/nios2-elf/4.1.2/../../../../nios2-elf/lib/mno-hw-mul\libm.a(lib_a-s_sin.o)
 .debug_aranges
                0x00000208       0x20 c:/altera/10.1sp1/nios2eds/bin/gnu/h-i686-mingw32/bin/../lib/gcc/nios2-elf/4.1.2/../../../../nios2-elf/lib/mno-hw-mul\libm.a(lib_a-w_sqrt.o)
 .debug_aranges
                0x00000228       0x20 c:/altera/10.1sp1/nios2eds/bin/gnu/h-i686-mingw32/bin/../lib/gcc/nios2-elf/4.1.2/../../../../nios2-elf/lib/mno-hw-mul\libm.a(lib_a-wf_sqrt.o)
 .debug_aranges
                0x00000248       0x20 c:/altera/10.1sp1/nios2eds/bin/gnu/h-i686-mingw32/bin/../lib/gcc/nios2-elf/4.1.2/../../../../nios2-elf/lib/mno-hw-mul\libm.a(lib_a-e_rem_pio2.o)
 .debug_aranges
                0x00000268       0x20 c:/altera/10.1sp1/nios2eds/bin/gnu/h-i686-mingw32/bin/../lib/gcc/nios2-elf/4.1.2/../../../../nios2-elf/lib/mno-hw-mul\libm.a(lib_a-e_sqrt.o)
 .debug_aranges
                0x00000288       0x20 c:/altera/10.1sp1/nios2eds/bin/gnu/h-i686-mingw32/bin/../lib/gcc/nios2-elf/4.1.2/../../../../nios2-elf/lib/mno-hw-mul\libm.a(lib_a-ef_sqrt.o)
 .debug_aranges
                0x000002a8       0x20 c:/altera/10.1sp1/nios2eds/bin/gnu/h-i686-mingw32/bin/../lib/gcc/nios2-elf/4.1.2/../../../../nios2-elf/lib/mno-hw-mul\libm.a(lib_a-k_cos.o)
 .debug_aranges
                0x000002c8       0x20 c:/altera/10.1sp1/nios2eds/bin/gnu/h-i686-mingw32/bin/../lib/gcc/nios2-elf/4.1.2/../../../../nios2-elf/lib/mno-hw-mul\libm.a(lib_a-k_rem_pio2.o)
 .debug_aranges
                0x000002e8       0x20 c:/altera/10.1sp1/nios2eds/bin/gnu/h-i686-mingw32/bin/../lib/gcc/nios2-elf/4.1.2/../../../../nios2-elf/lib/mno-hw-mul\libm.a(lib_a-k_sin.o)
 .debug_aranges
                0x00000308       0x20 c:/altera/10.1sp1/nios2eds/bin/gnu/h-i686-mingw32/bin/../lib/gcc/nios2-elf/4.1.2/../../../../nios2-elf/lib/mno-hw-mul\libm.a(lib_a-s_fabs.o)
 .debug_aranges
                0x00000328       0x20 c:/altera/10.1sp1/nios2eds/bin/gnu/h-i686-mingw32/bin/../lib/gcc/nios2-elf/4.1.2/../../../../nios2-elf/lib/mno-hw-mul\libm.a(lib_a-s_floor.o)
 .debug_aranges
                0x00000348       0x20 c:/altera/10.1sp1/nios2eds/bin/gnu/h-i686-mingw32/bin/../lib/gcc/nios2-elf/4.1.2/../../../../nios2-elf/lib/mno-hw-mul\libm.a(lib_a-s_isnand.o)
 .debug_aranges
                0x00000368       0x20 c:/altera/10.1sp1/nios2eds/bin/gnu/h-i686-mingw32/bin/../lib/gcc/nios2-elf/4.1.2/../../../../nios2-elf/lib/mno-hw-mul\libm.a(lib_a-s_matherr.o)
 .debug_aranges
                0x00000388       0x20 c:/altera/10.1sp1/nios2eds/bin/gnu/h-i686-mingw32/bin/../lib/gcc/nios2-elf/4.1.2/../../../../nios2-elf/lib/mno-hw-mul\libm.a(lib_a-s_scalbn.o)
 .debug_aranges
                0x000003a8       0x20 c:/altera/10.1sp1/nios2eds/bin/gnu/h-i686-mingw32/bin/../lib/gcc/nios2-elf/4.1.2/../../../../nios2-elf/lib/mno-hw-mul\libm.a(lib_a-sf_isnan.o)
 .debug_aranges
                0x000003c8       0x20 c:/altera/10.1sp1/nios2eds/bin/gnu/h-i686-mingw32/bin/../lib/gcc/nios2-elf/4.1.2/../../../../nios2-elf/lib/mno-hw-mul\libm.a(lib_a-s_copysign.o)
 .debug_aranges
                0x000003e8       0x20 c:/altera/10.1sp1/nios2eds/bin/gnu/h-i686-mingw32/bin/../lib/gcc/nios2-elf/4.1.2/mno-hw-mul\libgcc.a(_muldi3.o)
 .debug_aranges
                0x00000408       0x20 c:/altera/10.1sp1/nios2eds/bin/gnu/h-i686-mingw32/bin/../lib/gcc/nios2-elf/4.1.2/mno-hw-mul\libgcc.a(_addsub_sf.o)
 .debug_aranges
                0x00000428       0x20 c:/altera/10.1sp1/nios2eds/bin/gnu/h-i686-mingw32/bin/../lib/gcc/nios2-elf/4.1.2/mno-hw-mul\libgcc.a(_mul_sf.o)
 .debug_aranges
                0x00000448       0x20 c:/altera/10.1sp1/nios2eds/bin/gnu/h-i686-mingw32/bin/../lib/gcc/nios2-elf/4.1.2/mno-hw-mul\libgcc.a(_div_sf.o)
 .debug_aranges
                0x00000468       0x20 c:/altera/10.1sp1/nios2eds/bin/gnu/h-i686-mingw32/bin/../lib/gcc/nios2-elf/4.1.2/mno-hw-mul\libgcc.a(_ge_sf.o)
 .debug_aranges
                0x00000488       0x20 c:/altera/10.1sp1/nios2eds/bin/gnu/h-i686-mingw32/bin/../lib/gcc/nios2-elf/4.1.2/mno-hw-mul\libgcc.a(_lt_sf.o)
 .debug_aranges
                0x000004a8       0x20 c:/altera/10.1sp1/nios2eds/bin/gnu/h-i686-mingw32/bin/../lib/gcc/nios2-elf/4.1.2/mno-hw-mul\libgcc.a(_si_to_sf.o)
 .debug_aranges
                0x000004c8       0x20 c:/altera/10.1sp1/nios2eds/bin/gnu/h-i686-mingw32/bin/../lib/gcc/nios2-elf/4.1.2/mno-hw-mul\libgcc.a(_sf_to_si.o)
 .debug_aranges
                0x000004e8       0x20 c:/altera/10.1sp1/nios2eds/bin/gnu/h-i686-mingw32/bin/../lib/gcc/nios2-elf/4.1.2/mno-hw-mul\libgcc.a(_sf_to_df.o)
 .debug_aranges
                0x00000508       0x20 c:/altera/10.1sp1/nios2eds/bin/gnu/h-i686-mingw32/bin/../lib/gcc/nios2-elf/4.1.2/mno-hw-mul\libgcc.a(_addsub_df.o)
 .debug_aranges
                0x00000528       0x20 c:/altera/10.1sp1/nios2eds/bin/gnu/h-i686-mingw32/bin/../lib/gcc/nios2-elf/4.1.2/mno-hw-mul\libgcc.a(_mul_df.o)
 .debug_aranges
                0x00000548       0x20 c:/altera/10.1sp1/nios2eds/bin/gnu/h-i686-mingw32/bin/../lib/gcc/nios2-elf/4.1.2/mno-hw-mul\libgcc.a(_div_df.o)
 .debug_aranges
                0x00000568       0x20 c:/altera/10.1sp1/nios2eds/bin/gnu/h-i686-mingw32/bin/../lib/gcc/nios2-elf/4.1.2/mno-hw-mul\libgcc.a(_eq_df.o)
 .debug_aranges
                0x00000588       0x20 c:/altera/10.1sp1/nios2eds/bin/gnu/h-i686-mingw32/bin/../lib/gcc/nios2-elf/4.1.2/mno-hw-mul\libgcc.a(_gt_df.o)
 .debug_aranges
                0x000005a8       0x20 c:/altera/10.1sp1/nios2eds/bin/gnu/h-i686-mingw32/bin/../lib/gcc/nios2-elf/4.1.2/mno-hw-mul\libgcc.a(_ge_df.o)
 .debug_aranges
                0x000005c8       0x20 c:/altera/10.1sp1/nios2eds/bin/gnu/h-i686-mingw32/bin/../lib/gcc/nios2-elf/4.1.2/mno-hw-mul\libgcc.a(_lt_df.o)
 .debug_aranges
                0x000005e8       0x20 c:/altera/10.1sp1/nios2eds/bin/gnu/h-i686-mingw32/bin/../lib/gcc/nios2-elf/4.1.2/mno-hw-mul\libgcc.a(_si_to_df.o)
 .debug_aranges
                0x00000608       0x20 c:/altera/10.1sp1/nios2eds/bin/gnu/h-i686-mingw32/bin/../lib/gcc/nios2-elf/4.1.2/mno-hw-mul\libgcc.a(_df_to_si.o)
 .debug_aranges
                0x00000628       0x20 c:/altera/10.1sp1/nios2eds/bin/gnu/h-i686-mingw32/bin/../lib/gcc/nios2-elf/4.1.2/mno-hw-mul\libgcc.a(_make_df.o)
 .debug_aranges
                0x00000648       0x20 c:/altera/10.1sp1/nios2eds/bin/gnu/h-i686-mingw32/bin/../lib/gcc/nios2-elf/4.1.2/mno-hw-mul\libgcc.a(_df_to_sf.o)
 .debug_aranges
                0x00000668       0x20 c:/altera/10.1sp1/nios2eds/bin/gnu/h-i686-mingw32/bin/../lib/gcc/nios2-elf/4.1.2/mno-hw-mul\libgcc.a(_usi_to_df.o)
 .debug_aranges
                0x00000688       0x20 c:/altera/10.1sp1/nios2eds/bin/gnu/h-i686-mingw32/bin/../lib/gcc/nios2-elf/4.1.2/mno-hw-mul\libgcc.a(lib2-divmod.o)
 .debug_aranges
                0x000006a8       0x20 c:/altera/10.1sp1/nios2eds/bin/gnu/h-i686-mingw32/bin/../lib/gcc/nios2-elf/4.1.2/mno-hw-mul\libgcc.a(lib2-mul.o)
 .debug_aranges
                0x000006c8       0x20 c:/altera/10.1sp1/nios2eds/bin/gnu/h-i686-mingw32/bin/../lib/gcc/nios2-elf/4.1.2/mno-hw-mul\libgcc.a(_clzsi2.o)
 .debug_aranges
                0x000006e8       0x20 c:/altera/10.1sp1/nios2eds/bin/gnu/h-i686-mingw32/bin/../lib/gcc/nios2-elf/4.1.2/mno-hw-mul\libgcc.a(_pack_sf.o)
 .debug_aranges
                0x00000708       0x20 c:/altera/10.1sp1/nios2eds/bin/gnu/h-i686-mingw32/bin/../lib/gcc/nios2-elf/4.1.2/mno-hw-mul\libgcc.a(_unpack_sf.o)
 .debug_aranges
                0x00000728       0x20 c:/altera/10.1sp1/nios2eds/bin/gnu/h-i686-mingw32/bin/../lib/gcc/nios2-elf/4.1.2/mno-hw-mul\libgcc.a(_fpcmp_parts_sf.o)
 .debug_aranges
                0x00000748       0x20 c:/altera/10.1sp1/nios2eds/bin/gnu/h-i686-mingw32/bin/../lib/gcc/nios2-elf/4.1.2/mno-hw-mul\libgcc.a(_make_sf.o)
 .debug_aranges
                0x00000768       0x20 c:/altera/10.1sp1/nios2eds/bin/gnu/h-i686-mingw32/bin/../lib/gcc/nios2-elf/4.1.2/mno-hw-mul\libgcc.a(_pack_df.o)
 .debug_aranges
                0x00000788       0x20 c:/altera/10.1sp1/nios2eds/bin/gnu/h-i686-mingw32/bin/../lib/gcc/nios2-elf/4.1.2/mno-hw-mul\libgcc.a(_unpack_df.o)
 .debug_aranges
                0x000007a8       0x20 c:/altera/10.1sp1/nios2eds/bin/gnu/h-i686-mingw32/bin/../lib/gcc/nios2-elf/4.1.2/mno-hw-mul\libgcc.a(_fpcmp_parts_df.o)
 .debug_aranges
                0x000007c8       0x20 c:/altera/10.1sp1/nios2eds/bin/gnu/h-i686-mingw32/bin/../lib/gcc/nios2-elf/4.1.2/../../../../nios2-elf/lib/mno-hw-mul\libc.a(lib_a-errno.o)
 .debug_aranges
                0x000007e8       0x20 c:/altera/10.1sp1/nios2eds/bin/gnu/h-i686-mingw32/bin/../lib/gcc/nios2-elf/4.1.2/../../../../nios2-elf/lib/mno-hw-mul\libc.a(lib_a-fprintf.o)
 .debug_aranges
                0x00000808       0x20 c:/altera/10.1sp1/nios2eds/bin/gnu/h-i686-mingw32/bin/../lib/gcc/nios2-elf/4.1.2/../../../../nios2-elf/lib/mno-hw-mul\libc.a(lib_a-fwrite.o)
 .debug_aranges
                0x00000828       0x20 c:/altera/10.1sp1/nios2eds/bin/gnu/h-i686-mingw32/bin/../lib/gcc/nios2-elf/4.1.2/../../../../nios2-elf/lib/mno-hw-mul\libc.a(lib_a-getc.o)
 .debug_aranges
                0x00000848       0x20 c:/altera/10.1sp1/nios2eds/bin/gnu/h-i686-mingw32/bin/../lib/gcc/nios2-elf/4.1.2/../../../../nios2-elf/lib/mno-hw-mul\libc.a(lib_a-malign.o)
 .debug_aranges
                0x00000868       0x20 c:/altera/10.1sp1/nios2eds/bin/gnu/h-i686-mingw32/bin/../lib/gcc/nios2-elf/4.1.2/../../../../nios2-elf/lib/mno-hw-mul\libc.a(lib_a-malignr.o)
 .debug_aranges
                0x00000888       0x20 c:/altera/10.1sp1/nios2eds/bin/gnu/h-i686-mingw32/bin/../lib/gcc/nios2-elf/4.1.2/../../../../nios2-elf/lib/mno-hw-mul\libc.a(lib_a-malloc.o)
 .debug_aranges
                0x000008a8       0x20 c:/altera/10.1sp1/nios2eds/bin/gnu/h-i686-mingw32/bin/../lib/gcc/nios2-elf/4.1.2/../../../../nios2-elf/lib/mno-hw-mul\libc.a(lib_a-mallocr.o)
 .debug_aranges
                0x000008c8       0x20 c:/altera/10.1sp1/nios2eds/bin/gnu/h-i686-mingw32/bin/../lib/gcc/nios2-elf/4.1.2/../../../../nios2-elf/lib/mno-hw-mul\libc.a(lib_a-memcpy.o)
 .debug_aranges
                0x000008e8       0x20 c:/altera/10.1sp1/nios2eds/bin/gnu/h-i686-mingw32/bin/../lib/gcc/nios2-elf/4.1.2/../../../../nios2-elf/lib/mno-hw-mul\libc.a(lib_a-memset.o)
 .debug_aranges
                0x00000908       0x20 c:/altera/10.1sp1/nios2eds/bin/gnu/h-i686-mingw32/bin/../lib/gcc/nios2-elf/4.1.2/../../../../nios2-elf/lib/mno-hw-mul\libc.a(lib_a-perror.o)
 .debug_aranges
                0x00000928       0x20 c:/altera/10.1sp1/nios2eds/bin/gnu/h-i686-mingw32/bin/../lib/gcc/nios2-elf/4.1.2/../../../../nios2-elf/lib/mno-hw-mul\libc.a(lib_a-printf.o)
 .debug_aranges
                0x00000948       0x20 c:/altera/10.1sp1/nios2eds/bin/gnu/h-i686-mingw32/bin/../lib/gcc/nios2-elf/4.1.2/../../../../nios2-elf/lib/mno-hw-mul\libc.a(lib_a-putc.o)
 .debug_aranges
                0x00000968       0x20 c:/altera/10.1sp1/nios2eds/bin/gnu/h-i686-mingw32/bin/../lib/gcc/nios2-elf/4.1.2/../../../../nios2-elf/lib/mno-hw-mul\libc.a(lib_a-putchar.o)
 .debug_aranges
                0x00000988       0x20 c:/altera/10.1sp1/nios2eds/bin/gnu/h-i686-mingw32/bin/../lib/gcc/nios2-elf/4.1.2/../../../../nios2-elf/lib/mno-hw-mul\libc.a(lib_a-puts.o)
 .debug_aranges
                0x000009a8       0x20 c:/altera/10.1sp1/nios2eds/bin/gnu/h-i686-mingw32/bin/../lib/gcc/nios2-elf/4.1.2/../../../../nios2-elf/lib/mno-hw-mul\libc.a(lib_a-rget.o)
 .debug_aranges
                0x000009c8       0x20 c:/altera/10.1sp1/nios2eds/bin/gnu/h-i686-mingw32/bin/../lib/gcc/nios2-elf/4.1.2/../../../../nios2-elf/lib/mno-hw-mul\libc.a(lib_a-sbrkr.o)
 .debug_aranges
                0x000009e8       0x20 c:/altera/10.1sp1/nios2eds/bin/gnu/h-i686-mingw32/bin/../lib/gcc/nios2-elf/4.1.2/../../../../nios2-elf/lib/mno-hw-mul\libc.a(lib_a-sprintf.o)
 .debug_aranges
                0x00000a08       0x20 c:/altera/10.1sp1/nios2eds/bin/gnu/h-i686-mingw32/bin/../lib/gcc/nios2-elf/4.1.2/../../../../nios2-elf/lib/mno-hw-mul\libc.a(lib_a-strcpy.o)
 .debug_aranges
                0x00000a28       0x20 c:/altera/10.1sp1/nios2eds/bin/gnu/h-i686-mingw32/bin/../lib/gcc/nios2-elf/4.1.2/../../../../nios2-elf/lib/mno-hw-mul\libc.a(lib_a-strerror.o)
 .debug_aranges
                0x00000a48       0x20 c:/altera/10.1sp1/nios2eds/bin/gnu/h-i686-mingw32/bin/../lib/gcc/nios2-elf/4.1.2/../../../../nios2-elf/lib/mno-hw-mul\libc.a(lib_a-strlen.o)
 .debug_aranges
                0x00000a68       0x20 c:/altera/10.1sp1/nios2eds/bin/gnu/h-i686-mingw32/bin/../lib/gcc/nios2-elf/4.1.2/../../../../nios2-elf/lib/mno-hw-mul\libc.a(lib_a-u_strerr.o)
 .debug_aranges
                0x00000a88       0x20 c:/altera/10.1sp1/nios2eds/bin/gnu/h-i686-mingw32/bin/../lib/gcc/nios2-elf/4.1.2/../../../../nios2-elf/lib/mno-hw-mul\libc.a(lib_a-vfprintf.o)
 .debug_aranges
                0x00000aa8       0x20 c:/altera/10.1sp1/nios2eds/bin/gnu/h-i686-mingw32/bin/../lib/gcc/nios2-elf/4.1.2/../../../../nios2-elf/lib/mno-hw-mul\libc.a(lib_a-wbuf.o)
 .debug_aranges
                0x00000ac8       0x20 c:/altera/10.1sp1/nios2eds/bin/gnu/h-i686-mingw32/bin/../lib/gcc/nios2-elf/4.1.2/../../../../nios2-elf/lib/mno-hw-mul\libc.a(lib_a-wsetup.o)
 .debug_aranges
                0x00000ae8       0x20 c:/altera/10.1sp1/nios2eds/bin/gnu/h-i686-mingw32/bin/../lib/gcc/nios2-elf/4.1.2/../../../../nios2-elf/lib/mno-hw-mul\libc.a(lib_a-dtoa.o)
 .debug_aranges
                0x00000b08       0x20 c:/altera/10.1sp1/nios2eds/bin/gnu/h-i686-mingw32/bin/../lib/gcc/nios2-elf/4.1.2/../../../../nios2-elf/lib/mno-hw-mul\libc.a(lib_a-fflush.o)
 .debug_aranges
                0x00000b28       0x20 c:/altera/10.1sp1/nios2eds/bin/gnu/h-i686-mingw32/bin/../lib/gcc/nios2-elf/4.1.2/../../../../nios2-elf/lib/mno-hw-mul\libc.a(lib_a-findfp.o)
 .debug_aranges
                0x00000b48       0x20 c:/altera/10.1sp1/nios2eds/bin/gnu/h-i686-mingw32/bin/../lib/gcc/nios2-elf/4.1.2/../../../../nios2-elf/lib/mno-hw-mul\libc.a(lib_a-fputc.o)
 .debug_aranges
                0x00000b68       0x20 c:/altera/10.1sp1/nios2eds/bin/gnu/h-i686-mingw32/bin/../lib/gcc/nios2-elf/4.1.2/../../../../nios2-elf/lib/mno-hw-mul\libc.a(lib_a-fputs.o)
 .debug_aranges
                0x00000b88       0x20 c:/altera/10.1sp1/nios2eds/bin/gnu/h-i686-mingw32/bin/../lib/gcc/nios2-elf/4.1.2/../../../../nios2-elf/lib/mno-hw-mul\libc.a(lib_a-freer.o)
 .debug_aranges
                0x00000ba8       0x20 c:/altera/10.1sp1/nios2eds/bin/gnu/h-i686-mingw32/bin/../lib/gcc/nios2-elf/4.1.2/../../../../nios2-elf/lib/mno-hw-mul\libc.a(lib_a-fvwrite.o)
 .debug_aranges
                0x00000bc8       0x20 c:/altera/10.1sp1/nios2eds/bin/gnu/h-i686-mingw32/bin/../lib/gcc/nios2-elf/4.1.2/../../../../nios2-elf/lib/mno-hw-mul\libc.a(lib_a-fwalk.o)
 .debug_aranges
                0x00000be8       0x20 c:/altera/10.1sp1/nios2eds/bin/gnu/h-i686-mingw32/bin/../lib/gcc/nios2-elf/4.1.2/../../../../nios2-elf/lib/mno-hw-mul\libc.a(lib_a-locale.o)
 .debug_aranges
                0x00000c08       0x20 c:/altera/10.1sp1/nios2eds/bin/gnu/h-i686-mingw32/bin/../lib/gcc/nios2-elf/4.1.2/../../../../nios2-elf/lib/mno-hw-mul\libc.a(lib_a-makebuf.o)
 .debug_aranges
                0x00000c28       0x20 c:/altera/10.1sp1/nios2eds/bin/gnu/h-i686-mingw32/bin/../lib/gcc/nios2-elf/4.1.2/../../../../nios2-elf/lib/mno-hw-mul\libc.a(lib_a-memchr.o)
 .debug_aranges
                0x00000c48       0x20 c:/altera/10.1sp1/nios2eds/bin/gnu/h-i686-mingw32/bin/../lib/gcc/nios2-elf/4.1.2/../../../../nios2-elf/lib/mno-hw-mul\libc.a(lib_a-memmove.o)
 .debug_aranges
                0x00000c68       0x20 c:/altera/10.1sp1/nios2eds/bin/gnu/h-i686-mingw32/bin/../lib/gcc/nios2-elf/4.1.2/../../../../nios2-elf/lib/mno-hw-mul\libc.a(lib_a-mprec.o)
 .debug_aranges
                0x00000c88       0x20 c:/altera/10.1sp1/nios2eds/bin/gnu/h-i686-mingw32/bin/../lib/gcc/nios2-elf/4.1.2/../../../../nios2-elf/lib/mno-hw-mul\libc.a(lib_a-reallocr.o)
 .debug_aranges
                0x00000ca8       0x20 c:/altera/10.1sp1/nios2eds/bin/gnu/h-i686-mingw32/bin/../lib/gcc/nios2-elf/4.1.2/../../../../nios2-elf/lib/mno-hw-mul\libc.a(lib_a-refill.o)
 .debug_aranges
                0x00000cc8       0x20 c:/altera/10.1sp1/nios2eds/bin/gnu/h-i686-mingw32/bin/../lib/gcc/nios2-elf/4.1.2/../../../../nios2-elf/lib/mno-hw-mul\libc.a(lib_a-s_isinfd.o)
 .debug_aranges
                0x00000ce8       0x20 c:/altera/10.1sp1/nios2eds/bin/gnu/h-i686-mingw32/bin/../lib/gcc/nios2-elf/4.1.2/../../../../nios2-elf/lib/mno-hw-mul\libc.a(lib_a-stdio.o)
 .debug_aranges
                0x00000d08       0x20 c:/altera/10.1sp1/nios2eds/bin/gnu/h-i686-mingw32/bin/../lib/gcc/nios2-elf/4.1.2/../../../../nios2-elf/lib/mno-hw-mul\libc.a(lib_a-strcmp.o)
 .debug_aranges
                0x00000d28       0x20 c:/altera/10.1sp1/nios2eds/bin/gnu/h-i686-mingw32/bin/../lib/gcc/nios2-elf/4.1.2/../../../../nios2-elf/lib/mno-hw-mul\libc.a(lib_a-writer.o)
 .debug_aranges
                0x00000d48       0x20 c:/altera/10.1sp1/nios2eds/bin/gnu/h-i686-mingw32/bin/../lib/gcc/nios2-elf/4.1.2/../../../../nios2-elf/lib/mno-hw-mul\libc.a(lib_a-callocr.o)
 .debug_aranges
                0x00000d68       0x20 c:/altera/10.1sp1/nios2eds/bin/gnu/h-i686-mingw32/bin/../lib/gcc/nios2-elf/4.1.2/../../../../nios2-elf/lib/mno-hw-mul\libc.a(lib_a-closer.o)
 .debug_aranges
                0x00000d88       0x20 c:/altera/10.1sp1/nios2eds/bin/gnu/h-i686-mingw32/bin/../lib/gcc/nios2-elf/4.1.2/../../../../nios2-elf/lib/mno-hw-mul\libc.a(lib_a-fclose.o)
 .debug_aranges
                0x00000da8       0x20 c:/altera/10.1sp1/nios2eds/bin/gnu/h-i686-mingw32/bin/../lib/gcc/nios2-elf/4.1.2/../../../../nios2-elf/lib/mno-hw-mul\libc.a(lib_a-fstatr.o)
 .debug_aranges
                0x00000dc8       0x20 c:/altera/10.1sp1/nios2eds/bin/gnu/h-i686-mingw32/bin/../lib/gcc/nios2-elf/4.1.2/../../../../nios2-elf/lib/mno-hw-mul\libc.a(lib_a-isattyr.o)
 .debug_aranges
                0x00000de8       0x20 c:/altera/10.1sp1/nios2eds/bin/gnu/h-i686-mingw32/bin/../lib/gcc/nios2-elf/4.1.2/../../../../nios2-elf/lib/mno-hw-mul\libc.a(lib_a-lseekr.o)
 .debug_aranges
                0x00000e08       0x20 c:/altera/10.1sp1/nios2eds/bin/gnu/h-i686-mingw32/bin/../lib/gcc/nios2-elf/4.1.2/../../../../nios2-elf/lib/mno-hw-mul\libc.a(lib_a-readr.o)
 .debug_aranges
                0x00000e28       0x20 c:/altera/10.1sp1/nios2eds/bin/gnu/h-i686-mingw32/bin/../lib/gcc/nios2-elf/4.1.2/mno-hw-mul\libgcc.a(_udivdi3.o)
 .debug_aranges
                0x00000e48       0x20 c:/altera/10.1sp1/nios2eds/bin/gnu/h-i686-mingw32/bin/../lib/gcc/nios2-elf/4.1.2/mno-hw-mul\libgcc.a(_umoddi3.o)
 .debug_aranges
                0x00000e68       0x20 c:/altera/10.1sp1/nios2eds/bin/gnu/h-i686-mingw32/bin/../lib/gcc/nios2-elf/4.1.2/mno-hw-mul\libgcc.a(_ne_df.o)
 .debug_aranges
                0x00000e88       0x20 ../RedeFFTHW_bsp\libucosii_bsp.a(alt_fstat.o)
 .debug_aranges
                0x00000ea8       0x20 ../RedeFFTHW_bsp\libucosii_bsp.a(alt_isatty.o)
 .debug_aranges
                0x00000ec8       0x20 ../RedeFFTHW_bsp\libucosii_bsp.a(alt_load.o)
 .debug_aranges
                0x00000ee8       0x20 ../RedeFFTHW_bsp\libucosii_bsp.a(alt_lseek.o)
 .debug_aranges
                0x00000f08       0x20 ../RedeFFTHW_bsp\libucosii_bsp.a(alt_main.o)
 .debug_aranges
                0x00000f28       0x20 ../RedeFFTHW_bsp\libucosii_bsp.a(alt_remap_cached.o)
 .debug_aranges
                0x00000f48       0x20 ../RedeFFTHW_bsp\libucosii_bsp.a(alt_remap_uncached.o)
 .debug_aranges
                0x00000f68       0x20 ../RedeFFTHW_bsp\libucosii_bsp.a(alt_sbrk.o)
 .debug_aranges
                0x00000f88       0x20 ../RedeFFTHW_bsp\libucosii_bsp.a(alt_tick.o)
 .debug_aranges
                0x00000fa8       0x20 ../RedeFFTHW_bsp\libucosii_bsp.a(alt_uncached_malloc.o)
 .debug_aranges
                0x00000fc8       0x20 ../RedeFFTHW_bsp\libucosii_bsp.a(alt_usleep.o)
 .debug_aranges
                0x00000fe8       0x20 ../RedeFFTHW_bsp\libucosii_bsp.a(alt_env_lock.o)
 .debug_aranges
                0x00001008       0x20 ../RedeFFTHW_bsp\libucosii_bsp.a(alt_malloc_lock.o)
 .debug_aranges
                0x00001028       0x20 ../RedeFFTHW_bsp\libucosii_bsp.a(os_core.o)
 .debug_aranges
                0x00001048       0x20 ../RedeFFTHW_bsp\libucosii_bsp.a(os_dbg.o)
 .debug_aranges
                0x00001068       0x20 ../RedeFFTHW_bsp\libucosii_bsp.a(os_flag.o)
 .debug_aranges
                0x00001088       0x20 ../RedeFFTHW_bsp\libucosii_bsp.a(os_mem.o)
 .debug_aranges
                0x000010a8       0x20 ../RedeFFTHW_bsp\libucosii_bsp.a(os_q.o)
 .debug_aranges
                0x000010c8       0x20 ../RedeFFTHW_bsp\libucosii_bsp.a(os_sem.o)
 .debug_aranges
                0x000010e8       0x20 ../RedeFFTHW_bsp\libucosii_bsp.a(os_task.o)
 .debug_aranges
                0x00001108       0x20 ../RedeFFTHW_bsp\libucosii_bsp.a(os_time.o)
 .debug_aranges
                0x00001128       0x20 ../RedeFFTHW_bsp\libucosii_bsp.a(alt_sys_init.o)
 .debug_aranges
                0x00001148       0x20 ../RedeFFTHW_bsp\libucosii_bsp.a(altera_avalon_jtag_uart_fd.o)
 .debug_aranges
                0x00001168       0x20 ../RedeFFTHW_bsp\libucosii_bsp.a(altera_avalon_jtag_uart_init.o)
 .debug_aranges
                0x00001188       0x20 ../RedeFFTHW_bsp\libucosii_bsp.a(altera_avalon_jtag_uart_ioctl.o)
 .debug_aranges
                0x000011a8       0x20 ../RedeFFTHW_bsp\libucosii_bsp.a(altera_avalon_jtag_uart_read.o)
 .debug_aranges
                0x000011c8       0x20 ../RedeFFTHW_bsp\libucosii_bsp.a(altera_avalon_jtag_uart_write.o)
 .debug_aranges
                0x000011e8       0x20 ../RedeFFTHW_bsp\libucosii_bsp.a(altera_avalon_sgdma.o)
 .debug_aranges
                0x00001208       0x20 ../RedeFFTHW_bsp\libucosii_bsp.a(altera_avalon_timer_sc.o)
 .debug_aranges
                0x00001228       0x20 ../RedeFFTHW_bsp\libucosii_bsp.a(ins_tse_mac.o)
 .debug_aranges
                0x00001248       0x20 ../RedeFFTHW_bsp\libucosii_bsp.a(perf_print_formatted_report.o)
 .debug_aranges
                0x00001268       0x20 ../RedeFFTHW_bsp\libucosii_bsp.a(alt_iniche_close.o)
 .debug_aranges
                0x00001288       0x20 ../RedeFFTHW_bsp\libucosii_bsp.a(alt_iniche_dev.o)
 .debug_aranges
                0x000012a8       0x20 ../RedeFFTHW_bsp\libucosii_bsp.a(alt_iniche_read.o)
 .debug_aranges
                0x000012c8       0x20 ../RedeFFTHW_bsp\libucosii_bsp.a(alt_iniche_write.o)
 .debug_aranges
                0x000012e8       0x20 ../RedeFFTHW_bsp\libucosii_bsp.a(ipnet.o)
 .debug_aranges
                0x00001308       0x20 ../RedeFFTHW_bsp\libucosii_bsp.a(ipstart.o)
 .debug_aranges
                0x00001328       0x20 ../RedeFFTHW_bsp\libucosii_bsp.a(igmp_cmn.o)
 .debug_aranges
                0x00001348       0x20 ../RedeFFTHW_bsp\libucosii_bsp.a(bsdsock.o)
 .debug_aranges
                0x00001368       0x20 ../RedeFFTHW_bsp\libucosii_bsp.a(cksum.o)
 .debug_aranges
                0x00001388       0x20 ../RedeFFTHW_bsp\libucosii_bsp.a(in_utils.o)
 .debug_aranges
                0x000013a8       0x20 ../RedeFFTHW_bsp\libucosii_bsp.a(netmain.o)
 .debug_aranges
                0x000013c8       0x20 ../RedeFFTHW_bsp\libucosii_bsp.a(tk_crnos.o)
 .debug_aranges
                0x000013e8       0x20 ../RedeFFTHW_bsp\libucosii_bsp.a(dhcpclnt.o)
 .debug_aranges
                0x00001408       0x20 ../RedeFFTHW_bsp\libucosii_bsp.a(dhcputil.o)
 .debug_aranges
                0x00001428       0x20 ../RedeFFTHW_bsp\libucosii_bsp.a(pktalloc.o)
 .debug_aranges
                0x00001448       0x20 ../RedeFFTHW_bsp\libucosii_bsp.a(q.o)
 .debug_aranges
                0x00001468       0x20 ../RedeFFTHW_bsp\libucosii_bsp.a(udp_open.o)
 .debug_aranges
                0x00001488       0x20 ../RedeFFTHW_bsp\libucosii_bsp.a(asm_cksum.o)
 .debug_aranges
                0x000014a8       0x20 ../RedeFFTHW_bsp\libucosii_bsp.a(brdutils.o)
 .debug_aranges
                0x000014c8       0x20 ../RedeFFTHW_bsp\libucosii_bsp.a(osportco.o)
 .debug_aranges
                0x000014e8       0x20 ../RedeFFTHW_bsp\libucosii_bsp.a(targnios.o)
 .debug_aranges
                0x00001508       0x20 ../RedeFFTHW_bsp\libucosii_bsp.a(nptcp.o)
 .debug_aranges
                0x00001528       0x20 ../RedeFFTHW_bsp\libucosii_bsp.a(rawsock.o)
 .debug_aranges
                0x00001548       0x20 ../RedeFFTHW_bsp\libucosii_bsp.a(sockcall.o)
 .debug_aranges
                0x00001568       0x20 ../RedeFFTHW_bsp\libucosii_bsp.a(socket.o)
 .debug_aranges
                0x00001588       0x20 ../RedeFFTHW_bsp\libucosii_bsp.a(socket2.o)
 .debug_aranges
                0x000015a8       0x20 ../RedeFFTHW_bsp\libucosii_bsp.a(soselect.o)
 .debug_aranges
                0x000015c8       0x20 ../RedeFFTHW_bsp\libucosii_bsp.a(tcp_in.o)
 .debug_aranges
                0x000015e8       0x20 ../RedeFFTHW_bsp\libucosii_bsp.a(tcp_out.o)
 .debug_aranges
                0x00001608       0x20 ../RedeFFTHW_bsp\libucosii_bsp.a(tcp_subr.o)
 .debug_aranges
                0x00001628       0x20 ../RedeFFTHW_bsp\libucosii_bsp.a(tcp_timr.o)
 .debug_aranges
                0x00001648       0x20 ../RedeFFTHW_bsp\libucosii_bsp.a(tcp_usr.o)
 .debug_aranges
                0x00001668       0x20 ../RedeFFTHW_bsp\libucosii_bsp.a(tcpport.o)
 .debug_aranges
                0x00001688       0x20 ../RedeFFTHW_bsp\libucosii_bsp.a(udpsock.o)
 .debug_aranges
                0x000016a8       0x20 ../RedeFFTHW_bsp\libucosii_bsp.a(alt_alarm_start.o)
 .debug_aranges
                0x000016c8       0x20 ../RedeFFTHW_bsp\libucosii_bsp.a(alt_busy_sleep.o)
 .debug_aranges
                0x000016e8       0x20 ../RedeFFTHW_bsp\libucosii_bsp.a(alt_close.o)
 .debug_aranges
                0x00001708       0x20 ../RedeFFTHW_bsp\libucosii_bsp.a(alt_dcache_flush.o)
 .debug_aranges
                0x00001728       0x20 ../RedeFFTHW_bsp\libucosii_bsp.a(alt_dcache_flush_all.o)
 .debug_aranges
                0x00001748       0x20 ../RedeFFTHW_bsp\libucosii_bsp.a(alt_dev.o)
 .debug_aranges
                0x00001768       0x20 ../RedeFFTHW_bsp\libucosii_bsp.a(alt_dev_llist_insert.o)
 .debug_aranges
                0x00001788       0x20 ../RedeFFTHW_bsp\libucosii_bsp.a(alt_do_ctors.o)
 .debug_aranges
                0x000017a8       0x20 ../RedeFFTHW_bsp\libucosii_bsp.a(alt_do_dtors.o)
 .debug_aranges
                0x000017c8       0x20 ../RedeFFTHW_bsp\libucosii_bsp.a(alt_find_dev.o)
 .debug_aranges
                0x000017e8       0x20 ../RedeFFTHW_bsp\libucosii_bsp.a(alt_icache_flush_all.o)
 .debug_aranges
                0x00001808       0x20 ../RedeFFTHW_bsp\libucosii_bsp.a(alt_iic.o)
 .debug_aranges
                0x00001828       0x20 ../RedeFFTHW_bsp\libucosii_bsp.a(alt_iic_isr_register.o)
 .debug_aranges
                0x00001848       0x20 ../RedeFFTHW_bsp\libucosii_bsp.a(alt_io_redirect.o)
 .debug_aranges
                0x00001868       0x30 ../RedeFFTHW_bsp\libucosii_bsp.a(alt_irq_entry.o)
 .debug_aranges
                0x00001898       0x28 ../RedeFFTHW_bsp\libucosii_bsp.a(alt_irq_handler.o)
 .debug_aranges
                0x000018c0       0x20 ../RedeFFTHW_bsp\libucosii_bsp.a(alt_open.o)
 .debug_aranges
                0x000018e0       0x20 ../RedeFFTHW_bsp\libucosii_bsp.a(alt_read.o)
 .debug_aranges
                0x00001900       0x20 ../RedeFFTHW_bsp\libucosii_bsp.a(alt_release_fd.o)
 .debug_aranges
                0x00001920       0x20 ../RedeFFTHW_bsp\libucosii_bsp.a(alt_write.o)
 .debug_aranges
                0x00001940       0x20 ../RedeFFTHW_bsp\libucosii_bsp.a(altera_nios2_irq.o)
 .debug_aranges
                0x00001960       0x20 ../RedeFFTHW_bsp\libucosii_bsp.a(os_cpu_a.o)
 .debug_aranges
                0x00001980       0x20 ../RedeFFTHW_bsp\libucosii_bsp.a(os_cpu_c.o)
 .debug_aranges
                0x000019a0       0x20 ../RedeFFTHW_bsp\libucosii_bsp.a(altera_avalon_performance_counter.o)
 .debug_aranges
                0x000019c0       0x20 ../RedeFFTHW_bsp\libucosii_bsp.a(altera_avalon_tse.o)
 .debug_aranges
                0x000019e0       0x20 ../RedeFFTHW_bsp\libucosii_bsp.a(allports.o)
 .debug_aranges
                0x00001a00       0x20 ../RedeFFTHW_bsp\libucosii_bsp.a(timeouts.o)
 .debug_aranges
                0x00001a20       0x20 ../RedeFFTHW_bsp\libucosii_bsp.a(tk_misc.o)
 .debug_aranges
                0x00001a40       0x20 ../RedeFFTHW_bsp\libucosii_bsp.a(alt_iniche_fcntl.o)
 .debug_aranges
                0x00001a60       0x20 ../RedeFFTHW_bsp\libucosii_bsp.a(et_arp.o)
 .debug_aranges
                0x00001a80       0x20 ../RedeFFTHW_bsp\libucosii_bsp.a(iface.o)
 .debug_aranges
                0x00001aa0       0x20 ../RedeFFTHW_bsp\libucosii_bsp.a(ip.o)
 .debug_aranges
                0x00001ac0       0x20 ../RedeFFTHW_bsp\libucosii_bsp.a(ip_reasm.o)
 .debug_aranges
                0x00001ae0       0x20 ../RedeFFTHW_bsp\libucosii_bsp.a(ipdemux.o)
 .debug_aranges
                0x00001b00       0x20 ../RedeFFTHW_bsp\libucosii_bsp.a(ipmc.o)
 .debug_aranges
                0x00001b20       0x20 ../RedeFFTHW_bsp\libucosii_bsp.a(ipport.o)
 .debug_aranges
                0x00001b40       0x20 ../RedeFFTHW_bsp\libucosii_bsp.a(ipraw.o)
 .debug_aranges
                0x00001b60       0x20 ../RedeFFTHW_bsp\libucosii_bsp.a(iproute.o)
 .debug_aranges
                0x00001b80       0x20 ../RedeFFTHW_bsp\libucosii_bsp.a(udp.o)
 .debug_aranges
                0x00001ba0       0x20 ../RedeFFTHW_bsp\libucosii_bsp.a(igmp.o)
 .debug_aranges
                0x00001bc0       0x20 ../RedeFFTHW_bsp\libucosii_bsp.a(igmp2.o)
 .debug_aranges
                0x00001be0       0x20 ../RedeFFTHW_bsp\libucosii_bsp.a(ipopt.o)
 .debug_aranges
                0x00001c00       0x20 ../RedeFFTHW_bsp\libucosii_bsp.a(u_mctest.o)
 .debug_aranges
                0x00001c20       0x20 ../RedeFFTHW_bsp\libucosii_bsp.a(dhcsetup.o)
 .debug_aranges
                0x00001c40       0x20 ../RedeFFTHW_bsp\libucosii_bsp.a(memdev.o)
 .debug_aranges
                0x00001c60       0x20 ../RedeFFTHW_bsp\libucosii_bsp.a(parseip.o)
 .debug_aranges
                0x00001c80       0x20 ../RedeFFTHW_bsp\libucosii_bsp.a(tcpcksum.o)
 .debug_aranges
                0x00001ca0       0x20 ../RedeFFTHW_bsp\libucosii_bsp.a(in_pcb.o)
 .debug_aranges
                0x00001cc0       0x20 ../RedeFFTHW_bsp\libucosii_bsp.a(vfsfiles.o)
 .debug_aranges
                0x00001ce0       0x20 ../RedeFFTHW_bsp\libucosii_bsp.a(vfsport.o)
 .debug_aranges
                0x00001d00       0x38 ../RedeFFTHW_bsp\libucosii_bsp.a(alt_exception_entry.o)
 .debug_aranges
                0x00001d38       0x20 ../RedeFFTHW_bsp\libucosii_bsp.a(alt_fcntl.o)
 .debug_aranges
                0x00001d58       0x20 ../RedeFFTHW_bsp\libucosii_bsp.a(alt_find_file.o)
 .debug_aranges
                0x00001d78       0x20 ../RedeFFTHW_bsp\libucosii_bsp.a(alt_get_fd.o)
 .debug_aranges
                0x00001d98       0x20 ../RedeFFTHW_bsp\libucosii_bsp.a(icmp.o)
 .debug_aranges
                0x00001db8       0x20 c:/altera/10.1sp1/nios2eds/bin/gnu/h-i686-mingw32/bin/../lib/gcc/nios2-elf/4.1.2/../../../../nios2-elf/lib/mno-hw-mul\libc.a(lib_a-atexit.o)
 .debug_aranges
                0x00001dd8       0x20 c:/altera/10.1sp1/nios2eds/bin/gnu/h-i686-mingw32/bin/../lib/gcc/nios2-elf/4.1.2/../../../../nios2-elf/lib/mno-hw-mul\libc.a(lib_a-atoi.o)
 .debug_aranges
                0x00001df8       0x20 c:/altera/10.1sp1/nios2eds/bin/gnu/h-i686-mingw32/bin/../lib/gcc/nios2-elf/4.1.2/../../../../nios2-elf/lib/mno-hw-mul\libc.a(lib_a-calloc.o)
 .debug_aranges
                0x00001e18       0x20 c:/altera/10.1sp1/nios2eds/bin/gnu/h-i686-mingw32/bin/../lib/gcc/nios2-elf/4.1.2/../../../../nios2-elf/lib/mno-hw-mul\libc.a(lib_a-exit.o)
 .debug_aranges
                0x00001e38       0x20 c:/altera/10.1sp1/nios2eds/bin/gnu/h-i686-mingw32/bin/../lib/gcc/nios2-elf/4.1.2/../../../../nios2-elf/lib/mno-hw-mul\libc.a(lib_a-memcmp.o)
 .debug_aranges
                0x00001e58       0x20 c:/altera/10.1sp1/nios2eds/bin/gnu/h-i686-mingw32/bin/../lib/gcc/nios2-elf/4.1.2/../../../../nios2-elf/lib/mno-hw-mul\libc.a(lib_a-strchr.o)
 .debug_aranges
                0x00001e78       0x20 c:/altera/10.1sp1/nios2eds/bin/gnu/h-i686-mingw32/bin/../lib/gcc/nios2-elf/4.1.2/../../../../nios2-elf/lib/mno-hw-mul\libc.a(lib_a-strncmp.o)
 .debug_aranges
                0x00001e98       0x20 c:/altera/10.1sp1/nios2eds/bin/gnu/h-i686-mingw32/bin/../lib/gcc/nios2-elf/4.1.2/../../../../nios2-elf/lib/mno-hw-mul\libc.a(lib_a-strncpy.o)
 .debug_aranges
                0x00001eb8       0x20 c:/altera/10.1sp1/nios2eds/bin/gnu/h-i686-mingw32/bin/../lib/gcc/nios2-elf/4.1.2/../../../../nios2-elf/lib/mno-hw-mul\libc.a(lib_a-strtol.o)
 .debug_aranges
                0x00001ed8       0x20 c:/altera/10.1sp1/nios2eds/bin/gnu/h-i686-mingw32/bin/../lib/gcc/nios2-elf/4.1.2/../../../../nios2-elf/lib/mno-hw-mul\libc.a(lib_a-vprintf.o)
 .debug_aranges
                0x00001ef8       0x20 c:/altera/10.1sp1/nios2eds/bin/gnu/h-i686-mingw32/bin/../lib/gcc/nios2-elf/4.1.2/../../../../nios2-elf/lib/mno-hw-mul\libc.a(lib_a-vsprintf.o)
 .debug_aranges
                0x00001f18       0x20 c:/altera/10.1sp1/nios2eds/bin/gnu/h-i686-mingw32/bin/../lib/gcc/nios2-elf/4.1.2/../../../../nios2-elf/lib/mno-hw-mul\libc.a(lib_a-__atexit.o)
 .debug_aranges
                0x00001f38       0x20 c:/altera/10.1sp1/nios2eds/bin/gnu/h-i686-mingw32/bin/../lib/gcc/nios2-elf/4.1.2/../../../../nios2-elf/lib/mno-hw-mul\libc.a(lib_a-__call_atexit.o)
 .debug_aranges
                0x00001f58       0x20 c:/altera/10.1sp1/nios2eds/bin/gnu/h-i686-mingw32/bin/../lib/gcc/nios2-elf/4.1.2/mno-hw-mul\libgcc.a(_floatundidf.o)
 .debug_aranges
                0x00001f78       0x20 ../RedeFFTHW_bsp\libucosii_bsp.a(alt_exit.o)

.debug_pubnames
                0x00000000     0x6cbb
 *(.debug_pubnames)
 .debug_pubnames
                0x00000000      0x337 obj/AquisicaoRede.o
 .debug_pubnames
                0x00000337      0x22f obj/DanWindow/DanWindow.o
 .debug_pubnames
                0x00000566      0x123 obj/FFT/simpleDFT.o
 .debug_pubnames
                0x00000689      0x392 obj/LCDTask.o
 .debug_pubnames
                0x00000a1b      0x199 obj/TerminalSerial.o
 .debug_pubnames
                0x00000bb4       0x61 obj/alt_error_handler.o
 .debug_pubnames
                0x00000c15       0xfb obj/alt_tpo_lcd/alt_tpo_lcd.o
 .debug_pubnames
                0x00000d10      0x143 obj/alt_video_display/alt_video_display.o
 .debug_pubnames
                0x00000e53       0x96 obj/fixedpoint2_16.o
 .debug_pubnames
                0x00000ee9      0x27a obj/graphics_lib/simple_graphics.o
 .debug_pubnames
                0x00001163       0x5e obj/iniche_init.o
 .debug_pubnames
                0x000011c1       0xe7 obj/network_utilities.o
 .debug_pubnames
                0x000012a8      0x23a obj/simple_socket_server.o
 .debug_pubnames
                0x000014e2       0x1a c:/altera/10.1sp1/nios2eds/bin/gnu/h-i686-mingw32/bin/../lib/gcc/nios2-elf/4.1.2/../../../../nios2-elf/lib/mno-hw-mul\libm.a(lib_a-s_cos.o)
 .debug_pubnames
                0x000014fc       0x1a c:/altera/10.1sp1/nios2eds/bin/gnu/h-i686-mingw32/bin/../lib/gcc/nios2-elf/4.1.2/../../../../nios2-elf/lib/mno-hw-mul\libm.a(lib_a-s_sin.o)
 .debug_pubnames
                0x00001516       0x1b c:/altera/10.1sp1/nios2eds/bin/gnu/h-i686-mingw32/bin/../lib/gcc/nios2-elf/4.1.2/../../../../nios2-elf/lib/mno-hw-mul\libm.a(lib_a-w_sqrt.o)
 .debug_pubnames
                0x00001531       0x1c c:/altera/10.1sp1/nios2eds/bin/gnu/h-i686-mingw32/bin/../lib/gcc/nios2-elf/4.1.2/../../../../nios2-elf/lib/mno-hw-mul\libm.a(lib_a-wf_sqrt.o)
 .debug_pubnames
                0x0000154d       0x29 c:/altera/10.1sp1/nios2eds/bin/gnu/h-i686-mingw32/bin/../lib/gcc/nios2-elf/4.1.2/../../../../nios2-elf/lib/mno-hw-mul\libm.a(lib_a-e_rem_pio2.o)
 .debug_pubnames
                0x00001576       0x25 c:/altera/10.1sp1/nios2eds/bin/gnu/h-i686-mingw32/bin/../lib/gcc/nios2-elf/4.1.2/../../../../nios2-elf/lib/mno-hw-mul\libm.a(lib_a-e_sqrt.o)
 .debug_pubnames
                0x0000159b       0x26 c:/altera/10.1sp1/nios2eds/bin/gnu/h-i686-mingw32/bin/../lib/gcc/nios2-elf/4.1.2/../../../../nios2-elf/lib/mno-hw-mul\libm.a(lib_a-ef_sqrt.o)
 .debug_pubnames
                0x000015c1       0x23 c:/altera/10.1sp1/nios2eds/bin/gnu/h-i686-mingw32/bin/../lib/gcc/nios2-elf/4.1.2/../../../../nios2-elf/lib/mno-hw-mul\libm.a(lib_a-k_cos.o)
 .debug_pubnames
                0x000015e4       0x28 c:/altera/10.1sp1/nios2eds/bin/gnu/h-i686-mingw32/bin/../lib/gcc/nios2-elf/4.1.2/../../../../nios2-elf/lib/mno-hw-mul\libm.a(lib_a-k_rem_pio2.o)
 .debug_pubnames
                0x0000160c       0x23 c:/altera/10.1sp1/nios2eds/bin/gnu/h-i686-mingw32/bin/../lib/gcc/nios2-elf/4.1.2/../../../../nios2-elf/lib/mno-hw-mul\libm.a(lib_a-k_sin.o)
 .debug_pubnames
                0x0000162f       0x1b c:/altera/10.1sp1/nios2eds/bin/gnu/h-i686-mingw32/bin/../lib/gcc/nios2-elf/4.1.2/../../../../nios2-elf/lib/mno-hw-mul\libm.a(lib_a-s_fabs.o)
 .debug_pubnames
                0x0000164a       0x1c c:/altera/10.1sp1/nios2eds/bin/gnu/h-i686-mingw32/bin/../lib/gcc/nios2-elf/4.1.2/../../../../nios2-elf/lib/mno-hw-mul\libm.a(lib_a-s_floor.o)
 .debug_pubnames
                0x00001666       0x1f c:/altera/10.1sp1/nios2eds/bin/gnu/h-i686-mingw32/bin/../lib/gcc/nios2-elf/4.1.2/../../../../nios2-elf/lib/mno-hw-mul\libm.a(lib_a-s_isnand.o)
 .debug_pubnames
                0x00001685       0x26 c:/altera/10.1sp1/nios2eds/bin/gnu/h-i686-mingw32/bin/../lib/gcc/nios2-elf/4.1.2/../../../../nios2-elf/lib/mno-hw-mul\libm.a(lib_a-s_lib_ver.o)
 .debug_pubnames
                0x000016ab       0x1e c:/altera/10.1sp1/nios2eds/bin/gnu/h-i686-mingw32/bin/../lib/gcc/nios2-elf/4.1.2/../../../../nios2-elf/lib/mno-hw-mul\libm.a(lib_a-s_matherr.o)
 .debug_pubnames
                0x000016c9       0x1d c:/altera/10.1sp1/nios2eds/bin/gnu/h-i686-mingw32/bin/../lib/gcc/nios2-elf/4.1.2/../../../../nios2-elf/lib/mno-hw-mul\libm.a(lib_a-s_scalbn.o)
 .debug_pubnames
                0x000016e6       0x1d c:/altera/10.1sp1/nios2eds/bin/gnu/h-i686-mingw32/bin/../lib/gcc/nios2-elf/4.1.2/../../../../nios2-elf/lib/mno-hw-mul\libm.a(lib_a-sf_isnan.o)
 .debug_pubnames
                0x00001703       0x1f c:/altera/10.1sp1/nios2eds/bin/gnu/h-i686-mingw32/bin/../lib/gcc/nios2-elf/4.1.2/../../../../nios2-elf/lib/mno-hw-mul\libm.a(lib_a-s_copysign.o)
 .debug_pubnames
                0x00001722       0x1f c:/altera/10.1sp1/nios2eds/bin/gnu/h-i686-mingw32/bin/../lib/gcc/nios2-elf/4.1.2/mno-hw-mul\libgcc.a(_muldi3.o)
 .debug_pubnames
                0x00001741       0x2c c:/altera/10.1sp1/nios2eds/bin/gnu/h-i686-mingw32/bin/../lib/gcc/nios2-elf/4.1.2/mno-hw-mul\libgcc.a(_addsub_sf.o)
 .debug_pubnames
                0x0000176d       0x1f c:/altera/10.1sp1/nios2eds/bin/gnu/h-i686-mingw32/bin/../lib/gcc/nios2-elf/4.1.2/mno-hw-mul\libgcc.a(_mul_sf.o)
 .debug_pubnames
                0x0000178c       0x1f c:/altera/10.1sp1/nios2eds/bin/gnu/h-i686-mingw32/bin/../lib/gcc/nios2-elf/4.1.2/mno-hw-mul\libgcc.a(_div_sf.o)
 .debug_pubnames
                0x000017ab       0x1e c:/altera/10.1sp1/nios2eds/bin/gnu/h-i686-mingw32/bin/../lib/gcc/nios2-elf/4.1.2/mno-hw-mul\libgcc.a(_ge_sf.o)
 .debug_pubnames
                0x000017c9       0x1e c:/altera/10.1sp1/nios2eds/bin/gnu/h-i686-mingw32/bin/../lib/gcc/nios2-elf/4.1.2/mno-hw-mul\libgcc.a(_lt_sf.o)
 .debug_pubnames
                0x000017e7       0x22 c:/altera/10.1sp1/nios2eds/bin/gnu/h-i686-mingw32/bin/../lib/gcc/nios2-elf/4.1.2/mno-hw-mul\libgcc.a(_si_to_sf.o)
 .debug_pubnames
                0x00001809       0x20 c:/altera/10.1sp1/nios2eds/bin/gnu/h-i686-mingw32/bin/../lib/gcc/nios2-elf/4.1.2/mno-hw-mul\libgcc.a(_sf_to_si.o)
 .debug_pubnames
                0x00001829       0x24 c:/altera/10.1sp1/nios2eds/bin/gnu/h-i686-mingw32/bin/../lib/gcc/nios2-elf/4.1.2/mno-hw-mul\libgcc.a(_sf_to_df.o)
 .debug_pubnames
                0x0000184d       0x22 c:/altera/10.1sp1/nios2eds/bin/gnu/h-i686-mingw32/bin/../lib/gcc/nios2-elf/4.1.2/mno-hw-mul\libgcc.a(_thenan_sf.o)
 .debug_pubnames
                0x0000186f       0x2c c:/altera/10.1sp1/nios2eds/bin/gnu/h-i686-mingw32/bin/../lib/gcc/nios2-elf/4.1.2/mno-hw-mul\libgcc.a(_addsub_df.o)
 .debug_pubnames
                0x0000189b       0x1f c:/altera/10.1sp1/nios2eds/bin/gnu/h-i686-mingw32/bin/../lib/gcc/nios2-elf/4.1.2/mno-hw-mul\libgcc.a(_mul_df.o)
 .debug_pubnames
                0x000018ba       0x1f c:/altera/10.1sp1/nios2eds/bin/gnu/h-i686-mingw32/bin/../lib/gcc/nios2-elf/4.1.2/mno-hw-mul\libgcc.a(_div_df.o)
 .debug_pubnames
                0x000018d9       0x1e c:/altera/10.1sp1/nios2eds/bin/gnu/h-i686-mingw32/bin/../lib/gcc/nios2-elf/4.1.2/mno-hw-mul\libgcc.a(_eq_df.o)
 .debug_pubnames
                0x000018f7       0x1e c:/altera/10.1sp1/nios2eds/bin/gnu/h-i686-mingw32/bin/../lib/gcc/nios2-elf/4.1.2/mno-hw-mul\libgcc.a(_gt_df.o)
 .debug_pubnames
                0x00001915       0x1e c:/altera/10.1sp1/nios2eds/bin/gnu/h-i686-mingw32/bin/../lib/gcc/nios2-elf/4.1.2/mno-hw-mul\libgcc.a(_ge_df.o)
 .debug_pubnames
                0x00001933       0x1e c:/altera/10.1sp1/nios2eds/bin/gnu/h-i686-mingw32/bin/../lib/gcc/nios2-elf/4.1.2/mno-hw-mul\libgcc.a(_lt_df.o)
 .debug_pubnames
                0x00001951       0x22 c:/altera/10.1sp1/nios2eds/bin/gnu/h-i686-mingw32/bin/../lib/gcc/nios2-elf/4.1.2/mno-hw-mul\libgcc.a(_si_to_df.o)
 .debug_pubnames
                0x00001973       0x20 c:/altera/10.1sp1/nios2eds/bin/gnu/h-i686-mingw32/bin/../lib/gcc/nios2-elf/4.1.2/mno-hw-mul\libgcc.a(_df_to_si.o)
 .debug_pubnames
                0x00001993       0x20 c:/altera/10.1sp1/nios2eds/bin/gnu/h-i686-mingw32/bin/../lib/gcc/nios2-elf/4.1.2/mno-hw-mul\libgcc.a(_make_df.o)
 .debug_pubnames
                0x000019b3       0x23 c:/altera/10.1sp1/nios2eds/bin/gnu/h-i686-mingw32/bin/../lib/gcc/nios2-elf/4.1.2/mno-hw-mul\libgcc.a(_df_to_sf.o)
 .debug_pubnames
                0x000019d6       0x22 c:/altera/10.1sp1/nios2eds/bin/gnu/h-i686-mingw32/bin/../lib/gcc/nios2-elf/4.1.2/mno-hw-mul\libgcc.a(_thenan_df.o)
 .debug_pubnames
                0x000019f8       0x24 c:/altera/10.1sp1/nios2eds/bin/gnu/h-i686-mingw32/bin/../lib/gcc/nios2-elf/4.1.2/mno-hw-mul\libgcc.a(_usi_to_df.o)
 .debug_pubnames
                0x00001a1c       0x48 c:/altera/10.1sp1/nios2eds/bin/gnu/h-i686-mingw32/bin/../lib/gcc/nios2-elf/4.1.2/mno-hw-mul\libgcc.a(lib2-divmod.o)
 .debug_pubnames
                0x00001a64       0x1f c:/altera/10.1sp1/nios2eds/bin/gnu/h-i686-mingw32/bin/../lib/gcc/nios2-elf/4.1.2/mno-hw-mul\libgcc.a(lib2-mul.o)
 .debug_pubnames
                0x00001a83       0x1f c:/altera/10.1sp1/nios2eds/bin/gnu/h-i686-mingw32/bin/../lib/gcc/nios2-elf/4.1.2/mno-hw-mul\libgcc.a(_clzsi2.o)
 .debug_pubnames
                0x00001aa2       0x1f c:/altera/10.1sp1/nios2eds/bin/gnu/h-i686-mingw32/bin/../lib/gcc/nios2-elf/4.1.2/mno-hw-mul\libgcc.a(_pack_sf.o)
 .debug_pubnames
                0x00001ac1       0x21 c:/altera/10.1sp1/nios2eds/bin/gnu/h-i686-mingw32/bin/../lib/gcc/nios2-elf/4.1.2/mno-hw-mul\libgcc.a(_unpack_sf.o)
 .debug_pubnames
                0x00001ae2       0x26 c:/altera/10.1sp1/nios2eds/bin/gnu/h-i686-mingw32/bin/../lib/gcc/nios2-elf/4.1.2/mno-hw-mul\libgcc.a(_fpcmp_parts_sf.o)
 .debug_pubnames
                0x00001b08       0x20 c:/altera/10.1sp1/nios2eds/bin/gnu/h-i686-mingw32/bin/../lib/gcc/nios2-elf/4.1.2/mno-hw-mul\libgcc.a(_make_sf.o)
 .debug_pubnames
                0x00001b28       0x1f c:/altera/10.1sp1/nios2eds/bin/gnu/h-i686-mingw32/bin/../lib/gcc/nios2-elf/4.1.2/mno-hw-mul\libgcc.a(_pack_df.o)
 .debug_pubnames
                0x00001b47       0x21 c:/altera/10.1sp1/nios2eds/bin/gnu/h-i686-mingw32/bin/../lib/gcc/nios2-elf/4.1.2/mno-hw-mul\libgcc.a(_unpack_df.o)
 .debug_pubnames
                0x00001b68       0x26 c:/altera/10.1sp1/nios2eds/bin/gnu/h-i686-mingw32/bin/../lib/gcc/nios2-elf/4.1.2/mno-hw-mul\libgcc.a(_fpcmp_parts_df.o)
 .debug_pubnames
                0x00001b8e       0x20 c:/altera/10.1sp1/nios2eds/bin/gnu/h-i686-mingw32/bin/../lib/gcc/nios2-elf/4.1.2/mno-hw-mul\libgcc.a(_clz.o)
 .debug_pubnames
                0x00001bae       0x2e c:/altera/10.1sp1/nios2eds/bin/gnu/h-i686-mingw32/bin/../lib/gcc/nios2-elf/4.1.2/../../../../nios2-elf/lib/mno-hw-mul\libc.a(lib_a-ctype_.o)
 .debug_pubnames
                0x00001bdc       0x1e c:/altera/10.1sp1/nios2eds/bin/gnu/h-i686-mingw32/bin/../lib/gcc/nios2-elf/4.1.2/../../../../nios2-elf/lib/mno-hw-mul\libc.a(lib_a-errno.o)
 .debug_pubnames
                0x00001bfa       0x2d c:/altera/10.1sp1/nios2eds/bin/gnu/h-i686-mingw32/bin/../lib/gcc/nios2-elf/4.1.2/../../../../nios2-elf/lib/mno-hw-mul\libc.a(lib_a-fprintf.o)
 .debug_pubnames
                0x00001c27       0x2b c:/altera/10.1sp1/nios2eds/bin/gnu/h-i686-mingw32/bin/../lib/gcc/nios2-elf/4.1.2/../../../../nios2-elf/lib/mno-hw-mul\libc.a(lib_a-fwrite.o)
 .debug_pubnames
                0x00001c52       0x27 c:/altera/10.1sp1/nios2eds/bin/gnu/h-i686-mingw32/bin/../lib/gcc/nios2-elf/4.1.2/../../../../nios2-elf/lib/mno-hw-mul\libc.a(lib_a-getc.o)
 .debug_pubnames
                0x00001c79       0x39 c:/altera/10.1sp1/nios2eds/bin/gnu/h-i686-mingw32/bin/../lib/gcc/nios2-elf/4.1.2/../../../../nios2-elf/lib/mno-hw-mul\libc.a(lib_a-impure.o)
 .debug_pubnames
                0x00001cb2       0x1f c:/altera/10.1sp1/nios2eds/bin/gnu/h-i686-mingw32/bin/../lib/gcc/nios2-elf/4.1.2/../../../../nios2-elf/lib/mno-hw-mul\libc.a(lib_a-malign.o)
 .debug_pubnames
                0x00001cd1       0x22 c:/altera/10.1sp1/nios2eds/bin/gnu/h-i686-mingw32/bin/../lib/gcc/nios2-elf/4.1.2/../../../../nios2-elf/lib/mno-hw-mul\libc.a(lib_a-malignr.o)
 .debug_pubnames
                0x00001cf3       0x26 c:/altera/10.1sp1/nios2eds/bin/gnu/h-i686-mingw32/bin/../lib/gcc/nios2-elf/4.1.2/../../../../nios2-elf/lib/mno-hw-mul\libc.a(lib_a-malloc.o)
 .debug_pubnames
                0x00001d19       0xce c:/altera/10.1sp1/nios2eds/bin/gnu/h-i686-mingw32/bin/../lib/gcc/nios2-elf/4.1.2/../../../../nios2-elf/lib/mno-hw-mul\libc.a(lib_a-mallocr.o)
 .debug_pubnames
                0x00001de7       0x1d c:/altera/10.1sp1/nios2eds/bin/gnu/h-i686-mingw32/bin/../lib/gcc/nios2-elf/4.1.2/../../../../nios2-elf/lib/mno-hw-mul\libc.a(lib_a-memcpy.o)
 .debug_pubnames
                0x00001e04       0x1d c:/altera/10.1sp1/nios2eds/bin/gnu/h-i686-mingw32/bin/../lib/gcc/nios2-elf/4.1.2/../../../../nios2-elf/lib/mno-hw-mul\libc.a(lib_a-memset.o)
 .debug_pubnames
                0x00001e21       0x2b c:/altera/10.1sp1/nios2eds/bin/gnu/h-i686-mingw32/bin/../lib/gcc/nios2-elf/4.1.2/../../../../nios2-elf/lib/mno-hw-mul\libc.a(lib_a-perror.o)
 .debug_pubnames
                0x00001e4c       0x2b c:/altera/10.1sp1/nios2eds/bin/gnu/h-i686-mingw32/bin/../lib/gcc/nios2-elf/4.1.2/../../../../nios2-elf/lib/mno-hw-mul\libc.a(lib_a-printf.o)
 .debug_pubnames
                0x00001e77       0x27 c:/altera/10.1sp1/nios2eds/bin/gnu/h-i686-mingw32/bin/../lib/gcc/nios2-elf/4.1.2/../../../../nios2-elf/lib/mno-hw-mul\libc.a(lib_a-putc.o)
 .debug_pubnames
                0x00001e9e       0x2d c:/altera/10.1sp1/nios2eds/bin/gnu/h-i686-mingw32/bin/../lib/gcc/nios2-elf/4.1.2/../../../../nios2-elf/lib/mno-hw-mul\libc.a(lib_a-putchar.o)
 .debug_pubnames
                0x00001ecb       0x27 c:/altera/10.1sp1/nios2eds/bin/gnu/h-i686-mingw32/bin/../lib/gcc/nios2-elf/4.1.2/../../../../nios2-elf/lib/mno-hw-mul\libc.a(lib_a-puts.o)
 .debug_pubnames
                0x00001ef2       0x2c c:/altera/10.1sp1/nios2eds/bin/gnu/h-i686-mingw32/bin/../lib/gcc/nios2-elf/4.1.2/../../../../nios2-elf/lib/mno-hw-mul\libc.a(lib_a-rget.o)
 .debug_pubnames
                0x00001f1e       0x1e c:/altera/10.1sp1/nios2eds/bin/gnu/h-i686-mingw32/bin/../lib/gcc/nios2-elf/4.1.2/../../../../nios2-elf/lib/mno-hw-mul\libc.a(lib_a-sbrkr.o)
 .debug_pubnames
                0x00001f3c       0x2d c:/altera/10.1sp1/nios2eds/bin/gnu/h-i686-mingw32/bin/../lib/gcc/nios2-elf/4.1.2/../../../../nios2-elf/lib/mno-hw-mul\libc.a(lib_a-sprintf.o)
 .debug_pubnames
                0x00001f69       0x1d c:/altera/10.1sp1/nios2eds/bin/gnu/h-i686-mingw32/bin/../lib/gcc/nios2-elf/4.1.2/../../../../nios2-elf/lib/mno-hw-mul\libc.a(lib_a-strcpy.o)
 .debug_pubnames
                0x00001f86       0x1f c:/altera/10.1sp1/nios2eds/bin/gnu/h-i686-mingw32/bin/../lib/gcc/nios2-elf/4.1.2/../../../../nios2-elf/lib/mno-hw-mul\libc.a(lib_a-strerror.o)
 .debug_pubnames
                0x00001fa5       0x1d c:/altera/10.1sp1/nios2eds/bin/gnu/h-i686-mingw32/bin/../lib/gcc/nios2-elf/4.1.2/../../../../nios2-elf/lib/mno-hw-mul\libc.a(lib_a-strlen.o)
 .debug_pubnames
                0x00001fc2       0x25 c:/altera/10.1sp1/nios2eds/bin/gnu/h-i686-mingw32/bin/../lib/gcc/nios2-elf/4.1.2/../../../../nios2-elf/lib/mno-hw-mul\libc.a(lib_a-u_strerr.o)
 .debug_pubnames
                0x00001fe7       0x45 c:/altera/10.1sp1/nios2eds/bin/gnu/h-i686-mingw32/bin/../lib/gcc/nios2-elf/4.1.2/../../../../nios2-elf/lib/mno-hw-mul\libc.a(lib_a-vfprintf.o)
 .debug_pubnames
                0x0000202c       0x2c c:/altera/10.1sp1/nios2eds/bin/gnu/h-i686-mingw32/bin/../lib/gcc/nios2-elf/4.1.2/../../../../nios2-elf/lib/mno-hw-mul\libc.a(lib_a-wbuf.o)
 .debug_pubnames
                0x00002058       0x22 c:/altera/10.1sp1/nios2eds/bin/gnu/h-i686-mingw32/bin/../lib/gcc/nios2-elf/4.1.2/../../../../nios2-elf/lib/mno-hw-mul\libc.a(lib_a-wsetup.o)
 .debug_pubnames
                0x0000207a       0x1e c:/altera/10.1sp1/nios2eds/bin/gnu/h-i686-mingw32/bin/../lib/gcc/nios2-elf/4.1.2/../../../../nios2-elf/lib/mno-hw-mul\libc.a(lib_a-dtoa.o)
 .debug_pubnames
                0x00002098       0x2b c:/altera/10.1sp1/nios2eds/bin/gnu/h-i686-mingw32/bin/../lib/gcc/nios2-elf/4.1.2/../../../../nios2-elf/lib/mno-hw-mul\libc.a(lib_a-fflush.o)
 .debug_pubnames
                0x000020c3       0xdb c:/altera/10.1sp1/nios2eds/bin/gnu/h-i686-mingw32/bin/../lib/gcc/nios2-elf/4.1.2/../../../../nios2-elf/lib/mno-hw-mul\libc.a(lib_a-findfp.o)
 .debug_pubnames
                0x0000219e       0x29 c:/altera/10.1sp1/nios2eds/bin/gnu/h-i686-mingw32/bin/../lib/gcc/nios2-elf/4.1.2/../../../../nios2-elf/lib/mno-hw-mul\libc.a(lib_a-fputc.o)
 .debug_pubnames
                0x000021c7       0x29 c:/altera/10.1sp1/nios2eds/bin/gnu/h-i686-mingw32/bin/../lib/gcc/nios2-elf/4.1.2/../../../../nios2-elf/lib/mno-hw-mul\libc.a(lib_a-fputs.o)
 .debug_pubnames
                0x000021f0       0x31 c:/altera/10.1sp1/nios2eds/bin/gnu/h-i686-mingw32/bin/../lib/gcc/nios2-elf/4.1.2/../../../../nios2-elf/lib/mno-hw-mul\libc.a(lib_a-freer.o)
 .debug_pubnames
                0x00002221       0x23 c:/altera/10.1sp1/nios2eds/bin/gnu/h-i686-mingw32/bin/../lib/gcc/nios2-elf/4.1.2/../../../../nios2-elf/lib/mno-hw-mul\libc.a(lib_a-fvwrite.o)
 .debug_pubnames
                0x00002244       0x2e c:/altera/10.1sp1/nios2eds/bin/gnu/h-i686-mingw32/bin/../lib/gcc/nios2-elf/4.1.2/../../../../nios2-elf/lib/mno-hw-mul\libc.a(lib_a-fwalk.o)
 .debug_pubnames
                0x00002272       0x1c c:/altera/10.1sp1/nios2eds/bin/gnu/h-i686-mingw32/bin/../lib/gcc/nios2-elf/4.1.2/../../../../nios2-elf/lib/mno-hw-mul\libc.a(lib_a-int_errno.o)
 .debug_pubnames
                0x0000228e       0xc3 c:/altera/10.1sp1/nios2eds/bin/gnu/h-i686-mingw32/bin/../lib/gcc/nios2-elf/4.1.2/../../../../nios2-elf/lib/mno-hw-mul\libc.a(lib_a-locale.o)
 .debug_pubnames
                0x00002351       0x23 c:/altera/10.1sp1/nios2eds/bin/gnu/h-i686-mingw32/bin/../lib/gcc/nios2-elf/4.1.2/../../../../nios2-elf/lib/mno-hw-mul\libc.a(lib_a-makebuf.o)
 .debug_pubnames
                0x00002374       0x1d c:/altera/10.1sp1/nios2eds/bin/gnu/h-i686-mingw32/bin/../lib/gcc/nios2-elf/4.1.2/../../../../nios2-elf/lib/mno-hw-mul\libc.a(lib_a-memchr.o)
 .debug_pubnames
                0x00002391       0x1e c:/altera/10.1sp1/nios2eds/bin/gnu/h-i686-mingw32/bin/../lib/gcc/nios2-elf/4.1.2/../../../../nios2-elf/lib/mno-hw-mul\libc.a(lib_a-memmove.o)
 .debug_pubnames
                0x000023af      0x13a c:/altera/10.1sp1/nios2eds/bin/gnu/h-i686-mingw32/bin/../lib/gcc/nios2-elf/4.1.2/../../../../nios2-elf/lib/mno-hw-mul\libc.a(lib_a-mprec.o)
 .debug_pubnames
                0x000024e9       0x21 c:/altera/10.1sp1/nios2eds/bin/gnu/h-i686-mingw32/bin/../lib/gcc/nios2-elf/4.1.2/../../../../nios2-elf/lib/mno-hw-mul\libc.a(lib_a-reallocr.o)
 .debug_pubnames
                0x0000250a       0x22 c:/altera/10.1sp1/nios2eds/bin/gnu/h-i686-mingw32/bin/../lib/gcc/nios2-elf/4.1.2/../../../../nios2-elf/lib/mno-hw-mul\libc.a(lib_a-refill.o)
 .debug_pubnames
                0x0000252c       0x1f c:/altera/10.1sp1/nios2eds/bin/gnu/h-i686-mingw32/bin/../lib/gcc/nios2-elf/4.1.2/../../../../nios2-elf/lib/mno-hw-mul\libc.a(lib_a-s_isinfd.o)
 .debug_pubnames
                0x0000254b       0x44 c:/altera/10.1sp1/nios2eds/bin/gnu/h-i686-mingw32/bin/../lib/gcc/nios2-elf/4.1.2/../../../../nios2-elf/lib/mno-hw-mul\libc.a(lib_a-stdio.o)
 .debug_pubnames
                0x0000258f       0x1d c:/altera/10.1sp1/nios2eds/bin/gnu/h-i686-mingw32/bin/../lib/gcc/nios2-elf/4.1.2/../../../../nios2-elf/lib/mno-hw-mul\libc.a(lib_a-strcmp.o)
 .debug_pubnames
                0x000025ac       0x1f c:/altera/10.1sp1/nios2eds/bin/gnu/h-i686-mingw32/bin/../lib/gcc/nios2-elf/4.1.2/../../../../nios2-elf/lib/mno-hw-mul\libc.a(lib_a-writer.o)
 .debug_pubnames
                0x000025cb       0x20 c:/altera/10.1sp1/nios2eds/bin/gnu/h-i686-mingw32/bin/../lib/gcc/nios2-elf/4.1.2/../../../../nios2-elf/lib/mno-hw-mul\libc.a(lib_a-callocr.o)
 .debug_pubnames
                0x000025eb       0x1f c:/altera/10.1sp1/nios2eds/bin/gnu/h-i686-mingw32/bin/../lib/gcc/nios2-elf/4.1.2/../../../../nios2-elf/lib/mno-hw-mul\libc.a(lib_a-closer.o)
 .debug_pubnames
                0x0000260a       0x2b c:/altera/10.1sp1/nios2eds/bin/gnu/h-i686-mingw32/bin/../lib/gcc/nios2-elf/4.1.2/../../../../nios2-elf/lib/mno-hw-mul\libc.a(lib_a-fclose.o)
 .debug_pubnames
                0x00002635       0x1f c:/altera/10.1sp1/nios2eds/bin/gnu/h-i686-mingw32/bin/../lib/gcc/nios2-elf/4.1.2/../../../../nios2-elf/lib/mno-hw-mul\libc.a(lib_a-fstatr.o)
 .debug_pubnames
                0x00002654       0x20 c:/altera/10.1sp1/nios2eds/bin/gnu/h-i686-mingw32/bin/../lib/gcc/nios2-elf/4.1.2/../../../../nios2-elf/lib/mno-hw-mul\libc.a(lib_a-isattyr.o)
 .debug_pubnames
                0x00002674       0x1f c:/altera/10.1sp1/nios2eds/bin/gnu/h-i686-mingw32/bin/../lib/gcc/nios2-elf/4.1.2/../../../../nios2-elf/lib/mno-hw-mul\libc.a(lib_a-lseekr.o)
 .debug_pubnames
                0x00002693       0x1e c:/altera/10.1sp1/nios2eds/bin/gnu/h-i686-mingw32/bin/../lib/gcc/nios2-elf/4.1.2/../../../../nios2-elf/lib/mno-hw-mul\libc.a(lib_a-readr.o)
 .debug_pubnames
                0x000026b1       0x20 c:/altera/10.1sp1/nios2eds/bin/gnu/h-i686-mingw32/bin/../lib/gcc/nios2-elf/4.1.2/mno-hw-mul\libgcc.a(_udivdi3.o)
 .debug_pubnames
                0x000026d1       0x20 c:/altera/10.1sp1/nios2eds/bin/gnu/h-i686-mingw32/bin/../lib/gcc/nios2-elf/4.1.2/mno-hw-mul\libgcc.a(_umoddi3.o)
 .debug_pubnames
                0x000026f1       0x1e c:/altera/10.1sp1/nios2eds/bin/gnu/h-i686-mingw32/bin/../lib/gcc/nios2-elf/4.1.2/mno-hw-mul\libgcc.a(_ne_df.o)
 .debug_pubnames
                0x0000270f       0x1c ../RedeFFTHW_bsp\libucosii_bsp.a(alt_fstat.o)
 .debug_pubnames
                0x0000272b       0x1d ../RedeFFTHW_bsp\libucosii_bsp.a(alt_isatty.o)
 .debug_pubnames
                0x00002748       0x1f ../RedeFFTHW_bsp\libucosii_bsp.a(alt_load.o)
 .debug_pubnames
                0x00002767       0x1c ../RedeFFTHW_bsp\libucosii_bsp.a(alt_lseek.o)
 .debug_pubnames
                0x00002783       0x46 ../RedeFFTHW_bsp\libucosii_bsp.a(alt_main.o)
 .debug_pubnames
                0x000027c9       0x27 ../RedeFFTHW_bsp\libucosii_bsp.a(alt_remap_cached.o)
 .debug_pubnames
                0x000027f0       0x29 ../RedeFFTHW_bsp\libucosii_bsp.a(alt_remap_uncached.o)
 .debug_pubnames
                0x00002819       0x1b ../RedeFFTHW_bsp\libucosii_bsp.a(alt_sbrk.o)
 .debug_pubnames
                0x00002834       0x68 ../RedeFFTHW_bsp\libucosii_bsp.a(alt_tick.o)
 .debug_pubnames
                0x0000289c       0x2a ../RedeFFTHW_bsp\libucosii_bsp.a(alt_uncached_malloc.o)
 .debug_pubnames
                0x000028c6       0x1d ../RedeFFTHW_bsp\libucosii_bsp.a(alt_usleep.o)
 .debug_pubnames
                0x000028e3       0x41 ../RedeFFTHW_bsp\libucosii_bsp.a(alt_env_lock.o)
 .debug_pubnames
                0x00002924       0x48 ../RedeFFTHW_bsp\libucosii_bsp.a(alt_malloc_lock.o)
 .debug_pubnames
                0x0000296c      0x3f8 ../RedeFFTHW_bsp\libucosii_bsp.a(os_core.o)
 .debug_pubnames
                0x00002d64      0x3c5 ../RedeFFTHW_bsp\libucosii_bsp.a(os_dbg.o)
 .debug_pubnames
                0x00003129       0xd0 ../RedeFFTHW_bsp\libucosii_bsp.a(os_flag.o)
 .debug_pubnames
                0x000031f9       0x7c ../RedeFFTHW_bsp\libucosii_bsp.a(os_mem.o)
 .debug_pubnames
                0x00003275       0xa9 ../RedeFFTHW_bsp\libucosii_bsp.a(os_q.o)
 .debug_pubnames
                0x0000331e       0x8a ../RedeFFTHW_bsp\libucosii_bsp.a(os_sem.o)
 .debug_pubnames
                0x000033a8       0xe5 ../RedeFFTHW_bsp\libucosii_bsp.a(os_task.o)
 .debug_pubnames
                0x0000348d       0x62 ../RedeFFTHW_bsp\libucosii_bsp.a(os_time.o)
 .debug_pubnames
                0x000034ef       0x54 ../RedeFFTHW_bsp\libucosii_bsp.a(alt_sys_init.o)
 .debug_pubnames
                0x00003543       0xa5 ../RedeFFTHW_bsp\libucosii_bsp.a(altera_avalon_jtag_uart_fd.o)
 .debug_pubnames
                0x000035e8       0x55 ../RedeFFTHW_bsp\libucosii_bsp.a(altera_avalon_jtag_uart_init.o)
 .debug_pubnames
                0x0000363d       0x34 ../RedeFFTHW_bsp\libucosii_bsp.a(altera_avalon_jtag_uart_ioctl.o)
 .debug_pubnames
                0x00003671       0x33 ../RedeFFTHW_bsp\libucosii_bsp.a(altera_avalon_jtag_uart_read.o)
 .debug_pubnames
                0x000036a4       0x34 ../RedeFFTHW_bsp\libucosii_bsp.a(altera_avalon_jtag_uart_write.o)
 .debug_pubnames
                0x000036d8      0x2c1 ../RedeFFTHW_bsp\libucosii_bsp.a(altera_avalon_sgdma.o)
 .debug_pubnames
                0x00003999       0x2f ../RedeFFTHW_bsp\libucosii_bsp.a(altera_avalon_timer_sc.o)
 .debug_pubnames
                0x000039c8      0x105 ../RedeFFTHW_bsp\libucosii_bsp.a(ins_tse_mac.o)
 .debug_pubnames
                0x00003acd       0x32 ../RedeFFTHW_bsp\libucosii_bsp.a(perf_print_formatted_report.o)
 .debug_pubnames
                0x00003aff       0x1c ../RedeFFTHW_bsp\libucosii_bsp.a(alt_iniche_close.o)
 .debug_pubnames
                0x00003b1b       0x42 ../RedeFFTHW_bsp\libucosii_bsp.a(alt_iniche_dev.o)
 .debug_pubnames
                0x00003b5d       0x1b ../RedeFFTHW_bsp\libucosii_bsp.a(alt_iniche_read.o)
 .debug_pubnames
                0x00003b78       0x1c ../RedeFFTHW_bsp\libucosii_bsp.a(alt_iniche_write.o)
 .debug_pubnames
                0x00003b94       0x90 ../RedeFFTHW_bsp\libucosii_bsp.a(ipnet.o)
 .debug_pubnames
                0x00003c24       0x81 ../RedeFFTHW_bsp\libucosii_bsp.a(ipstart.o)
 .debug_pubnames
                0x00003ca5      0x108 ../RedeFFTHW_bsp\libucosii_bsp.a(igmp_cmn.o)
 .debug_pubnames
                0x00003dad       0xc4 ../RedeFFTHW_bsp\libucosii_bsp.a(bsdsock.o)
 .debug_pubnames
                0x00003e71       0x27 ../RedeFFTHW_bsp\libucosii_bsp.a(cksum.o)
 .debug_pubnames
                0x00003e98       0xcc ../RedeFFTHW_bsp\libucosii_bsp.a(in_utils.o)
 .debug_pubnames
                0x00003f64       0xb2 ../RedeFFTHW_bsp\libucosii_bsp.a(netmain.o)
 .debug_pubnames
                0x00004016       0x97 ../RedeFFTHW_bsp\libucosii_bsp.a(tk_crnos.o)
 .debug_pubnames
                0x000040ad      0x252 ../RedeFFTHW_bsp\libucosii_bsp.a(dhcpclnt.o)
 .debug_pubnames
                0x000042ff       0x1f ../RedeFFTHW_bsp\libucosii_bsp.a(dhcputil.o)
 .debug_pubnames
                0x0000431e       0xe2 ../RedeFFTHW_bsp\libucosii_bsp.a(pktalloc.o)
 .debug_pubnames
                0x00004400       0x2d ../RedeFFTHW_bsp\libucosii_bsp.a(q.o)
 .debug_pubnames
                0x0000442d       0x3a ../RedeFFTHW_bsp\libucosii_bsp.a(udp_open.o)
 .debug_pubnames
                0x00004467       0xc5 ../RedeFFTHW_bsp\libucosii_bsp.a(brdutils.o)
 .debug_pubnames
                0x0000452c      0x10c ../RedeFFTHW_bsp\libucosii_bsp.a(osportco.o)
 .debug_pubnames
                0x00004638       0xf5 ../RedeFFTHW_bsp\libucosii_bsp.a(targnios.o)
 .debug_pubnames
                0x0000472d      0x190 ../RedeFFTHW_bsp\libucosii_bsp.a(nptcp.o)
 .debug_pubnames
                0x000048bd       0x46 ../RedeFFTHW_bsp\libucosii_bsp.a(rawsock.o)
 .debug_pubnames
                0x00004903      0x108 ../RedeFFTHW_bsp\libucosii_bsp.a(sockcall.o)
 .debug_pubnames
                0x00004a0b       0xfc ../RedeFFTHW_bsp\libucosii_bsp.a(socket.o)
 .debug_pubnames
                0x00004b07      0x178 ../RedeFFTHW_bsp\libucosii_bsp.a(socket2.o)
 .debug_pubnames
                0x00004c7f       0x92 ../RedeFFTHW_bsp\libucosii_bsp.a(soselect.o)
 .debug_pubnames
                0x00004d11       0xc2 ../RedeFFTHW_bsp\libucosii_bsp.a(tcp_in.o)
 .debug_pubnames
                0x00004dd3       0x57 ../RedeFFTHW_bsp\libucosii_bsp.a(tcp_out.o)
 .debug_pubnames
                0x00004e2a       0xb9 ../RedeFFTHW_bsp\libucosii_bsp.a(tcp_subr.o)
 .debug_pubnames
                0x00004ee3       0x96 ../RedeFFTHW_bsp\libucosii_bsp.a(tcp_timr.o)
 .debug_pubnames
                0x00004f79       0x79 ../RedeFFTHW_bsp\libucosii_bsp.a(tcp_usr.o)
 .debug_pubnames
                0x00004ff2       0x1e ../RedeFFTHW_bsp\libucosii_bsp.a(tcpport.o)
 .debug_pubnames
                0x00005010       0x76 ../RedeFFTHW_bsp\libucosii_bsp.a(udpsock.o)
 .debug_pubnames
                0x00005086       0x26 ../RedeFFTHW_bsp\libucosii_bsp.a(alt_alarm_start.o)
 .debug_pubnames
                0x000050ac       0x25 ../RedeFFTHW_bsp\libucosii_bsp.a(alt_busy_sleep.o)
 .debug_pubnames
                0x000050d1       0x20 ../RedeFFTHW_bsp\libucosii_bsp.a(alt_close.o)
 .debug_pubnames
                0x000050f1       0x27 ../RedeFFTHW_bsp\libucosii_bsp.a(alt_dcache_flush.o)
 .debug_pubnames
                0x00005118       0x2b ../RedeFFTHW_bsp\libucosii_bsp.a(alt_dcache_flush_all.o)
 .debug_pubnames
                0x00005143       0x78 ../RedeFFTHW_bsp\libucosii_bsp.a(alt_dev.o)
 .debug_pubnames
                0x000051bb       0x2b ../RedeFFTHW_bsp\libucosii_bsp.a(alt_dev_llist_insert.o)
 .debug_pubnames
                0x000051e6       0x20 ../RedeFFTHW_bsp\libucosii_bsp.a(alt_do_ctors.o)
 .debug_pubnames
                0x00005206       0x20 ../RedeFFTHW_bsp\libucosii_bsp.a(alt_do_dtors.o)
 .debug_pubnames
                0x00005226       0x20 ../RedeFFTHW_bsp\libucosii_bsp.a(alt_errno.o)
 .debug_pubnames
                0x00005246       0x23 ../RedeFFTHW_bsp\libucosii_bsp.a(alt_find_dev.o)
 .debug_pubnames
                0x00005269       0x2b ../RedeFFTHW_bsp\libucosii_bsp.a(alt_icache_flush_all.o)
 .debug_pubnames
                0x00005294       0x6e ../RedeFFTHW_bsp\libucosii_bsp.a(alt_iic.o)
 .debug_pubnames
                0x00005302       0x2b ../RedeFFTHW_bsp\libucosii_bsp.a(alt_iic_isr_register.o)
 .debug_pubnames
                0x0000532d       0x26 ../RedeFFTHW_bsp\libucosii_bsp.a(alt_io_redirect.o)
 .debug_pubnames
                0x00005353       0x32 ../RedeFFTHW_bsp\libucosii_bsp.a(alt_irq_handler.o)
 .debug_pubnames
                0x00005385       0x3b ../RedeFFTHW_bsp\libucosii_bsp.a(alt_irq_vars.o)
 .debug_pubnames
                0x000053c0       0x1b ../RedeFFTHW_bsp\libucosii_bsp.a(alt_open.o)
 .debug_pubnames
                0x000053db       0x1f ../RedeFFTHW_bsp\libucosii_bsp.a(alt_read.o)
 .debug_pubnames
                0x000053fa       0x25 ../RedeFFTHW_bsp\libucosii_bsp.a(alt_release_fd.o)
 .debug_pubnames
                0x0000541f       0x20 ../RedeFFTHW_bsp\libucosii_bsp.a(alt_write.o)
 .debug_pubnames
                0x0000543f       0x2c ../RedeFFTHW_bsp\libucosii_bsp.a(altera_nios2_irq.o)
 .debug_pubnames
                0x0000546b       0xcd ../RedeFFTHW_bsp\libucosii_bsp.a(os_cpu_c.o)
 .debug_pubnames
                0x00005538       0x96 ../RedeFFTHW_bsp\libucosii_bsp.a(altera_avalon_performance_counter.o)
 .debug_pubnames
                0x000055ce      0x4e6 ../RedeFFTHW_bsp\libucosii_bsp.a(altera_avalon_tse.o)
 .debug_pubnames
                0x00005ab4       0x25 ../RedeFFTHW_bsp\libucosii_bsp.a(altera_avalon_tse_system_info.o)
 .debug_pubnames
                0x00005ad9       0xd4 ../RedeFFTHW_bsp\libucosii_bsp.a(allports.o)
 .debug_pubnames
                0x00005bad       0x6f ../RedeFFTHW_bsp\libucosii_bsp.a(timeouts.o)
 .debug_pubnames
                0x00005c1c       0x35 ../RedeFFTHW_bsp\libucosii_bsp.a(tk_misc.o)
 .debug_pubnames
                0x00005c51       0x1c ../RedeFFTHW_bsp\libucosii_bsp.a(alt_iniche_fcntl.o)
 .debug_pubnames
                0x00005c6d      0x134 ../RedeFFTHW_bsp\libucosii_bsp.a(et_arp.o)
 .debug_pubnames
                0x00005da1       0x58 ../RedeFFTHW_bsp\libucosii_bsp.a(iface.o)
 .debug_pubnames
                0x00005df9       0xea ../RedeFFTHW_bsp\libucosii_bsp.a(ip.o)
 .debug_pubnames
                0x00005ee3      0x22e ../RedeFFTHW_bsp\libucosii_bsp.a(ip_reasm.o)
 .debug_pubnames
                0x00006111       0x3c ../RedeFFTHW_bsp\libucosii_bsp.a(ipdemux.o)
 .debug_pubnames
                0x0000614d       0x43 ../RedeFFTHW_bsp\libucosii_bsp.a(ipmc.o)
 .debug_pubnames
                0x00006190       0x99 ../RedeFFTHW_bsp\libucosii_bsp.a(ipport.o)
 .debug_pubnames
                0x00006229       0x87 ../RedeFFTHW_bsp\libucosii_bsp.a(ipraw.o)
 .debug_pubnames
                0x000062b0       0x5d ../RedeFFTHW_bsp\libucosii_bsp.a(iproute.o)
 .debug_pubnames
                0x0000630d       0x7f ../RedeFFTHW_bsp\libucosii_bsp.a(udp.o)
 .debug_pubnames
                0x0000638c       0x23 ../RedeFFTHW_bsp\libucosii_bsp.a(igmp.o)
 .debug_pubnames
                0x000063af       0x8d ../RedeFFTHW_bsp\libucosii_bsp.a(igmp2.o)
 .debug_pubnames
                0x0000643c       0x5f ../RedeFFTHW_bsp\libucosii_bsp.a(ipopt.o)
 .debug_pubnames
                0x0000649b       0x35 ../RedeFFTHW_bsp\libucosii_bsp.a(u_mctest.o)
 .debug_pubnames
                0x000064d0       0x33 ../RedeFFTHW_bsp\libucosii_bsp.a(dhcsetup.o)
 .debug_pubnames
                0x00006503       0xb1 ../RedeFFTHW_bsp\libucosii_bsp.a(memdev.o)
 .debug_pubnames
                0x000065b4       0xa6 ../RedeFFTHW_bsp\libucosii_bsp.a(parseip.o)
 .debug_pubnames
                0x0000665a       0x20 ../RedeFFTHW_bsp\libucosii_bsp.a(tcpcksum.o)
 .debug_pubnames
                0x0000667a       0xc8 ../RedeFFTHW_bsp\libucosii_bsp.a(in_pcb.o)
 .debug_pubnames
                0x00006742      0x278 ../RedeFFTHW_bsp\libucosii_bsp.a(vfsfiles.o)
 .debug_pubnames
                0x000069ba       0x1f ../RedeFFTHW_bsp\libucosii_bsp.a(vfsport.o)
 .debug_pubnames
                0x000069d9       0x20 ../RedeFFTHW_bsp\libucosii_bsp.a(alt_fcntl.o)
 .debug_pubnames
                0x000069f9       0x24 ../RedeFFTHW_bsp\libucosii_bsp.a(alt_find_file.o)
 .debug_pubnames
                0x00006a1d       0x21 ../RedeFFTHW_bsp\libucosii_bsp.a(alt_get_fd.o)
 .debug_pubnames
                0x00006a3e       0x66 ../RedeFFTHW_bsp\libucosii_bsp.a(icmp.o)
 .debug_pubnames
                0x00006aa4       0x2a c:/altera/10.1sp1/nios2eds/bin/gnu/h-i686-mingw32/bin/../lib/gcc/nios2-elf/4.1.2/../../../../nios2-elf/lib/mno-hw-mul\libc.a(lib_a-atexit.o)
 .debug_pubnames
                0x00006ace       0x27 c:/altera/10.1sp1/nios2eds/bin/gnu/h-i686-mingw32/bin/../lib/gcc/nios2-elf/4.1.2/../../../../nios2-elf/lib/mno-hw-mul\libc.a(lib_a-atoi.o)
 .debug_pubnames
                0x00006af5       0x1d c:/altera/10.1sp1/nios2eds/bin/gnu/h-i686-mingw32/bin/../lib/gcc/nios2-elf/4.1.2/../../../../nios2-elf/lib/mno-hw-mul\libc.a(lib_a-calloc.o)
 .debug_pubnames
                0x00006b12       0x1b c:/altera/10.1sp1/nios2eds/bin/gnu/h-i686-mingw32/bin/../lib/gcc/nios2-elf/4.1.2/../../../../nios2-elf/lib/mno-hw-mul\libc.a(lib_a-exit.o)
 .debug_pubnames
                0x00006b2d       0x1d c:/altera/10.1sp1/nios2eds/bin/gnu/h-i686-mingw32/bin/../lib/gcc/nios2-elf/4.1.2/../../../../nios2-elf/lib/mno-hw-mul\libc.a(lib_a-memcmp.o)
 .debug_pubnames
                0x00006b4a       0x1d c:/altera/10.1sp1/nios2eds/bin/gnu/h-i686-mingw32/bin/../lib/gcc/nios2-elf/4.1.2/../../../../nios2-elf/lib/mno-hw-mul\libc.a(lib_a-strchr.o)
 .debug_pubnames
                0x00006b67       0x1e c:/altera/10.1sp1/nios2eds/bin/gnu/h-i686-mingw32/bin/../lib/gcc/nios2-elf/4.1.2/../../../../nios2-elf/lib/mno-hw-mul\libc.a(lib_a-strncmp.o)
 .debug_pubnames
                0x00006b85       0x1e c:/altera/10.1sp1/nios2eds/bin/gnu/h-i686-mingw32/bin/../lib/gcc/nios2-elf/4.1.2/../../../../nios2-elf/lib/mno-hw-mul\libc.a(lib_a-strncpy.o)
 .debug_pubnames
                0x00006ba3       0x2b c:/altera/10.1sp1/nios2eds/bin/gnu/h-i686-mingw32/bin/../lib/gcc/nios2-elf/4.1.2/../../../../nios2-elf/lib/mno-hw-mul\libc.a(lib_a-strtol.o)
 .debug_pubnames
                0x00006bce       0x2d c:/altera/10.1sp1/nios2eds/bin/gnu/h-i686-mingw32/bin/../lib/gcc/nios2-elf/4.1.2/../../../../nios2-elf/lib/mno-hw-mul\libc.a(lib_a-vprintf.o)
 .debug_pubnames
                0x00006bfb       0x2f c:/altera/10.1sp1/nios2eds/bin/gnu/h-i686-mingw32/bin/../lib/gcc/nios2-elf/4.1.2/../../../../nios2-elf/lib/mno-hw-mul\libc.a(lib_a-vsprintf.o)
 .debug_pubnames
                0x00006c2a       0x2a c:/altera/10.1sp1/nios2eds/bin/gnu/h-i686-mingw32/bin/../lib/gcc/nios2-elf/4.1.2/../../../../nios2-elf/lib/mno-hw-mul\libc.a(lib_a-__atexit.o)
 .debug_pubnames
                0x00006c54       0x27 c:/altera/10.1sp1/nios2eds/bin/gnu/h-i686-mingw32/bin/../lib/gcc/nios2-elf/4.1.2/../../../../nios2-elf/lib/mno-hw-mul\libc.a(lib_a-__call_atexit.o)
 .debug_pubnames
                0x00006c7b       0x24 c:/altera/10.1sp1/nios2eds/bin/gnu/h-i686-mingw32/bin/../lib/gcc/nios2-elf/4.1.2/mno-hw-mul\libgcc.a(_floatundidf.o)
 .debug_pubnames
                0x00006c9f       0x1c ../RedeFFTHW_bsp\libucosii_bsp.a(alt_exit.o)

.debug_info     0x00000000    0x8d1bb
 *(.debug_info .gnu.linkonce.wi.*)
 .debug_info    0x00000000       0x97 ../RedeFFTHW_bsp/obj/HAL/src/crt0.o
 .debug_info    0x00000097     0x168c obj/AquisicaoRede.o
 .debug_info    0x00001723     0x2977 obj/DanWindow/DanWindow.o
 .debug_info    0x0000409a      0x8e5 obj/FFT/simpleDFT.o
 .debug_info    0x0000497f     0x1b1d obj/LCDTask.o
 .debug_info    0x0000649c     0x1143 obj/TerminalSerial.o
 .debug_info    0x000075df      0xd59 obj/alt_error_handler.o
 .debug_info    0x00008338        0x0 obj/alt_touchscreen/alt_touchscreen.o
 .debug_info    0x00008338      0x544 obj/alt_tpo_lcd/alt_tpo_lcd.o
 .debug_info    0x0000887c      0xadd obj/alt_video_display/alt_video_display.o
 .debug_info    0x00009359      0x3e7 obj/fixedpoint2_16.o
 .debug_info    0x00009740     0x1b90 obj/graphics_lib/simple_graphics.o
 .debug_info    0x0000b2d0      0x33b obj/iniche_init.o
 .debug_info    0x0000b60b     0x1c0b obj/network_utilities.o
 .debug_info    0x0000d216      0xc49 obj/simple_socket_server.o
 .debug_info    0x0000de5f       0xfd c:/altera/10.1sp1/nios2eds/bin/gnu/h-i686-mingw32/bin/../lib/gcc/nios2-elf/4.1.2/../../../../nios2-elf/lib/mno-hw-mul\libm.a(lib_a-s_cos.o)
 .debug_info    0x0000df5c       0xfd c:/altera/10.1sp1/nios2eds/bin/gnu/h-i686-mingw32/bin/../lib/gcc/nios2-elf/4.1.2/../../../../nios2-elf/lib/mno-hw-mul\libm.a(lib_a-s_sin.o)
 .debug_info    0x0000e059      0x18c c:/altera/10.1sp1/nios2eds/bin/gnu/h-i686-mingw32/bin/../lib/gcc/nios2-elf/4.1.2/../../../../nios2-elf/lib/mno-hw-mul\libm.a(lib_a-w_sqrt.o)
 .debug_info    0x0000e1e5      0x177 c:/altera/10.1sp1/nios2eds/bin/gnu/h-i686-mingw32/bin/../lib/gcc/nios2-elf/4.1.2/../../../../nios2-elf/lib/mno-hw-mul\libm.a(lib_a-wf_sqrt.o)
 .debug_info    0x0000e35c      0x364 c:/altera/10.1sp1/nios2eds/bin/gnu/h-i686-mingw32/bin/../lib/gcc/nios2-elf/4.1.2/../../../../nios2-elf/lib/mno-hw-mul\libm.a(lib_a-e_rem_pio2.o)
 .debug_info    0x0000e6c0      0x23a c:/altera/10.1sp1/nios2eds/bin/gnu/h-i686-mingw32/bin/../lib/gcc/nios2-elf/4.1.2/../../../../nios2-elf/lib/mno-hw-mul\libm.a(lib_a-e_sqrt.o)
 .debug_info    0x0000e8fa      0x1cb c:/altera/10.1sp1/nios2eds/bin/gnu/h-i686-mingw32/bin/../lib/gcc/nios2-elf/4.1.2/../../../../nios2-elf/lib/mno-hw-mul\libm.a(lib_a-ef_sqrt.o)
 .debug_info    0x0000eac5      0x21f c:/altera/10.1sp1/nios2eds/bin/gnu/h-i686-mingw32/bin/../lib/gcc/nios2-elf/4.1.2/../../../../nios2-elf/lib/mno-hw-mul\libm.a(lib_a-k_cos.o)
 .debug_info    0x0000ece4      0x2e6 c:/altera/10.1sp1/nios2eds/bin/gnu/h-i686-mingw32/bin/../lib/gcc/nios2-elf/4.1.2/../../../../nios2-elf/lib/mno-hw-mul\libm.a(lib_a-k_rem_pio2.o)
 .debug_info    0x0000efca      0x19e c:/altera/10.1sp1/nios2eds/bin/gnu/h-i686-mingw32/bin/../lib/gcc/nios2-elf/4.1.2/../../../../nios2-elf/lib/mno-hw-mul\libm.a(lib_a-k_sin.o)
 .debug_info    0x0000f168      0x13b c:/altera/10.1sp1/nios2eds/bin/gnu/h-i686-mingw32/bin/../lib/gcc/nios2-elf/4.1.2/../../../../nios2-elf/lib/mno-hw-mul\libm.a(lib_a-s_fabs.o)
 .debug_info    0x0000f2a3      0x1bf c:/altera/10.1sp1/nios2eds/bin/gnu/h-i686-mingw32/bin/../lib/gcc/nios2-elf/4.1.2/../../../../nios2-elf/lib/mno-hw-mul\libm.a(lib_a-s_floor.o)
 .debug_info    0x0000f462       0xd5 c:/altera/10.1sp1/nios2eds/bin/gnu/h-i686-mingw32/bin/../lib/gcc/nios2-elf/4.1.2/../../../../nios2-elf/lib/mno-hw-mul\libm.a(lib_a-s_isnand.o)
 .debug_info    0x0000f537       0xc7 c:/altera/10.1sp1/nios2eds/bin/gnu/h-i686-mingw32/bin/../lib/gcc/nios2-elf/4.1.2/../../../../nios2-elf/lib/mno-hw-mul\libm.a(lib_a-s_lib_ver.o)
 .debug_info    0x0000f5fe      0x133 c:/altera/10.1sp1/nios2eds/bin/gnu/h-i686-mingw32/bin/../lib/gcc/nios2-elf/4.1.2/../../../../nios2-elf/lib/mno-hw-mul\libm.a(lib_a-s_matherr.o)
 .debug_info    0x0000f731      0x225 c:/altera/10.1sp1/nios2eds/bin/gnu/h-i686-mingw32/bin/../lib/gcc/nios2-elf/4.1.2/../../../../nios2-elf/lib/mno-hw-mul\libm.a(lib_a-s_scalbn.o)
 .debug_info    0x0000f956      0x117 c:/altera/10.1sp1/nios2eds/bin/gnu/h-i686-mingw32/bin/../lib/gcc/nios2-elf/4.1.2/../../../../nios2-elf/lib/mno-hw-mul\libm.a(lib_a-sf_isnan.o)
 .debug_info    0x0000fa6d      0x154 c:/altera/10.1sp1/nios2eds/bin/gnu/h-i686-mingw32/bin/../lib/gcc/nios2-elf/4.1.2/../../../../nios2-elf/lib/mno-hw-mul\libm.a(lib_a-s_copysign.o)
 .debug_info    0x0000fbc1      0x210 c:/altera/10.1sp1/nios2eds/bin/gnu/h-i686-mingw32/bin/../lib/gcc/nios2-elf/4.1.2/mno-hw-mul\libgcc.a(_muldi3.o)
 .debug_info    0x0000fdd1      0x47f c:/altera/10.1sp1/nios2eds/bin/gnu/h-i686-mingw32/bin/../lib/gcc/nios2-elf/4.1.2/mno-hw-mul\libgcc.a(_addsub_sf.o)
 .debug_info    0x00010250      0x3d4 c:/altera/10.1sp1/nios2eds/bin/gnu/h-i686-mingw32/bin/../lib/gcc/nios2-elf/4.1.2/mno-hw-mul\libgcc.a(_mul_sf.o)
 .debug_info    0x00010624      0x391 c:/altera/10.1sp1/nios2eds/bin/gnu/h-i686-mingw32/bin/../lib/gcc/nios2-elf/4.1.2/mno-hw-mul\libgcc.a(_div_sf.o)
 .debug_info    0x000109b5      0x290 c:/altera/10.1sp1/nios2eds/bin/gnu/h-i686-mingw32/bin/../lib/gcc/nios2-elf/4.1.2/mno-hw-mul\libgcc.a(_ge_sf.o)
 .debug_info    0x00010c45      0x290 c:/altera/10.1sp1/nios2eds/bin/gnu/h-i686-mingw32/bin/../lib/gcc/nios2-elf/4.1.2/mno-hw-mul\libgcc.a(_lt_sf.o)
 .debug_info    0x00010ed5      0x214 c:/altera/10.1sp1/nios2eds/bin/gnu/h-i686-mingw32/bin/../lib/gcc/nios2-elf/4.1.2/mno-hw-mul\libgcc.a(_si_to_sf.o)
 .debug_info    0x000110e9      0x2c1 c:/altera/10.1sp1/nios2eds/bin/gnu/h-i686-mingw32/bin/../lib/gcc/nios2-elf/4.1.2/mno-hw-mul\libgcc.a(_sf_to_si.o)
 .debug_info    0x000113aa      0x245 c:/altera/10.1sp1/nios2eds/bin/gnu/h-i686-mingw32/bin/../lib/gcc/nios2-elf/4.1.2/mno-hw-mul\libgcc.a(_sf_to_df.o)
 .debug_info    0x000115ef      0x164 c:/altera/10.1sp1/nios2eds/bin/gnu/h-i686-mingw32/bin/../lib/gcc/nios2-elf/4.1.2/mno-hw-mul\libgcc.a(_thenan_sf.o)
 .debug_info    0x00011753      0x493 c:/altera/10.1sp1/nios2eds/bin/gnu/h-i686-mingw32/bin/../lib/gcc/nios2-elf/4.1.2/mno-hw-mul\libgcc.a(_addsub_df.o)
 .debug_info    0x00011be6      0x488 c:/altera/10.1sp1/nios2eds/bin/gnu/h-i686-mingw32/bin/../lib/gcc/nios2-elf/4.1.2/mno-hw-mul\libgcc.a(_mul_df.o)
 .debug_info    0x0001206e      0x39b c:/altera/10.1sp1/nios2eds/bin/gnu/h-i686-mingw32/bin/../lib/gcc/nios2-elf/4.1.2/mno-hw-mul\libgcc.a(_div_df.o)
 .debug_info    0x00012409      0x29d c:/altera/10.1sp1/nios2eds/bin/gnu/h-i686-mingw32/bin/../lib/gcc/nios2-elf/4.1.2/mno-hw-mul\libgcc.a(_eq_df.o)
 .debug_info    0x000126a6      0x29d c:/altera/10.1sp1/nios2eds/bin/gnu/h-i686-mingw32/bin/../lib/gcc/nios2-elf/4.1.2/mno-hw-mul\libgcc.a(_gt_df.o)
 .debug_info    0x00012943      0x29d c:/altera/10.1sp1/nios2eds/bin/gnu/h-i686-mingw32/bin/../lib/gcc/nios2-elf/4.1.2/mno-hw-mul\libgcc.a(_ge_df.o)
 .debug_info    0x00012be0      0x29d c:/altera/10.1sp1/nios2eds/bin/gnu/h-i686-mingw32/bin/../lib/gcc/nios2-elf/4.1.2/mno-hw-mul\libgcc.a(_lt_df.o)
 .debug_info    0x00012e7d      0x218 c:/altera/10.1sp1/nios2eds/bin/gnu/h-i686-mingw32/bin/../lib/gcc/nios2-elf/4.1.2/mno-hw-mul\libgcc.a(_si_to_df.o)
 .debug_info    0x00013095      0x2cd c:/altera/10.1sp1/nios2eds/bin/gnu/h-i686-mingw32/bin/../lib/gcc/nios2-elf/4.1.2/mno-hw-mul\libgcc.a(_df_to_si.o)
 .debug_info    0x00013362      0x1d6 c:/altera/10.1sp1/nios2eds/bin/gnu/h-i686-mingw32/bin/../lib/gcc/nios2-elf/4.1.2/mno-hw-mul\libgcc.a(_make_df.o)
 .debug_info    0x00013538      0x261 c:/altera/10.1sp1/nios2eds/bin/gnu/h-i686-mingw32/bin/../lib/gcc/nios2-elf/4.1.2/mno-hw-mul\libgcc.a(_df_to_sf.o)
 .debug_info    0x00013799      0x164 c:/altera/10.1sp1/nios2eds/bin/gnu/h-i686-mingw32/bin/../lib/gcc/nios2-elf/4.1.2/mno-hw-mul\libgcc.a(_thenan_df.o)
 .debug_info    0x000138fd      0x213 c:/altera/10.1sp1/nios2eds/bin/gnu/h-i686-mingw32/bin/../lib/gcc/nios2-elf/4.1.2/mno-hw-mul\libgcc.a(_usi_to_df.o)
 .debug_info    0x00013b10      0x21c c:/altera/10.1sp1/nios2eds/bin/gnu/h-i686-mingw32/bin/../lib/gcc/nios2-elf/4.1.2/mno-hw-mul\libgcc.a(lib2-divmod.o)
 .debug_info    0x00013d2c       0xf3 c:/altera/10.1sp1/nios2eds/bin/gnu/h-i686-mingw32/bin/../lib/gcc/nios2-elf/4.1.2/mno-hw-mul\libgcc.a(lib2-mul.o)
 .debug_info    0x00013e1f      0x130 c:/altera/10.1sp1/nios2eds/bin/gnu/h-i686-mingw32/bin/../lib/gcc/nios2-elf/4.1.2/mno-hw-mul\libgcc.a(_clzsi2.o)
 .debug_info    0x00013f4f      0x2f2 c:/altera/10.1sp1/nios2eds/bin/gnu/h-i686-mingw32/bin/../lib/gcc/nios2-elf/4.1.2/mno-hw-mul\libgcc.a(_pack_sf.o)
 .debug_info    0x00014241      0x25a c:/altera/10.1sp1/nios2eds/bin/gnu/h-i686-mingw32/bin/../lib/gcc/nios2-elf/4.1.2/mno-hw-mul\libgcc.a(_unpack_sf.o)
 .debug_info    0x0001449b      0x21f c:/altera/10.1sp1/nios2eds/bin/gnu/h-i686-mingw32/bin/../lib/gcc/nios2-elf/4.1.2/mno-hw-mul\libgcc.a(_fpcmp_parts_sf.o)
 .debug_info    0x000146ba      0x1d7 c:/altera/10.1sp1/nios2eds/bin/gnu/h-i686-mingw32/bin/../lib/gcc/nios2-elf/4.1.2/mno-hw-mul\libgcc.a(_make_sf.o)
 .debug_info    0x00014891      0x2fc c:/altera/10.1sp1/nios2eds/bin/gnu/h-i686-mingw32/bin/../lib/gcc/nios2-elf/4.1.2/mno-hw-mul\libgcc.a(_pack_df.o)
 .debug_info    0x00014b8d      0x268 c:/altera/10.1sp1/nios2eds/bin/gnu/h-i686-mingw32/bin/../lib/gcc/nios2-elf/4.1.2/mno-hw-mul\libgcc.a(_unpack_df.o)
 .debug_info    0x00014df5      0x21b c:/altera/10.1sp1/nios2eds/bin/gnu/h-i686-mingw32/bin/../lib/gcc/nios2-elf/4.1.2/mno-hw-mul\libgcc.a(_fpcmp_parts_df.o)
 .debug_info    0x00015010       0xc9 c:/altera/10.1sp1/nios2eds/bin/gnu/h-i686-mingw32/bin/../lib/gcc/nios2-elf/4.1.2/mno-hw-mul\libgcc.a(_clz.o)
 .debug_info    0x000150d9       0xa0 c:/altera/10.1sp1/nios2eds/bin/gnu/h-i686-mingw32/bin/../lib/gcc/nios2-elf/4.1.2/../../../../nios2-elf/lib/mno-hw-mul\libc.a(lib_a-ctype_.o)
 .debug_info    0x00015179      0x92e c:/altera/10.1sp1/nios2eds/bin/gnu/h-i686-mingw32/bin/../lib/gcc/nios2-elf/4.1.2/../../../../nios2-elf/lib/mno-hw-mul\libc.a(lib_a-errno.o)
 .debug_info    0x00015aa7      0x9e1 c:/altera/10.1sp1/nios2eds/bin/gnu/h-i686-mingw32/bin/../lib/gcc/nios2-elf/4.1.2/../../../../nios2-elf/lib/mno-hw-mul\libc.a(lib_a-fprintf.o)
 .debug_info    0x00016488      0xa83 c:/altera/10.1sp1/nios2eds/bin/gnu/h-i686-mingw32/bin/../lib/gcc/nios2-elf/4.1.2/../../../../nios2-elf/lib/mno-hw-mul\libc.a(lib_a-fwrite.o)
 .debug_info    0x00016f0b      0x9a7 c:/altera/10.1sp1/nios2eds/bin/gnu/h-i686-mingw32/bin/../lib/gcc/nios2-elf/4.1.2/../../../../nios2-elf/lib/mno-hw-mul\libc.a(lib_a-getc.o)
 .debug_info    0x000178b2      0x93d c:/altera/10.1sp1/nios2eds/bin/gnu/h-i686-mingw32/bin/../lib/gcc/nios2-elf/4.1.2/../../../../nios2-elf/lib/mno-hw-mul\libc.a(lib_a-impure.o)
 .debug_info    0x000181ef      0x956 c:/altera/10.1sp1/nios2eds/bin/gnu/h-i686-mingw32/bin/../lib/gcc/nios2-elf/4.1.2/../../../../nios2-elf/lib/mno-hw-mul\libc.a(lib_a-malign.o)
 .debug_info    0x00018b45      0xa36 c:/altera/10.1sp1/nios2eds/bin/gnu/h-i686-mingw32/bin/../lib/gcc/nios2-elf/4.1.2/../../../../nios2-elf/lib/mno-hw-mul\libc.a(lib_a-malignr.o)
 .debug_info    0x0001957b      0x96e c:/altera/10.1sp1/nios2eds/bin/gnu/h-i686-mingw32/bin/../lib/gcc/nios2-elf/4.1.2/../../../../nios2-elf/lib/mno-hw-mul\libc.a(lib_a-malloc.o)
 .debug_info    0x00019ee9      0xcd0 c:/altera/10.1sp1/nios2eds/bin/gnu/h-i686-mingw32/bin/../lib/gcc/nios2-elf/4.1.2/../../../../nios2-elf/lib/mno-hw-mul\libc.a(lib_a-mallocr.o)
 .debug_info    0x0001abb9      0x106 c:/altera/10.1sp1/nios2eds/bin/gnu/h-i686-mingw32/bin/../lib/gcc/nios2-elf/4.1.2/../../../../nios2-elf/lib/mno-hw-mul\libc.a(lib_a-memcpy.o)
 .debug_info    0x0001acbf      0x113 c:/altera/10.1sp1/nios2eds/bin/gnu/h-i686-mingw32/bin/../lib/gcc/nios2-elf/4.1.2/../../../../nios2-elf/lib/mno-hw-mul\libc.a(lib_a-memset.o)
 .debug_info    0x0001add2      0x97b c:/altera/10.1sp1/nios2eds/bin/gnu/h-i686-mingw32/bin/../lib/gcc/nios2-elf/4.1.2/../../../../nios2-elf/lib/mno-hw-mul\libc.a(lib_a-perror.o)
 .debug_info    0x0001b74d      0x9d1 c:/altera/10.1sp1/nios2eds/bin/gnu/h-i686-mingw32/bin/../lib/gcc/nios2-elf/4.1.2/../../../../nios2-elf/lib/mno-hw-mul\libc.a(lib_a-printf.o)
 .debug_info    0x0001c11e      0x9c1 c:/altera/10.1sp1/nios2eds/bin/gnu/h-i686-mingw32/bin/../lib/gcc/nios2-elf/4.1.2/../../../../nios2-elf/lib/mno-hw-mul\libc.a(lib_a-putc.o)
 .debug_info    0x0001cadf      0x972 c:/altera/10.1sp1/nios2eds/bin/gnu/h-i686-mingw32/bin/../lib/gcc/nios2-elf/4.1.2/../../../../nios2-elf/lib/mno-hw-mul\libc.a(lib_a-putchar.o)
 .debug_info    0x0001d451      0xa25 c:/altera/10.1sp1/nios2eds/bin/gnu/h-i686-mingw32/bin/../lib/gcc/nios2-elf/4.1.2/../../../../nios2-elf/lib/mno-hw-mul\libc.a(lib_a-puts.o)
 .debug_info    0x0001de76      0x987 c:/altera/10.1sp1/nios2eds/bin/gnu/h-i686-mingw32/bin/../lib/gcc/nios2-elf/4.1.2/../../../../nios2-elf/lib/mno-hw-mul\libc.a(lib_a-rget.o)
 .debug_info    0x0001e7fd      0x962 c:/altera/10.1sp1/nios2eds/bin/gnu/h-i686-mingw32/bin/../lib/gcc/nios2-elf/4.1.2/../../../../nios2-elf/lib/mno-hw-mul\libc.a(lib_a-sbrkr.o)
 .debug_info    0x0001f15f      0xa16 c:/altera/10.1sp1/nios2eds/bin/gnu/h-i686-mingw32/bin/../lib/gcc/nios2-elf/4.1.2/../../../../nios2-elf/lib/mno-hw-mul\libc.a(lib_a-sprintf.o)
 .debug_info    0x0001fb75      0x110 c:/altera/10.1sp1/nios2eds/bin/gnu/h-i686-mingw32/bin/../lib/gcc/nios2-elf/4.1.2/../../../../nios2-elf/lib/mno-hw-mul\libc.a(lib_a-strcpy.o)
 .debug_info    0x0001fc85       0xbb c:/altera/10.1sp1/nios2eds/bin/gnu/h-i686-mingw32/bin/../lib/gcc/nios2-elf/4.1.2/../../../../nios2-elf/lib/mno-hw-mul\libc.a(lib_a-strerror.o)
 .debug_info    0x0001fd40       0xdb c:/altera/10.1sp1/nios2eds/bin/gnu/h-i686-mingw32/bin/../lib/gcc/nios2-elf/4.1.2/../../../../nios2-elf/lib/mno-hw-mul\libc.a(lib_a-strlen.o)
 .debug_info    0x0001fe1b       0x63 c:/altera/10.1sp1/nios2eds/bin/gnu/h-i686-mingw32/bin/../lib/gcc/nios2-elf/4.1.2/../../../../nios2-elf/lib/mno-hw-mul\libc.a(lib_a-u_strerr.o)
 .debug_info    0x0001fe7e     0x10d5 c:/altera/10.1sp1/nios2eds/bin/gnu/h-i686-mingw32/bin/../lib/gcc/nios2-elf/4.1.2/../../../../nios2-elf/lib/mno-hw-mul\libc.a(lib_a-vfprintf.o)
 .debug_info    0x00020f53      0x9ae c:/altera/10.1sp1/nios2eds/bin/gnu/h-i686-mingw32/bin/../lib/gcc/nios2-elf/4.1.2/../../../../nios2-elf/lib/mno-hw-mul\libc.a(lib_a-wbuf.o)
 .debug_info    0x00021901      0x95d c:/altera/10.1sp1/nios2eds/bin/gnu/h-i686-mingw32/bin/../lib/gcc/nios2-elf/4.1.2/../../../../nios2-elf/lib/mno-hw-mul\libc.a(lib_a-wsetup.o)
 .debug_info    0x0002225e      0xd6f c:/altera/10.1sp1/nios2eds/bin/gnu/h-i686-mingw32/bin/../lib/gcc/nios2-elf/4.1.2/../../../../nios2-elf/lib/mno-hw-mul\libc.a(lib_a-dtoa.o)
 .debug_info    0x00022fcd      0x9fe c:/altera/10.1sp1/nios2eds/bin/gnu/h-i686-mingw32/bin/../lib/gcc/nios2-elf/4.1.2/../../../../nios2-elf/lib/mno-hw-mul\libc.a(lib_a-fflush.o)
 .debug_info    0x000239cb      0xb72 c:/altera/10.1sp1/nios2eds/bin/gnu/h-i686-mingw32/bin/../lib/gcc/nios2-elf/4.1.2/../../../../nios2-elf/lib/mno-hw-mul\libc.a(lib_a-findfp.o)
 .debug_info    0x0002453d      0x9bd c:/altera/10.1sp1/nios2eds/bin/gnu/h-i686-mingw32/bin/../lib/gcc/nios2-elf/4.1.2/../../../../nios2-elf/lib/mno-hw-mul\libc.a(lib_a-fputc.o)
 .debug_info    0x00024efa      0xa40 c:/altera/10.1sp1/nios2eds/bin/gnu/h-i686-mingw32/bin/../lib/gcc/nios2-elf/4.1.2/../../../../nios2-elf/lib/mno-hw-mul\libc.a(lib_a-fputs.o)
 .debug_info    0x0002593a      0xbc9 c:/altera/10.1sp1/nios2eds/bin/gnu/h-i686-mingw32/bin/../lib/gcc/nios2-elf/4.1.2/../../../../nios2-elf/lib/mno-hw-mul\libc.a(lib_a-freer.o)
 .debug_info    0x00026503      0xa88 c:/altera/10.1sp1/nios2eds/bin/gnu/h-i686-mingw32/bin/../lib/gcc/nios2-elf/4.1.2/../../../../nios2-elf/lib/mno-hw-mul\libc.a(lib_a-fvwrite.o)
 .debug_info    0x00026f8b      0xaed c:/altera/10.1sp1/nios2eds/bin/gnu/h-i686-mingw32/bin/../lib/gcc/nios2-elf/4.1.2/../../../../nios2-elf/lib/mno-hw-mul\libc.a(lib_a-fwalk.o)
 .debug_info    0x00027a78       0x8c c:/altera/10.1sp1/nios2eds/bin/gnu/h-i686-mingw32/bin/../lib/gcc/nios2-elf/4.1.2/../../../../nios2-elf/lib/mno-hw-mul\libc.a(lib_a-int_errno.o)
 .debug_info    0x00027b04      0xb97 c:/altera/10.1sp1/nios2eds/bin/gnu/h-i686-mingw32/bin/../lib/gcc/nios2-elf/4.1.2/../../../../nios2-elf/lib/mno-hw-mul\libc.a(lib_a-locale.o)
 .debug_info    0x0002869b      0xb1a c:/altera/10.1sp1/nios2eds/bin/gnu/h-i686-mingw32/bin/../lib/gcc/nios2-elf/4.1.2/../../../../nios2-elf/lib/mno-hw-mul\libc.a(lib_a-makebuf.o)
 .debug_info    0x000291b5      0x138 c:/altera/10.1sp1/nios2eds/bin/gnu/h-i686-mingw32/bin/../lib/gcc/nios2-elf/4.1.2/../../../../nios2-elf/lib/mno-hw-mul\libc.a(lib_a-memchr.o)
 .debug_info    0x000292ed      0x13e c:/altera/10.1sp1/nios2eds/bin/gnu/h-i686-mingw32/bin/../lib/gcc/nios2-elf/4.1.2/../../../../nios2-elf/lib/mno-hw-mul\libc.a(lib_a-memmove.o)
 .debug_info    0x0002942b     0x143b c:/altera/10.1sp1/nios2eds/bin/gnu/h-i686-mingw32/bin/../lib/gcc/nios2-elf/4.1.2/../../../../nios2-elf/lib/mno-hw-mul\libc.a(lib_a-mprec.o)
 .debug_info    0x0002a866      0xbd7 c:/altera/10.1sp1/nios2eds/bin/gnu/h-i686-mingw32/bin/../lib/gcc/nios2-elf/4.1.2/../../../../nios2-elf/lib/mno-hw-mul\libc.a(lib_a-reallocr.o)
 .debug_info    0x0002b43d      0x98b c:/altera/10.1sp1/nios2eds/bin/gnu/h-i686-mingw32/bin/../lib/gcc/nios2-elf/4.1.2/../../../../nios2-elf/lib/mno-hw-mul\libc.a(lib_a-refill.o)
 .debug_info    0x0002bdc8       0xd7 c:/altera/10.1sp1/nios2eds/bin/gnu/h-i686-mingw32/bin/../lib/gcc/nios2-elf/4.1.2/../../../../nios2-elf/lib/mno-hw-mul\libc.a(lib_a-s_isinfd.o)
 .debug_info    0x0002be9f      0xaac c:/altera/10.1sp1/nios2eds/bin/gnu/h-i686-mingw32/bin/../lib/gcc/nios2-elf/4.1.2/../../../../nios2-elf/lib/mno-hw-mul\libc.a(lib_a-stdio.o)
 .debug_info    0x0002c94b       0xdd c:/altera/10.1sp1/nios2eds/bin/gnu/h-i686-mingw32/bin/../lib/gcc/nios2-elf/4.1.2/../../../../nios2-elf/lib/mno-hw-mul\libc.a(lib_a-strcmp.o)
 .debug_info    0x0002ca28      0x993 c:/altera/10.1sp1/nios2eds/bin/gnu/h-i686-mingw32/bin/../lib/gcc/nios2-elf/4.1.2/../../../../nios2-elf/lib/mno-hw-mul\libc.a(lib_a-writer.o)
 .debug_info    0x0002d3bb      0xa1b c:/altera/10.1sp1/nios2eds/bin/gnu/h-i686-mingw32/bin/../lib/gcc/nios2-elf/4.1.2/../../../../nios2-elf/lib/mno-hw-mul\libc.a(lib_a-callocr.o)
 .debug_info    0x0002ddd6      0x958 c:/altera/10.1sp1/nios2eds/bin/gnu/h-i686-mingw32/bin/../lib/gcc/nios2-elf/4.1.2/../../../../nios2-elf/lib/mno-hw-mul\libc.a(lib_a-closer.o)
 .debug_info    0x0002e72e      0x994 c:/altera/10.1sp1/nios2eds/bin/gnu/h-i686-mingw32/bin/../lib/gcc/nios2-elf/4.1.2/../../../../nios2-elf/lib/mno-hw-mul\libc.a(lib_a-fclose.o)
 .debug_info    0x0002f0c2      0xafc c:/altera/10.1sp1/nios2eds/bin/gnu/h-i686-mingw32/bin/../lib/gcc/nios2-elf/4.1.2/../../../../nios2-elf/lib/mno-hw-mul\libc.a(lib_a-fstatr.o)
 .debug_info    0x0002fbbe      0x958 c:/altera/10.1sp1/nios2eds/bin/gnu/h-i686-mingw32/bin/../lib/gcc/nios2-elf/4.1.2/../../../../nios2-elf/lib/mno-hw-mul\libc.a(lib_a-isattyr.o)
 .debug_info    0x00030516      0x981 c:/altera/10.1sp1/nios2eds/bin/gnu/h-i686-mingw32/bin/../lib/gcc/nios2-elf/4.1.2/../../../../nios2-elf/lib/mno-hw-mul\libc.a(lib_a-lseekr.o)
 .debug_info    0x00030e97      0x98c c:/altera/10.1sp1/nios2eds/bin/gnu/h-i686-mingw32/bin/../lib/gcc/nios2-elf/4.1.2/../../../../nios2-elf/lib/mno-hw-mul\libc.a(lib_a-readr.o)
 .debug_info    0x00031823      0x71c c:/altera/10.1sp1/nios2eds/bin/gnu/h-i686-mingw32/bin/../lib/gcc/nios2-elf/4.1.2/mno-hw-mul\libgcc.a(_udivdi3.o)
 .debug_info    0x00031f3f      0x749 c:/altera/10.1sp1/nios2eds/bin/gnu/h-i686-mingw32/bin/../lib/gcc/nios2-elf/4.1.2/mno-hw-mul\libgcc.a(_umoddi3.o)
 .debug_info    0x00032688      0x29d c:/altera/10.1sp1/nios2eds/bin/gnu/h-i686-mingw32/bin/../lib/gcc/nios2-elf/4.1.2/mno-hw-mul\libgcc.a(_ne_df.o)
 .debug_info    0x00032925      0x6d0 ../RedeFFTHW_bsp\libucosii_bsp.a(alt_fstat.o)
 .debug_info    0x00032ff5      0x6d6 ../RedeFFTHW_bsp\libucosii_bsp.a(alt_isatty.o)
 .debug_info    0x000336cb      0x2a9 ../RedeFFTHW_bsp\libucosii_bsp.a(alt_load.o)
 .debug_info    0x00033974      0x50a ../RedeFFTHW_bsp\libucosii_bsp.a(alt_lseek.o)
 .debug_info    0x00033e7e      0x3f9 ../RedeFFTHW_bsp\libucosii_bsp.a(alt_main.o)
 .debug_info    0x00034277      0x1ad ../RedeFFTHW_bsp\libucosii_bsp.a(alt_remap_cached.o)
 .debug_info    0x00034424      0x1b1 ../RedeFFTHW_bsp\libucosii_bsp.a(alt_remap_uncached.o)
 .debug_info    0x000345d5      0x2d3 ../RedeFFTHW_bsp\libucosii_bsp.a(alt_sbrk.o)
 .debug_info    0x000348a8      0x42d ../RedeFFTHW_bsp\libucosii_bsp.a(alt_tick.o)
 .debug_info    0x00034cd5      0x1b3 ../RedeFFTHW_bsp\libucosii_bsp.a(alt_uncached_malloc.o)
 .debug_info    0x00034e88      0x250 ../RedeFFTHW_bsp\libucosii_bsp.a(alt_usleep.o)
 .debug_info    0x000350d8     0x11ef ../RedeFFTHW_bsp\libucosii_bsp.a(alt_env_lock.o)
 .debug_info    0x000362c7     0x134b ../RedeFFTHW_bsp\libucosii_bsp.a(alt_malloc_lock.o)
 .debug_info    0x00037612     0x1c05 ../RedeFFTHW_bsp\libucosii_bsp.a(os_core.o)
 .debug_info    0x00039217     0x114a ../RedeFFTHW_bsp\libucosii_bsp.a(os_dbg.o)
 .debug_info    0x0003a361     0x1260 ../RedeFFTHW_bsp\libucosii_bsp.a(os_flag.o)
 .debug_info    0x0003b5c1      0x82a ../RedeFFTHW_bsp\libucosii_bsp.a(os_mem.o)
 .debug_info    0x0003bdeb     0x109a ../RedeFFTHW_bsp\libucosii_bsp.a(os_q.o)
 .debug_info    0x0003ce85      0xd02 ../RedeFFTHW_bsp\libucosii_bsp.a(os_sem.o)
 .debug_info    0x0003db87     0x1378 ../RedeFFTHW_bsp\libucosii_bsp.a(os_task.o)
 .debug_info    0x0003eeff      0x9fc ../RedeFFTHW_bsp\libucosii_bsp.a(os_time.o)
 .debug_info    0x0003f8fb     0x1662 ../RedeFFTHW_bsp\libucosii_bsp.a(alt_sys_init.o)
 .debug_info    0x00040f5d      0x9ee ../RedeFFTHW_bsp\libucosii_bsp.a(altera_avalon_jtag_uart_fd.o)
 .debug_info    0x0004194b      0x96c ../RedeFFTHW_bsp\libucosii_bsp.a(altera_avalon_jtag_uart_init.o)
 .debug_info    0x000422b7      0x658 ../RedeFFTHW_bsp\libucosii_bsp.a(altera_avalon_jtag_uart_ioctl.o)
 .debug_info    0x0004290f      0x814 ../RedeFFTHW_bsp\libucosii_bsp.a(altera_avalon_jtag_uart_read.o)
 .debug_info    0x00043123      0x80b ../RedeFFTHW_bsp\libucosii_bsp.a(altera_avalon_jtag_uart_write.o)
 .debug_info    0x0004392e      0xe77 ../RedeFFTHW_bsp\libucosii_bsp.a(altera_avalon_sgdma.o)
 .debug_info    0x000447a5      0x3a7 ../RedeFFTHW_bsp\libucosii_bsp.a(altera_avalon_timer_sc.o)
 .debug_info    0x00044b4c     0x2b5b ../RedeFFTHW_bsp\libucosii_bsp.a(ins_tse_mac.o)
 .debug_info    0x000476a7      0x2f2 ../RedeFFTHW_bsp\libucosii_bsp.a(perf_print_formatted_report.o)
 .debug_info    0x00047999      0x1d2 ../RedeFFTHW_bsp\libucosii_bsp.a(alt_iniche_close.o)
 .debug_info    0x00047b6b      0xb79 ../RedeFFTHW_bsp\libucosii_bsp.a(alt_iniche_dev.o)
 .debug_info    0x000486e4      0x1fc ../RedeFFTHW_bsp\libucosii_bsp.a(alt_iniche_read.o)
 .debug_info    0x000488e0      0x203 ../RedeFFTHW_bsp\libucosii_bsp.a(alt_iniche_write.o)
 .debug_info    0x00048ae3      0xc65 ../RedeFFTHW_bsp\libucosii_bsp.a(ipnet.o)
 .debug_info    0x00049748      0xbb8 ../RedeFFTHW_bsp\libucosii_bsp.a(ipstart.o)
 .debug_info    0x0004a300     0x154c ../RedeFFTHW_bsp\libucosii_bsp.a(igmp_cmn.o)
 .debug_info    0x0004b84c     0x147c ../RedeFFTHW_bsp\libucosii_bsp.a(bsdsock.o)
 .debug_info    0x0004ccc8      0x26e ../RedeFFTHW_bsp\libucosii_bsp.a(cksum.o)
 .debug_info    0x0004cf36      0x760 ../RedeFFTHW_bsp\libucosii_bsp.a(in_utils.o)
 .debug_info    0x0004d696      0x57a ../RedeFFTHW_bsp\libucosii_bsp.a(netmain.o)
 .debug_info    0x0004dc10      0x987 ../RedeFFTHW_bsp\libucosii_bsp.a(tk_crnos.o)
 .debug_info    0x0004e597     0x1615 ../RedeFFTHW_bsp\libucosii_bsp.a(dhcpclnt.o)
 .debug_info    0x0004fbac      0x1f8 ../RedeFFTHW_bsp\libucosii_bsp.a(dhcputil.o)
 .debug_info    0x0004fda4      0xcc4 ../RedeFFTHW_bsp\libucosii_bsp.a(pktalloc.o)
 .debug_info    0x00050a68      0x308 ../RedeFFTHW_bsp\libucosii_bsp.a(q.o)
 .debug_info    0x00050d70      0xb43 ../RedeFFTHW_bsp\libucosii_bsp.a(udp_open.o)
 .debug_info    0x000518b3       0xa9 ../RedeFFTHW_bsp\libucosii_bsp.a(asm_cksum.o)
 .debug_info    0x0005195c      0xec9 ../RedeFFTHW_bsp\libucosii_bsp.a(brdutils.o)
 .debug_info    0x00052825      0x6fb ../RedeFFTHW_bsp\libucosii_bsp.a(osportco.o)
 .debug_info    0x00052f20      0x678 ../RedeFFTHW_bsp\libucosii_bsp.a(targnios.o)
 .debug_info    0x00053598     0x253f ../RedeFFTHW_bsp\libucosii_bsp.a(nptcp.o)
 .debug_info    0x00055ad7     0x11f7 ../RedeFFTHW_bsp\libucosii_bsp.a(rawsock.o)
 .debug_info    0x00056cce     0x1cb5 ../RedeFFTHW_bsp\libucosii_bsp.a(sockcall.o)
 .debug_info    0x00058983     0x1abb ../RedeFFTHW_bsp\libucosii_bsp.a(socket.o)
 .debug_info    0x0005a43e     0x1581 ../RedeFFTHW_bsp\libucosii_bsp.a(socket2.o)
 .debug_info    0x0005b9bf     0x129a ../RedeFFTHW_bsp\libucosii_bsp.a(soselect.o)
 .debug_info    0x0005cc59     0x214c ../RedeFFTHW_bsp\libucosii_bsp.a(tcp_in.o)
 .debug_info    0x0005eda5     0x1e3b ../RedeFFTHW_bsp\libucosii_bsp.a(tcp_out.o)
 .debug_info    0x00060be0     0x1ea3 ../RedeFFTHW_bsp\libucosii_bsp.a(tcp_subr.o)
 .debug_info    0x00062a83     0x1cbe ../RedeFFTHW_bsp\libucosii_bsp.a(tcp_timr.o)
 .debug_info    0x00064741     0x1c7b ../RedeFFTHW_bsp\libucosii_bsp.a(tcp_usr.o)
 .debug_info    0x000663bc      0x1ce ../RedeFFTHW_bsp\libucosii_bsp.a(tcpport.o)
 .debug_info    0x0006658a     0x1351 ../RedeFFTHW_bsp\libucosii_bsp.a(udpsock.o)
 .debug_info    0x000678db      0x45e ../RedeFFTHW_bsp\libucosii_bsp.a(alt_alarm_start.o)
 .debug_info    0x00067d39      0x1c7 ../RedeFFTHW_bsp\libucosii_bsp.a(alt_busy_sleep.o)
 .debug_info    0x00067f00      0x4db ../RedeFFTHW_bsp\libucosii_bsp.a(alt_close.o)
 .debug_info    0x000683db      0x1a0 ../RedeFFTHW_bsp\libucosii_bsp.a(alt_dcache_flush.o)
 .debug_info    0x0006857b      0x178 ../RedeFFTHW_bsp\libucosii_bsp.a(alt_dcache_flush_all.o)
 .debug_info    0x000686f3      0x7f9 ../RedeFFTHW_bsp\libucosii_bsp.a(alt_dev.o)
 .debug_info    0x00068eec      0x2d3 ../RedeFFTHW_bsp\libucosii_bsp.a(alt_dev_llist_insert.o)
 .debug_info    0x000691bf       0xf8 ../RedeFFTHW_bsp\libucosii_bsp.a(alt_do_ctors.o)
 .debug_info    0x000692b7       0xf7 ../RedeFFTHW_bsp\libucosii_bsp.a(alt_do_dtors.o)
 .debug_info    0x000693ae      0x180 ../RedeFFTHW_bsp\libucosii_bsp.a(alt_errno.o)
 .debug_info    0x0006952e      0x488 ../RedeFFTHW_bsp\libucosii_bsp.a(alt_find_dev.o)
 .debug_info    0x000699b6      0x178 ../RedeFFTHW_bsp\libucosii_bsp.a(alt_icache_flush_all.o)
 .debug_info    0x00069b2e      0x4af ../RedeFFTHW_bsp\libucosii_bsp.a(alt_iic.o)
 .debug_info    0x00069fdd      0x330 ../RedeFFTHW_bsp\libucosii_bsp.a(alt_iic_isr_register.o)
 .debug_info    0x0006a30d      0x705 ../RedeFFTHW_bsp\libucosii_bsp.a(alt_io_redirect.o)
 .debug_info    0x0006aa12       0xa0 ../RedeFFTHW_bsp\libucosii_bsp.a(alt_irq_entry.o)
 .debug_info    0x0006aab2      0x2d6 ../RedeFFTHW_bsp\libucosii_bsp.a(alt_irq_handler.o)
 .debug_info    0x0006ad88      0x183 ../RedeFFTHW_bsp\libucosii_bsp.a(alt_irq_vars.o)
 .debug_info    0x0006af0b      0x586 ../RedeFFTHW_bsp\libucosii_bsp.a(alt_open.o)
 .debug_info    0x0006b491      0x6fe ../RedeFFTHW_bsp\libucosii_bsp.a(alt_read.o)
 .debug_info    0x0006bb8f      0x46b ../RedeFFTHW_bsp\libucosii_bsp.a(alt_release_fd.o)
 .debug_info    0x0006bffa      0x707 ../RedeFFTHW_bsp\libucosii_bsp.a(alt_write.o)
 .debug_info    0x0006c701      0x175 ../RedeFFTHW_bsp\libucosii_bsp.a(altera_nios2_irq.o)
 .debug_info    0x0006c876       0x9f ../RedeFFTHW_bsp\libucosii_bsp.a(os_cpu_a.o)
 .debug_info    0x0006c915     0x12ef ../RedeFFTHW_bsp\libucosii_bsp.a(os_cpu_c.o)
 .debug_info    0x0006dc04      0x2cb ../RedeFFTHW_bsp\libucosii_bsp.a(altera_avalon_performance_counter.o)
 .debug_info    0x0006decf     0x312b ../RedeFFTHW_bsp\libucosii_bsp.a(altera_avalon_tse.o)
 .debug_info    0x00070ffa     0x1006 ../RedeFFTHW_bsp\libucosii_bsp.a(altera_avalon_tse_system_info.o)
 .debug_info    0x00072000      0xdbb ../RedeFFTHW_bsp\libucosii_bsp.a(allports.o)
 .debug_info    0x00072dbb      0x3dd ../RedeFFTHW_bsp\libucosii_bsp.a(timeouts.o)
 .debug_info    0x00073198      0x23c ../RedeFFTHW_bsp\libucosii_bsp.a(tk_misc.o)
 .debug_info    0x000733d4      0x229 ../RedeFFTHW_bsp\libucosii_bsp.a(alt_iniche_fcntl.o)
 .debug_info    0x000735fd     0x1295 ../RedeFFTHW_bsp\libucosii_bsp.a(et_arp.o)
 .debug_info    0x00074892      0xfb3 ../RedeFFTHW_bsp\libucosii_bsp.a(iface.o)
 .debug_info    0x00075845     0x1723 ../RedeFFTHW_bsp\libucosii_bsp.a(ip.o)
 .debug_info    0x00076f68     0x1884 ../RedeFFTHW_bsp\libucosii_bsp.a(ip_reasm.o)
 .debug_info    0x000787ec      0xe05 ../RedeFFTHW_bsp\libucosii_bsp.a(ipdemux.o)
 .debug_info    0x000795f1      0xa61 ../RedeFFTHW_bsp\libucosii_bsp.a(ipmc.o)
 .debug_info    0x0007a052      0x2ff ../RedeFFTHW_bsp\libucosii_bsp.a(ipport.o)
 .debug_info    0x0007a351      0xf72 ../RedeFFTHW_bsp\libucosii_bsp.a(ipraw.o)
 .debug_info    0x0007b2c3      0xf1d ../RedeFFTHW_bsp\libucosii_bsp.a(iproute.o)
 .debug_info    0x0007c1e0     0x12b4 ../RedeFFTHW_bsp\libucosii_bsp.a(udp.o)
 .debug_info    0x0007d494     0x114e ../RedeFFTHW_bsp\libucosii_bsp.a(igmp.o)
 .debug_info    0x0007e5e2     0x1382 ../RedeFFTHW_bsp\libucosii_bsp.a(igmp2.o)
 .debug_info    0x0007f964     0x10fd ../RedeFFTHW_bsp\libucosii_bsp.a(ipopt.o)
 .debug_info    0x00080a61      0xbd5 ../RedeFFTHW_bsp\libucosii_bsp.a(u_mctest.o)
 .debug_info    0x00081636      0xa73 ../RedeFFTHW_bsp\libucosii_bsp.a(dhcsetup.o)
 .debug_info    0x000820a9      0x75b ../RedeFFTHW_bsp\libucosii_bsp.a(memdev.o)
 .debug_info    0x00082804      0x706 ../RedeFFTHW_bsp\libucosii_bsp.a(parseip.o)
 .debug_info    0x00082f0a      0x400 ../RedeFFTHW_bsp\libucosii_bsp.a(tcpcksum.o)
 .debug_info    0x0008330a     0x12cf ../RedeFFTHW_bsp\libucosii_bsp.a(in_pcb.o)
 .debug_info    0x000845d9     0x1000 ../RedeFFTHW_bsp\libucosii_bsp.a(vfsfiles.o)
 .debug_info    0x000855d9      0x1cf ../RedeFFTHW_bsp\libucosii_bsp.a(vfsport.o)
 .debug_info    0x000857a8       0xa6 ../RedeFFTHW_bsp\libucosii_bsp.a(alt_exception_entry.o)
 .debug_info    0x0008584e      0x71c ../RedeFFTHW_bsp\libucosii_bsp.a(alt_fcntl.o)
 .debug_info    0x00085f6a      0x48f ../RedeFFTHW_bsp\libucosii_bsp.a(alt_find_file.o)
 .debug_info    0x000863f9      0x621 ../RedeFFTHW_bsp\libucosii_bsp.a(alt_get_fd.o)
 .debug_info    0x00086a1a     0x11a2 ../RedeFFTHW_bsp\libucosii_bsp.a(icmp.o)
 .debug_info    0x00087bbc      0x181 c:/altera/10.1sp1/nios2eds/bin/gnu/h-i686-mingw32/bin/../lib/gcc/nios2-elf/4.1.2/../../../../nios2-elf/lib/mno-hw-mul\libc.a(lib_a-atexit.o)
 .debug_info    0x00087d3d      0x960 c:/altera/10.1sp1/nios2eds/bin/gnu/h-i686-mingw32/bin/../lib/gcc/nios2-elf/4.1.2/../../../../nios2-elf/lib/mno-hw-mul\libc.a(lib_a-atoi.o)
 .debug_info    0x0008869d      0x954 c:/altera/10.1sp1/nios2eds/bin/gnu/h-i686-mingw32/bin/../lib/gcc/nios2-elf/4.1.2/../../../../nios2-elf/lib/mno-hw-mul\libc.a(lib_a-calloc.o)
 .debug_info    0x00088ff1      0x93f c:/altera/10.1sp1/nios2eds/bin/gnu/h-i686-mingw32/bin/../lib/gcc/nios2-elf/4.1.2/../../../../nios2-elf/lib/mno-hw-mul\libc.a(lib_a-exit.o)
 .debug_info    0x00089930      0x115 c:/altera/10.1sp1/nios2eds/bin/gnu/h-i686-mingw32/bin/../lib/gcc/nios2-elf/4.1.2/../../../../nios2-elf/lib/mno-hw-mul\libc.a(lib_a-memcmp.o)
 .debug_info    0x00089a45      0x118 c:/altera/10.1sp1/nios2eds/bin/gnu/h-i686-mingw32/bin/../lib/gcc/nios2-elf/4.1.2/../../../../nios2-elf/lib/mno-hw-mul\libc.a(lib_a-strchr.o)
 .debug_info    0x00089b5d       0xf5 c:/altera/10.1sp1/nios2eds/bin/gnu/h-i686-mingw32/bin/../lib/gcc/nios2-elf/4.1.2/../../../../nios2-elf/lib/mno-hw-mul\libc.a(lib_a-strncmp.o)
 .debug_info    0x00089c52      0x12a c:/altera/10.1sp1/nios2eds/bin/gnu/h-i686-mingw32/bin/../lib/gcc/nios2-elf/4.1.2/../../../../nios2-elf/lib/mno-hw-mul\libc.a(lib_a-strncpy.o)
 .debug_info    0x00089d7c      0xa2a c:/altera/10.1sp1/nios2eds/bin/gnu/h-i686-mingw32/bin/../lib/gcc/nios2-elf/4.1.2/../../../../nios2-elf/lib/mno-hw-mul\libc.a(lib_a-strtol.o)
 .debug_info    0x0008a7a6      0x9aa c:/altera/10.1sp1/nios2eds/bin/gnu/h-i686-mingw32/bin/../lib/gcc/nios2-elf/4.1.2/../../../../nios2-elf/lib/mno-hw-mul\libc.a(lib_a-vprintf.o)
 .debug_info    0x0008b150      0x9ed c:/altera/10.1sp1/nios2eds/bin/gnu/h-i686-mingw32/bin/../lib/gcc/nios2-elf/4.1.2/../../../../nios2-elf/lib/mno-hw-mul\libc.a(lib_a-vsprintf.o)
 .debug_info    0x0008bb3d      0x99c c:/altera/10.1sp1/nios2eds/bin/gnu/h-i686-mingw32/bin/../lib/gcc/nios2-elf/4.1.2/../../../../nios2-elf/lib/mno-hw-mul\libc.a(lib_a-__atexit.o)
 .debug_info    0x0008c4d9      0x9e2 c:/altera/10.1sp1/nios2eds/bin/gnu/h-i686-mingw32/bin/../lib/gcc/nios2-elf/4.1.2/../../../../nios2-elf/lib/mno-hw-mul\libc.a(lib_a-__call_atexit.o)
 .debug_info    0x0008cebb       0xdc c:/altera/10.1sp1/nios2eds/bin/gnu/h-i686-mingw32/bin/../lib/gcc/nios2-elf/4.1.2/mno-hw-mul\libgcc.a(_floatundidf.o)
 .debug_info    0x0008cf97      0x224 ../RedeFFTHW_bsp\libucosii_bsp.a(alt_exit.o)

.debug_abbrev   0x00000000    0x1495d
 *(.debug_abbrev)
 .debug_abbrev  0x00000000       0x12 ../RedeFFTHW_bsp/obj/HAL/src/crt0.o
 .debug_abbrev  0x00000012      0x158 obj/AquisicaoRede.o
 .debug_abbrev  0x0000016a      0x29e obj/DanWindow/DanWindow.o
 .debug_abbrev  0x00000408      0x13a obj/FFT/simpleDFT.o
 .debug_abbrev  0x00000542      0x145 obj/LCDTask.o
 .debug_abbrev  0x00000687       0xf6 obj/TerminalSerial.o
 .debug_abbrev  0x0000077d      0x1f1 obj/alt_error_handler.o
 .debug_abbrev  0x0000096e        0x1 obj/alt_touchscreen/alt_touchscreen.o
 .debug_abbrev  0x0000096f      0x1a5 obj/alt_tpo_lcd/alt_tpo_lcd.o
 .debug_abbrev  0x00000b14      0x1b6 obj/alt_video_display/alt_video_display.o
 .debug_abbrev  0x00000cca      0x110 obj/fixedpoint2_16.o
 .debug_abbrev  0x00000dda      0x1fb obj/graphics_lib/simple_graphics.o
 .debug_abbrev  0x00000fd5       0xfe obj/iniche_init.o
 .debug_abbrev  0x000010d3      0x262 obj/network_utilities.o
 .debug_abbrev  0x00001335      0x1f6 obj/simple_socket_server.o
 .debug_abbrev  0x0000152b       0x9a c:/altera/10.1sp1/nios2eds/bin/gnu/h-i686-mingw32/bin/../lib/gcc/nios2-elf/4.1.2/../../../../nios2-elf/lib/mno-hw-mul\libm.a(lib_a-s_cos.o)
 .debug_abbrev  0x000015c5       0x9a c:/altera/10.1sp1/nios2eds/bin/gnu/h-i686-mingw32/bin/../lib/gcc/nios2-elf/4.1.2/../../../../nios2-elf/lib/mno-hw-mul\libm.a(lib_a-s_sin.o)
 .debug_abbrev  0x0000165f       0xe5 c:/altera/10.1sp1/nios2eds/bin/gnu/h-i686-mingw32/bin/../lib/gcc/nios2-elf/4.1.2/../../../../nios2-elf/lib/mno-hw-mul\libm.a(lib_a-w_sqrt.o)
 .debug_abbrev  0x00001744       0xcf c:/altera/10.1sp1/nios2eds/bin/gnu/h-i686-mingw32/bin/../lib/gcc/nios2-elf/4.1.2/../../../../nios2-elf/lib/mno-hw-mul\libm.a(lib_a-wf_sqrt.o)
 .debug_abbrev  0x00001813      0x135 c:/altera/10.1sp1/nios2eds/bin/gnu/h-i686-mingw32/bin/../lib/gcc/nios2-elf/4.1.2/../../../../nios2-elf/lib/mno-hw-mul\libm.a(lib_a-e_rem_pio2.o)
 .debug_abbrev  0x00001948      0x122 c:/altera/10.1sp1/nios2eds/bin/gnu/h-i686-mingw32/bin/../lib/gcc/nios2-elf/4.1.2/../../../../nios2-elf/lib/mno-hw-mul\libm.a(lib_a-e_sqrt.o)
 .debug_abbrev  0x00001a6a       0xe6 c:/altera/10.1sp1/nios2eds/bin/gnu/h-i686-mingw32/bin/../lib/gcc/nios2-elf/4.1.2/../../../../nios2-elf/lib/mno-hw-mul\libm.a(lib_a-ef_sqrt.o)
 .debug_abbrev  0x00001b50       0xec c:/altera/10.1sp1/nios2eds/bin/gnu/h-i686-mingw32/bin/../lib/gcc/nios2-elf/4.1.2/../../../../nios2-elf/lib/mno-hw-mul\libm.a(lib_a-k_cos.o)
 .debug_abbrev  0x00001c3c      0x104 c:/altera/10.1sp1/nios2eds/bin/gnu/h-i686-mingw32/bin/../lib/gcc/nios2-elf/4.1.2/../../../../nios2-elf/lib/mno-hw-mul\libm.a(lib_a-k_rem_pio2.o)
 .debug_abbrev  0x00001d40       0xa0 c:/altera/10.1sp1/nios2eds/bin/gnu/h-i686-mingw32/bin/../lib/gcc/nios2-elf/4.1.2/../../../../nios2-elf/lib/mno-hw-mul\libm.a(lib_a-k_sin.o)
 .debug_abbrev  0x00001de0       0xc3 c:/altera/10.1sp1/nios2eds/bin/gnu/h-i686-mingw32/bin/../lib/gcc/nios2-elf/4.1.2/../../../../nios2-elf/lib/mno-hw-mul\libm.a(lib_a-s_fabs.o)
 .debug_abbrev  0x00001ea3       0xea c:/altera/10.1sp1/nios2eds/bin/gnu/h-i686-mingw32/bin/../lib/gcc/nios2-elf/4.1.2/../../../../nios2-elf/lib/mno-hw-mul\libm.a(lib_a-s_floor.o)
 .debug_abbrev  0x00001f8d       0x79 c:/altera/10.1sp1/nios2eds/bin/gnu/h-i686-mingw32/bin/../lib/gcc/nios2-elf/4.1.2/../../../../nios2-elf/lib/mno-hw-mul\libm.a(lib_a-s_isnand.o)
 .debug_abbrev  0x00002006       0x53 c:/altera/10.1sp1/nios2eds/bin/gnu/h-i686-mingw32/bin/../lib/gcc/nios2-elf/4.1.2/../../../../nios2-elf/lib/mno-hw-mul\libm.a(lib_a-s_lib_ver.o)
 .debug_abbrev  0x00002059       0x95 c:/altera/10.1sp1/nios2eds/bin/gnu/h-i686-mingw32/bin/../lib/gcc/nios2-elf/4.1.2/../../../../nios2-elf/lib/mno-hw-mul\libm.a(lib_a-s_matherr.o)
 .debug_abbrev  0x000020ee       0xf5 c:/altera/10.1sp1/nios2eds/bin/gnu/h-i686-mingw32/bin/../lib/gcc/nios2-elf/4.1.2/../../../../nios2-elf/lib/mno-hw-mul\libm.a(lib_a-s_scalbn.o)
 .debug_abbrev  0x000021e3       0xa7 c:/altera/10.1sp1/nios2eds/bin/gnu/h-i686-mingw32/bin/../lib/gcc/nios2-elf/4.1.2/../../../../nios2-elf/lib/mno-hw-mul\libm.a(lib_a-sf_isnan.o)
 .debug_abbrev  0x0000228a       0xc3 c:/altera/10.1sp1/nios2eds/bin/gnu/h-i686-mingw32/bin/../lib/gcc/nios2-elf/4.1.2/../../../../nios2-elf/lib/mno-hw-mul\libm.a(lib_a-s_copysign.o)
 .debug_abbrev  0x0000234d       0xfb c:/altera/10.1sp1/nios2eds/bin/gnu/h-i686-mingw32/bin/../lib/gcc/nios2-elf/4.1.2/mno-hw-mul\libgcc.a(_muldi3.o)
 .debug_abbrev  0x00002448      0x1e1 c:/altera/10.1sp1/nios2eds/bin/gnu/h-i686-mingw32/bin/../lib/gcc/nios2-elf/4.1.2/mno-hw-mul\libgcc.a(_addsub_sf.o)
 .debug_abbrev  0x00002629      0x206 c:/altera/10.1sp1/nios2eds/bin/gnu/h-i686-mingw32/bin/../lib/gcc/nios2-elf/4.1.2/mno-hw-mul\libgcc.a(_mul_sf.o)
 .debug_abbrev  0x0000282f      0x1e5 c:/altera/10.1sp1/nios2eds/bin/gnu/h-i686-mingw32/bin/../lib/gcc/nios2-elf/4.1.2/mno-hw-mul\libgcc.a(_div_sf.o)
 .debug_abbrev  0x00002a14      0x151 c:/altera/10.1sp1/nios2eds/bin/gnu/h-i686-mingw32/bin/../lib/gcc/nios2-elf/4.1.2/mno-hw-mul\libgcc.a(_ge_sf.o)
 .debug_abbrev  0x00002b65      0x151 c:/altera/10.1sp1/nios2eds/bin/gnu/h-i686-mingw32/bin/../lib/gcc/nios2-elf/4.1.2/mno-hw-mul\libgcc.a(_lt_sf.o)
 .debug_abbrev  0x00002cb6      0x13d c:/altera/10.1sp1/nios2eds/bin/gnu/h-i686-mingw32/bin/../lib/gcc/nios2-elf/4.1.2/mno-hw-mul\libgcc.a(_si_to_sf.o)
 .debug_abbrev  0x00002df3      0x176 c:/altera/10.1sp1/nios2eds/bin/gnu/h-i686-mingw32/bin/../lib/gcc/nios2-elf/4.1.2/mno-hw-mul\libgcc.a(_sf_to_si.o)
 .debug_abbrev  0x00002f69      0x128 c:/altera/10.1sp1/nios2eds/bin/gnu/h-i686-mingw32/bin/../lib/gcc/nios2-elf/4.1.2/mno-hw-mul\libgcc.a(_sf_to_df.o)
 .debug_abbrev  0x00003091       0xba c:/altera/10.1sp1/nios2eds/bin/gnu/h-i686-mingw32/bin/../lib/gcc/nios2-elf/4.1.2/mno-hw-mul\libgcc.a(_thenan_sf.o)
 .debug_abbrev  0x0000314b      0x1d2 c:/altera/10.1sp1/nios2eds/bin/gnu/h-i686-mingw32/bin/../lib/gcc/nios2-elf/4.1.2/mno-hw-mul\libgcc.a(_addsub_df.o)
 .debug_abbrev  0x0000331d      0x204 c:/altera/10.1sp1/nios2eds/bin/gnu/h-i686-mingw32/bin/../lib/gcc/nios2-elf/4.1.2/mno-hw-mul\libgcc.a(_mul_df.o)
 .debug_abbrev  0x00003521      0x1e3 c:/altera/10.1sp1/nios2eds/bin/gnu/h-i686-mingw32/bin/../lib/gcc/nios2-elf/4.1.2/mno-hw-mul\libgcc.a(_div_df.o)
 .debug_abbrev  0x00003704      0x151 c:/altera/10.1sp1/nios2eds/bin/gnu/h-i686-mingw32/bin/../lib/gcc/nios2-elf/4.1.2/mno-hw-mul\libgcc.a(_eq_df.o)
 .debug_abbrev  0x00003855      0x151 c:/altera/10.1sp1/nios2eds/bin/gnu/h-i686-mingw32/bin/../lib/gcc/nios2-elf/4.1.2/mno-hw-mul\libgcc.a(_gt_df.o)
 .debug_abbrev  0x000039a6      0x151 c:/altera/10.1sp1/nios2eds/bin/gnu/h-i686-mingw32/bin/../lib/gcc/nios2-elf/4.1.2/mno-hw-mul\libgcc.a(_ge_df.o)
 .debug_abbrev  0x00003af7      0x151 c:/altera/10.1sp1/nios2eds/bin/gnu/h-i686-mingw32/bin/../lib/gcc/nios2-elf/4.1.2/mno-hw-mul\libgcc.a(_lt_df.o)
 .debug_abbrev  0x00003c48      0x13f c:/altera/10.1sp1/nios2eds/bin/gnu/h-i686-mingw32/bin/../lib/gcc/nios2-elf/4.1.2/mno-hw-mul\libgcc.a(_si_to_df.o)
 .debug_abbrev  0x00003d87      0x176 c:/altera/10.1sp1/nios2eds/bin/gnu/h-i686-mingw32/bin/../lib/gcc/nios2-elf/4.1.2/mno-hw-mul\libgcc.a(_df_to_si.o)
 .debug_abbrev  0x00003efd      0x10f c:/altera/10.1sp1/nios2eds/bin/gnu/h-i686-mingw32/bin/../lib/gcc/nios2-elf/4.1.2/mno-hw-mul\libgcc.a(_make_df.o)
 .debug_abbrev  0x0000400c      0x137 c:/altera/10.1sp1/nios2eds/bin/gnu/h-i686-mingw32/bin/../lib/gcc/nios2-elf/4.1.2/mno-hw-mul\libgcc.a(_df_to_sf.o)
 .debug_abbrev  0x00004143       0xba c:/altera/10.1sp1/nios2eds/bin/gnu/h-i686-mingw32/bin/../lib/gcc/nios2-elf/4.1.2/mno-hw-mul\libgcc.a(_thenan_df.o)
 .debug_abbrev  0x000041fd      0x155 c:/altera/10.1sp1/nios2eds/bin/gnu/h-i686-mingw32/bin/../lib/gcc/nios2-elf/4.1.2/mno-hw-mul\libgcc.a(_usi_to_df.o)
 .debug_abbrev  0x00004352       0xe0 c:/altera/10.1sp1/nios2eds/bin/gnu/h-i686-mingw32/bin/../lib/gcc/nios2-elf/4.1.2/mno-hw-mul\libgcc.a(lib2-divmod.o)
 .debug_abbrev  0x00004432       0x7b c:/altera/10.1sp1/nios2eds/bin/gnu/h-i686-mingw32/bin/../lib/gcc/nios2-elf/4.1.2/mno-hw-mul\libgcc.a(lib2-mul.o)
 .debug_abbrev  0x000044ad       0xb9 c:/altera/10.1sp1/nios2eds/bin/gnu/h-i686-mingw32/bin/../lib/gcc/nios2-elf/4.1.2/mno-hw-mul\libgcc.a(_clzsi2.o)
 .debug_abbrev  0x00004566      0x1aa c:/altera/10.1sp1/nios2eds/bin/gnu/h-i686-mingw32/bin/../lib/gcc/nios2-elf/4.1.2/mno-hw-mul\libgcc.a(_pack_sf.o)
 .debug_abbrev  0x00004710      0x158 c:/altera/10.1sp1/nios2eds/bin/gnu/h-i686-mingw32/bin/../lib/gcc/nios2-elf/4.1.2/mno-hw-mul\libgcc.a(_unpack_sf.o)
 .debug_abbrev  0x00004868      0x132 c:/altera/10.1sp1/nios2eds/bin/gnu/h-i686-mingw32/bin/../lib/gcc/nios2-elf/4.1.2/mno-hw-mul\libgcc.a(_fpcmp_parts_sf.o)
 .debug_abbrev  0x0000499a      0x100 c:/altera/10.1sp1/nios2eds/bin/gnu/h-i686-mingw32/bin/../lib/gcc/nios2-elf/4.1.2/mno-hw-mul\libgcc.a(_make_sf.o)
 .debug_abbrev  0x00004a9a      0x1b1 c:/altera/10.1sp1/nios2eds/bin/gnu/h-i686-mingw32/bin/../lib/gcc/nios2-elf/4.1.2/mno-hw-mul\libgcc.a(_pack_df.o)
 .debug_abbrev  0x00004c4b      0x149 c:/altera/10.1sp1/nios2eds/bin/gnu/h-i686-mingw32/bin/../lib/gcc/nios2-elf/4.1.2/mno-hw-mul\libgcc.a(_unpack_df.o)
 .debug_abbrev  0x00004d94      0x132 c:/altera/10.1sp1/nios2eds/bin/gnu/h-i686-mingw32/bin/../lib/gcc/nios2-elf/4.1.2/mno-hw-mul\libgcc.a(_fpcmp_parts_df.o)
 .debug_abbrev  0x00004ec6       0x61 c:/altera/10.1sp1/nios2eds/bin/gnu/h-i686-mingw32/bin/../lib/gcc/nios2-elf/4.1.2/mno-hw-mul\libgcc.a(_clz.o)
 .debug_abbrev  0x00004f27       0x61 c:/altera/10.1sp1/nios2eds/bin/gnu/h-i686-mingw32/bin/../lib/gcc/nios2-elf/4.1.2/../../../../nios2-elf/lib/mno-hw-mul\libc.a(lib_a-ctype_.o)
 .debug_abbrev  0x00004f88      0x15f c:/altera/10.1sp1/nios2eds/bin/gnu/h-i686-mingw32/bin/../lib/gcc/nios2-elf/4.1.2/../../../../nios2-elf/lib/mno-hw-mul\libc.a(lib_a-errno.o)
 .debug_abbrev  0x000050e7      0x197 c:/altera/10.1sp1/nios2eds/bin/gnu/h-i686-mingw32/bin/../lib/gcc/nios2-elf/4.1.2/../../../../nios2-elf/lib/mno-hw-mul\libc.a(lib_a-fprintf.o)
 .debug_abbrev  0x0000527e      0x1b1 c:/altera/10.1sp1/nios2eds/bin/gnu/h-i686-mingw32/bin/../lib/gcc/nios2-elf/4.1.2/../../../../nios2-elf/lib/mno-hw-mul\libc.a(lib_a-fwrite.o)
 .debug_abbrev  0x0000542f      0x17f c:/altera/10.1sp1/nios2eds/bin/gnu/h-i686-mingw32/bin/../lib/gcc/nios2-elf/4.1.2/../../../../nios2-elf/lib/mno-hw-mul\libc.a(lib_a-getc.o)
 .debug_abbrev  0x000055ae      0x157 c:/altera/10.1sp1/nios2eds/bin/gnu/h-i686-mingw32/bin/../lib/gcc/nios2-elf/4.1.2/../../../../nios2-elf/lib/mno-hw-mul\libc.a(lib_a-impure.o)
 .debug_abbrev  0x00005705      0x170 c:/altera/10.1sp1/nios2eds/bin/gnu/h-i686-mingw32/bin/../lib/gcc/nios2-elf/4.1.2/../../../../nios2-elf/lib/mno-hw-mul\libc.a(lib_a-malign.o)
 .debug_abbrev  0x00005875      0x197 c:/altera/10.1sp1/nios2eds/bin/gnu/h-i686-mingw32/bin/../lib/gcc/nios2-elf/4.1.2/../../../../nios2-elf/lib/mno-hw-mul\libc.a(lib_a-malignr.o)
 .debug_abbrev  0x00005a0c      0x187 c:/altera/10.1sp1/nios2eds/bin/gnu/h-i686-mingw32/bin/../lib/gcc/nios2-elf/4.1.2/../../../../nios2-elf/lib/mno-hw-mul\libc.a(lib_a-malloc.o)
 .debug_abbrev  0x00005b93      0x216 c:/altera/10.1sp1/nios2eds/bin/gnu/h-i686-mingw32/bin/../lib/gcc/nios2-elf/4.1.2/../../../../nios2-elf/lib/mno-hw-mul\libc.a(lib_a-mallocr.o)
 .debug_abbrev  0x00005da9       0xb5 c:/altera/10.1sp1/nios2eds/bin/gnu/h-i686-mingw32/bin/../lib/gcc/nios2-elf/4.1.2/../../../../nios2-elf/lib/mno-hw-mul\libc.a(lib_a-memcpy.o)
 .debug_abbrev  0x00005e5e       0xb8 c:/altera/10.1sp1/nios2eds/bin/gnu/h-i686-mingw32/bin/../lib/gcc/nios2-elf/4.1.2/../../../../nios2-elf/lib/mno-hw-mul\libc.a(lib_a-memset.o)
 .debug_abbrev  0x00005f16      0x194 c:/altera/10.1sp1/nios2eds/bin/gnu/h-i686-mingw32/bin/../lib/gcc/nios2-elf/4.1.2/../../../../nios2-elf/lib/mno-hw-mul\libc.a(lib_a-perror.o)
 .debug_abbrev  0x000060aa      0x191 c:/altera/10.1sp1/nios2eds/bin/gnu/h-i686-mingw32/bin/../lib/gcc/nios2-elf/4.1.2/../../../../nios2-elf/lib/mno-hw-mul\libc.a(lib_a-printf.o)
 .debug_abbrev  0x0000623b      0x17f c:/altera/10.1sp1/nios2eds/bin/gnu/h-i686-mingw32/bin/../lib/gcc/nios2-elf/4.1.2/../../../../nios2-elf/lib/mno-hw-mul\libc.a(lib_a-putc.o)
 .debug_abbrev  0x000063ba      0x170 c:/altera/10.1sp1/nios2eds/bin/gnu/h-i686-mingw32/bin/../lib/gcc/nios2-elf/4.1.2/../../../../nios2-elf/lib/mno-hw-mul\libc.a(lib_a-putchar.o)
 .debug_abbrev  0x0000652a      0x1ac c:/altera/10.1sp1/nios2eds/bin/gnu/h-i686-mingw32/bin/../lib/gcc/nios2-elf/4.1.2/../../../../nios2-elf/lib/mno-hw-mul\libc.a(lib_a-puts.o)
 .debug_abbrev  0x000066d6      0x189 c:/altera/10.1sp1/nios2eds/bin/gnu/h-i686-mingw32/bin/../lib/gcc/nios2-elf/4.1.2/../../../../nios2-elf/lib/mno-hw-mul\libc.a(lib_a-rget.o)
 .debug_abbrev  0x0000685f      0x18c c:/altera/10.1sp1/nios2eds/bin/gnu/h-i686-mingw32/bin/../lib/gcc/nios2-elf/4.1.2/../../../../nios2-elf/lib/mno-hw-mul\libc.a(lib_a-sbrkr.o)
 .debug_abbrev  0x000069eb      0x191 c:/altera/10.1sp1/nios2eds/bin/gnu/h-i686-mingw32/bin/../lib/gcc/nios2-elf/4.1.2/../../../../nios2-elf/lib/mno-hw-mul\libc.a(lib_a-sprintf.o)
 .debug_abbrev  0x00006b7c       0x8f c:/altera/10.1sp1/nios2eds/bin/gnu/h-i686-mingw32/bin/../lib/gcc/nios2-elf/4.1.2/../../../../nios2-elf/lib/mno-hw-mul\libc.a(lib_a-strcpy.o)
 .debug_abbrev  0x00006c0b       0x68 c:/altera/10.1sp1/nios2eds/bin/gnu/h-i686-mingw32/bin/../lib/gcc/nios2-elf/4.1.2/../../../../nios2-elf/lib/mno-hw-mul\libc.a(lib_a-strerror.o)
 .debug_abbrev  0x00006c73       0x8b c:/altera/10.1sp1/nios2eds/bin/gnu/h-i686-mingw32/bin/../lib/gcc/nios2-elf/4.1.2/../../../../nios2-elf/lib/mno-hw-mul\libc.a(lib_a-strlen.o)
 .debug_abbrev  0x00006cfe       0x5b c:/altera/10.1sp1/nios2eds/bin/gnu/h-i686-mingw32/bin/../lib/gcc/nios2-elf/4.1.2/../../../../nios2-elf/lib/mno-hw-mul\libc.a(lib_a-u_strerr.o)
 .debug_abbrev  0x00006d59      0x30a c:/altera/10.1sp1/nios2eds/bin/gnu/h-i686-mingw32/bin/../lib/gcc/nios2-elf/4.1.2/../../../../nios2-elf/lib/mno-hw-mul\libc.a(lib_a-vfprintf.o)
 .debug_abbrev  0x00007063      0x198 c:/altera/10.1sp1/nios2eds/bin/gnu/h-i686-mingw32/bin/../lib/gcc/nios2-elf/4.1.2/../../../../nios2-elf/lib/mno-hw-mul\libc.a(lib_a-wbuf.o)
 .debug_abbrev  0x000071fb      0x170 c:/altera/10.1sp1/nios2eds/bin/gnu/h-i686-mingw32/bin/../lib/gcc/nios2-elf/4.1.2/../../../../nios2-elf/lib/mno-hw-mul\libc.a(lib_a-wsetup.o)
 .debug_abbrev  0x0000736b      0x232 c:/altera/10.1sp1/nios2eds/bin/gnu/h-i686-mingw32/bin/../lib/gcc/nios2-elf/4.1.2/../../../../nios2-elf/lib/mno-hw-mul\libc.a(lib_a-dtoa.o)
 .debug_abbrev  0x0000759d      0x1c6 c:/altera/10.1sp1/nios2eds/bin/gnu/h-i686-mingw32/bin/../lib/gcc/nios2-elf/4.1.2/../../../../nios2-elf/lib/mno-hw-mul\libc.a(lib_a-fflush.o)
 .debug_abbrev  0x00007763      0x24c c:/altera/10.1sp1/nios2eds/bin/gnu/h-i686-mingw32/bin/../lib/gcc/nios2-elf/4.1.2/../../../../nios2-elf/lib/mno-hw-mul\libc.a(lib_a-findfp.o)
 .debug_abbrev  0x000079af      0x18c c:/altera/10.1sp1/nios2eds/bin/gnu/h-i686-mingw32/bin/../lib/gcc/nios2-elf/4.1.2/../../../../nios2-elf/lib/mno-hw-mul\libc.a(lib_a-fputc.o)
 .debug_abbrev  0x00007b3b      0x1aa c:/altera/10.1sp1/nios2eds/bin/gnu/h-i686-mingw32/bin/../lib/gcc/nios2-elf/4.1.2/../../../../nios2-elf/lib/mno-hw-mul\libc.a(lib_a-fputs.o)
 .debug_abbrev  0x00007ce5      0x1d9 c:/altera/10.1sp1/nios2eds/bin/gnu/h-i686-mingw32/bin/../lib/gcc/nios2-elf/4.1.2/../../../../nios2-elf/lib/mno-hw-mul\libc.a(lib_a-freer.o)
 .debug_abbrev  0x00007ebe      0x1a3 c:/altera/10.1sp1/nios2eds/bin/gnu/h-i686-mingw32/bin/../lib/gcc/nios2-elf/4.1.2/../../../../nios2-elf/lib/mno-hw-mul\libc.a(lib_a-fvwrite.o)
 .debug_abbrev  0x00008061      0x1e3 c:/altera/10.1sp1/nios2eds/bin/gnu/h-i686-mingw32/bin/../lib/gcc/nios2-elf/4.1.2/../../../../nios2-elf/lib/mno-hw-mul\libc.a(lib_a-fwalk.o)
 .debug_abbrev  0x00008244       0x3b c:/altera/10.1sp1/nios2eds/bin/gnu/h-i686-mingw32/bin/../lib/gcc/nios2-elf/4.1.2/../../../../nios2-elf/lib/mno-hw-mul\libc.a(lib_a-int_errno.o)
 .debug_abbrev  0x0000827f      0x1ed c:/altera/10.1sp1/nios2eds/bin/gnu/h-i686-mingw32/bin/../lib/gcc/nios2-elf/4.1.2/../../../../nios2-elf/lib/mno-hw-mul\libc.a(lib_a-locale.o)
 .debug_abbrev  0x0000846c      0x197 c:/altera/10.1sp1/nios2eds/bin/gnu/h-i686-mingw32/bin/../lib/gcc/nios2-elf/4.1.2/../../../../nios2-elf/lib/mno-hw-mul\libc.a(lib_a-makebuf.o)
 .debug_abbrev  0x00008603       0xb5 c:/altera/10.1sp1/nios2eds/bin/gnu/h-i686-mingw32/bin/../lib/gcc/nios2-elf/4.1.2/../../../../nios2-elf/lib/mno-hw-mul\libc.a(lib_a-memchr.o)
 .debug_abbrev  0x000086b8       0xb5 c:/altera/10.1sp1/nios2eds/bin/gnu/h-i686-mingw32/bin/../lib/gcc/nios2-elf/4.1.2/../../../../nios2-elf/lib/mno-hw-mul\libc.a(lib_a-memmove.o)
 .debug_abbrev  0x0000876d      0x297 c:/altera/10.1sp1/nios2eds/bin/gnu/h-i686-mingw32/bin/../lib/gcc/nios2-elf/4.1.2/../../../../nios2-elf/lib/mno-hw-mul\libc.a(lib_a-mprec.o)
 .debug_abbrev  0x00008a04      0x1c3 c:/altera/10.1sp1/nios2eds/bin/gnu/h-i686-mingw32/bin/../lib/gcc/nios2-elf/4.1.2/../../../../nios2-elf/lib/mno-hw-mul\libc.a(lib_a-reallocr.o)
 .debug_abbrev  0x00008bc7      0x187 c:/altera/10.1sp1/nios2eds/bin/gnu/h-i686-mingw32/bin/../lib/gcc/nios2-elf/4.1.2/../../../../nios2-elf/lib/mno-hw-mul\libc.a(lib_a-refill.o)
 .debug_abbrev  0x00008d4e       0x79 c:/altera/10.1sp1/nios2eds/bin/gnu/h-i686-mingw32/bin/../lib/gcc/nios2-elf/4.1.2/../../../../nios2-elf/lib/mno-hw-mul\libc.a(lib_a-s_isinfd.o)
 .debug_abbrev  0x00008dc7      0x1c9 c:/altera/10.1sp1/nios2eds/bin/gnu/h-i686-mingw32/bin/../lib/gcc/nios2-elf/4.1.2/../../../../nios2-elf/lib/mno-hw-mul\libc.a(lib_a-stdio.o)
 .debug_abbrev  0x00008f90       0x80 c:/altera/10.1sp1/nios2eds/bin/gnu/h-i686-mingw32/bin/../lib/gcc/nios2-elf/4.1.2/../../../../nios2-elf/lib/mno-hw-mul\libc.a(lib_a-strcmp.o)
 .debug_abbrev  0x00009010      0x184 c:/altera/10.1sp1/nios2eds/bin/gnu/h-i686-mingw32/bin/../lib/gcc/nios2-elf/4.1.2/../../../../nios2-elf/lib/mno-hw-mul\libc.a(lib_a-writer.o)
 .debug_abbrev  0x00009194      0x1b8 c:/altera/10.1sp1/nios2eds/bin/gnu/h-i686-mingw32/bin/../lib/gcc/nios2-elf/4.1.2/../../../../nios2-elf/lib/mno-hw-mul\libc.a(lib_a-callocr.o)
 .debug_abbrev  0x0000934c      0x17f c:/altera/10.1sp1/nios2eds/bin/gnu/h-i686-mingw32/bin/../lib/gcc/nios2-elf/4.1.2/../../../../nios2-elf/lib/mno-hw-mul\libc.a(lib_a-closer.o)
 .debug_abbrev  0x000094cb      0x1a7 c:/altera/10.1sp1/nios2eds/bin/gnu/h-i686-mingw32/bin/../lib/gcc/nios2-elf/4.1.2/../../../../nios2-elf/lib/mno-hw-mul\libc.a(lib_a-fclose.o)
 .debug_abbrev  0x00009672      0x18e c:/altera/10.1sp1/nios2eds/bin/gnu/h-i686-mingw32/bin/../lib/gcc/nios2-elf/4.1.2/../../../../nios2-elf/lib/mno-hw-mul\libc.a(lib_a-fstatr.o)
 .debug_abbrev  0x00009800      0x17f c:/altera/10.1sp1/nios2eds/bin/gnu/h-i686-mingw32/bin/../lib/gcc/nios2-elf/4.1.2/../../../../nios2-elf/lib/mno-hw-mul\libc.a(lib_a-isattyr.o)
 .debug_abbrev  0x0000997f      0x18e c:/altera/10.1sp1/nios2eds/bin/gnu/h-i686-mingw32/bin/../lib/gcc/nios2-elf/4.1.2/../../../../nios2-elf/lib/mno-hw-mul\libc.a(lib_a-lseekr.o)
 .debug_abbrev  0x00009b0d      0x17f c:/altera/10.1sp1/nios2eds/bin/gnu/h-i686-mingw32/bin/../lib/gcc/nios2-elf/4.1.2/../../../../nios2-elf/lib/mno-hw-mul\libc.a(lib_a-readr.o)
 .debug_abbrev  0x00009c8c      0x16b c:/altera/10.1sp1/nios2eds/bin/gnu/h-i686-mingw32/bin/../lib/gcc/nios2-elf/4.1.2/mno-hw-mul\libgcc.a(_udivdi3.o)
 .debug_abbrev  0x00009df7      0x18e c:/altera/10.1sp1/nios2eds/bin/gnu/h-i686-mingw32/bin/../lib/gcc/nios2-elf/4.1.2/mno-hw-mul\libgcc.a(_umoddi3.o)
 .debug_abbrev  0x00009f85      0x151 c:/altera/10.1sp1/nios2eds/bin/gnu/h-i686-mingw32/bin/../lib/gcc/nios2-elf/4.1.2/mno-hw-mul\libgcc.a(_ne_df.o)
 .debug_abbrev  0x0000a0d6      0x102 ../RedeFFTHW_bsp\libucosii_bsp.a(alt_fstat.o)
 .debug_abbrev  0x0000a1d8      0x102 ../RedeFFTHW_bsp\libucosii_bsp.a(alt_isatty.o)
 .debug_abbrev  0x0000a2da       0x88 ../RedeFFTHW_bsp\libucosii_bsp.a(alt_load.o)
 .debug_abbrev  0x0000a362      0x102 ../RedeFFTHW_bsp\libucosii_bsp.a(alt_lseek.o)
 .debug_abbrev  0x0000a464      0x120 ../RedeFFTHW_bsp\libucosii_bsp.a(alt_main.o)
 .debug_abbrev  0x0000a584       0x74 ../RedeFFTHW_bsp\libucosii_bsp.a(alt_remap_cached.o)
 .debug_abbrev  0x0000a5f8       0x74 ../RedeFFTHW_bsp\libucosii_bsp.a(alt_remap_uncached.o)
 .debug_abbrev  0x0000a66c      0x115 ../RedeFFTHW_bsp\libucosii_bsp.a(alt_sbrk.o)
 .debug_abbrev  0x0000a781      0x150 ../RedeFFTHW_bsp\libucosii_bsp.a(alt_tick.o)
 .debug_abbrev  0x0000a8d1       0x83 ../RedeFFTHW_bsp\libucosii_bsp.a(alt_uncached_malloc.o)
 .debug_abbrev  0x0000a954       0xb7 ../RedeFFTHW_bsp\libucosii_bsp.a(alt_usleep.o)
 .debug_abbrev  0x0000aa0b      0x1b3 ../RedeFFTHW_bsp\libucosii_bsp.a(alt_env_lock.o)
 .debug_abbrev  0x0000abbe      0x234 ../RedeFFTHW_bsp\libucosii_bsp.a(alt_malloc_lock.o)
 .debug_abbrev  0x0000adf2      0x2aa ../RedeFFTHW_bsp\libucosii_bsp.a(os_core.o)
 .debug_abbrev  0x0000b09c      0x114 ../RedeFFTHW_bsp\libucosii_bsp.a(os_dbg.o)
 .debug_abbrev  0x0000b1b0      0x21b ../RedeFFTHW_bsp\libucosii_bsp.a(os_flag.o)
 .debug_abbrev  0x0000b3cb      0x235 ../RedeFFTHW_bsp\libucosii_bsp.a(os_mem.o)
 .debug_abbrev  0x0000b600      0x20d ../RedeFFTHW_bsp\libucosii_bsp.a(os_q.o)
 .debug_abbrev  0x0000b80d      0x20d ../RedeFFTHW_bsp\libucosii_bsp.a(os_sem.o)
 .debug_abbrev  0x0000ba1a      0x20e ../RedeFFTHW_bsp\libucosii_bsp.a(os_task.o)
 .debug_abbrev  0x0000bc28      0x1de ../RedeFFTHW_bsp\libucosii_bsp.a(os_time.o)
 .debug_abbrev  0x0000be06      0x1eb ../RedeFFTHW_bsp\libucosii_bsp.a(alt_sys_init.o)
 .debug_abbrev  0x0000bff1      0x13c ../RedeFFTHW_bsp\libucosii_bsp.a(altera_avalon_jtag_uart_fd.o)
 .debug_abbrev  0x0000c12d      0x21e ../RedeFFTHW_bsp\libucosii_bsp.a(altera_avalon_jtag_uart_init.o)
 .debug_abbrev  0x0000c34b      0x135 ../RedeFFTHW_bsp\libucosii_bsp.a(altera_avalon_jtag_uart_ioctl.o)
 .debug_abbrev  0x0000c480      0x1ee ../RedeFFTHW_bsp\libucosii_bsp.a(altera_avalon_jtag_uart_read.o)
 .debug_abbrev  0x0000c66e      0x1ea ../RedeFFTHW_bsp\libucosii_bsp.a(altera_avalon_jtag_uart_write.o)
 .debug_abbrev  0x0000c858      0x23a ../RedeFFTHW_bsp\libucosii_bsp.a(altera_avalon_sgdma.o)
 .debug_abbrev  0x0000ca92      0x137 ../RedeFFTHW_bsp\libucosii_bsp.a(altera_avalon_timer_sc.o)
 .debug_abbrev  0x0000cbc9      0x299 ../RedeFFTHW_bsp\libucosii_bsp.a(ins_tse_mac.o)
 .debug_abbrev  0x0000ce62       0x8a ../RedeFFTHW_bsp\libucosii_bsp.a(perf_print_formatted_report.o)
 .debug_abbrev  0x0000ceec       0x77 ../RedeFFTHW_bsp\libucosii_bsp.a(alt_iniche_close.o)
 .debug_abbrev  0x0000cf63      0x11f ../RedeFFTHW_bsp\libucosii_bsp.a(alt_iniche_dev.o)
 .debug_abbrev  0x0000d082       0x7e ../RedeFFTHW_bsp\libucosii_bsp.a(alt_iniche_read.o)
 .debug_abbrev  0x0000d100       0x85 ../RedeFFTHW_bsp\libucosii_bsp.a(alt_iniche_write.o)
 .debug_abbrev  0x0000d185      0x184 ../RedeFFTHW_bsp\libucosii_bsp.a(ipnet.o)
 .debug_abbrev  0x0000d309      0x18b ../RedeFFTHW_bsp\libucosii_bsp.a(ipstart.o)
 .debug_abbrev  0x0000d494      0x191 ../RedeFFTHW_bsp\libucosii_bsp.a(igmp_cmn.o)
 .debug_abbrev  0x0000d625      0x1a3 ../RedeFFTHW_bsp\libucosii_bsp.a(bsdsock.o)
 .debug_abbrev  0x0000d7c8       0x96 ../RedeFFTHW_bsp\libucosii_bsp.a(cksum.o)
 .debug_abbrev  0x0000d85e      0x18b ../RedeFFTHW_bsp\libucosii_bsp.a(in_utils.o)
 .debug_abbrev  0x0000d9e9      0x152 ../RedeFFTHW_bsp\libucosii_bsp.a(netmain.o)
 .debug_abbrev  0x0000db3b      0x144 ../RedeFFTHW_bsp\libucosii_bsp.a(tk_crnos.o)
 .debug_abbrev  0x0000dc7f      0x217 ../RedeFFTHW_bsp\libucosii_bsp.a(dhcpclnt.o)
 .debug_abbrev  0x0000de96       0x8f ../RedeFFTHW_bsp\libucosii_bsp.a(dhcputil.o)
 .debug_abbrev  0x0000df25      0x196 ../RedeFFTHW_bsp\libucosii_bsp.a(pktalloc.o)
 .debug_abbrev  0x0000e0bb       0xcb ../RedeFFTHW_bsp\libucosii_bsp.a(q.o)
 .debug_abbrev  0x0000e186      0x144 ../RedeFFTHW_bsp\libucosii_bsp.a(udp_open.o)
 .debug_abbrev  0x0000e2ca       0x14 ../RedeFFTHW_bsp\libucosii_bsp.a(asm_cksum.o)
 .debug_abbrev  0x0000e2de      0x242 ../RedeFFTHW_bsp\libucosii_bsp.a(brdutils.o)
 .debug_abbrev  0x0000e520      0x194 ../RedeFFTHW_bsp\libucosii_bsp.a(osportco.o)
 .debug_abbrev  0x0000e6b4      0x199 ../RedeFFTHW_bsp\libucosii_bsp.a(targnios.o)
 .debug_abbrev  0x0000e84d      0x1dc ../RedeFFTHW_bsp\libucosii_bsp.a(nptcp.o)
 .debug_abbrev  0x0000ea29      0x136 ../RedeFFTHW_bsp\libucosii_bsp.a(rawsock.o)
 .debug_abbrev  0x0000eb5f      0x1de ../RedeFFTHW_bsp\libucosii_bsp.a(sockcall.o)
 .debug_abbrev  0x0000ed3d      0x1ef ../RedeFFTHW_bsp\libucosii_bsp.a(socket.o)
 .debug_abbrev  0x0000ef2c      0x1ac ../RedeFFTHW_bsp\libucosii_bsp.a(socket2.o)
 .debug_abbrev  0x0000f0d8      0x17f ../RedeFFTHW_bsp\libucosii_bsp.a(soselect.o)
 .debug_abbrev  0x0000f257      0x1ca ../RedeFFTHW_bsp\libucosii_bsp.a(tcp_in.o)
 .debug_abbrev  0x0000f421      0x1a4 ../RedeFFTHW_bsp\libucosii_bsp.a(tcp_out.o)
 .debug_abbrev  0x0000f5c5      0x1c3 ../RedeFFTHW_bsp\libucosii_bsp.a(tcp_subr.o)
 .debug_abbrev  0x0000f788      0x19e ../RedeFFTHW_bsp\libucosii_bsp.a(tcp_timr.o)
 .debug_abbrev  0x0000f926      0x175 ../RedeFFTHW_bsp\libucosii_bsp.a(tcp_usr.o)
 .debug_abbrev  0x0000fa9b       0x77 ../RedeFFTHW_bsp\libucosii_bsp.a(tcpport.o)
 .debug_abbrev  0x0000fb12      0x190 ../RedeFFTHW_bsp\libucosii_bsp.a(udpsock.o)
 .debug_abbrev  0x0000fca2      0x172 ../RedeFFTHW_bsp\libucosii_bsp.a(alt_alarm_start.o)
 .debug_abbrev  0x0000fe14       0x6c ../RedeFFTHW_bsp\libucosii_bsp.a(alt_busy_sleep.o)
 .debug_abbrev  0x0000fe80      0x102 ../RedeFFTHW_bsp\libucosii_bsp.a(alt_close.o)
 .debug_abbrev  0x0000ff82       0x62 ../RedeFFTHW_bsp\libucosii_bsp.a(alt_dcache_flush.o)
 .debug_abbrev  0x0000ffe4       0x3f ../RedeFFTHW_bsp\libucosii_bsp.a(alt_dcache_flush_all.o)
 .debug_abbrev  0x00010023      0x10a ../RedeFFTHW_bsp\libucosii_bsp.a(alt_dev.o)
 .debug_abbrev  0x0001012d       0xf6 ../RedeFFTHW_bsp\libucosii_bsp.a(alt_dev_llist_insert.o)
 .debug_abbrev  0x00010223       0x74 ../RedeFFTHW_bsp\libucosii_bsp.a(alt_do_ctors.o)
 .debug_abbrev  0x00010297       0x74 ../RedeFFTHW_bsp\libucosii_bsp.a(alt_do_dtors.o)
 .debug_abbrev  0x0001030b       0x5e ../RedeFFTHW_bsp\libucosii_bsp.a(alt_errno.o)
 .debug_abbrev  0x00010369       0xd6 ../RedeFFTHW_bsp\libucosii_bsp.a(alt_find_dev.o)
 .debug_abbrev  0x0001043f       0x3f ../RedeFFTHW_bsp\libucosii_bsp.a(alt_icache_flush_all.o)
 .debug_abbrev  0x0001047e      0x134 ../RedeFFTHW_bsp\libucosii_bsp.a(alt_iic.o)
 .debug_abbrev  0x000105b2      0x14e ../RedeFFTHW_bsp\libucosii_bsp.a(alt_iic_isr_register.o)
 .debug_abbrev  0x00010700       0xf7 ../RedeFFTHW_bsp\libucosii_bsp.a(alt_io_redirect.o)
 .debug_abbrev  0x000107f7       0x12 ../RedeFFTHW_bsp\libucosii_bsp.a(alt_irq_entry.o)
 .debug_abbrev  0x00010809      0x124 ../RedeFFTHW_bsp\libucosii_bsp.a(alt_irq_handler.o)
 .debug_abbrev  0x0001092d       0x44 ../RedeFFTHW_bsp\libucosii_bsp.a(alt_irq_vars.o)
 .debug_abbrev  0x00010971      0x119 ../RedeFFTHW_bsp\libucosii_bsp.a(alt_open.o)
 .debug_abbrev  0x00010a8a      0x102 ../RedeFFTHW_bsp\libucosii_bsp.a(alt_read.o)
 .debug_abbrev  0x00010b8c       0xd3 ../RedeFFTHW_bsp\libucosii_bsp.a(alt_release_fd.o)
 .debug_abbrev  0x00010c5f      0x107 ../RedeFFTHW_bsp\libucosii_bsp.a(alt_write.o)
 .debug_abbrev  0x00010d66       0x3f ../RedeFFTHW_bsp\libucosii_bsp.a(altera_nios2_irq.o)
 .debug_abbrev  0x00010da5       0x14 ../RedeFFTHW_bsp\libucosii_bsp.a(os_cpu_a.o)
 .debug_abbrev  0x00010db9      0x1d0 ../RedeFFTHW_bsp\libucosii_bsp.a(os_cpu_c.o)
 .debug_abbrev  0x00010f89       0x81 ../RedeFFTHW_bsp\libucosii_bsp.a(altera_avalon_performance_counter.o)
 .debug_abbrev  0x0001100a      0x229 ../RedeFFTHW_bsp\libucosii_bsp.a(altera_avalon_tse.o)
 .debug_abbrev  0x00011233       0xe5 ../RedeFFTHW_bsp\libucosii_bsp.a(altera_avalon_tse_system_info.o)
 .debug_abbrev  0x00011318      0x173 ../RedeFFTHW_bsp\libucosii_bsp.a(allports.o)
 .debug_abbrev  0x0001148b      0x151 ../RedeFFTHW_bsp\libucosii_bsp.a(timeouts.o)
 .debug_abbrev  0x000115dc       0xa4 ../RedeFFTHW_bsp\libucosii_bsp.a(tk_misc.o)
 .debug_abbrev  0x00011680       0x92 ../RedeFFTHW_bsp\libucosii_bsp.a(alt_iniche_fcntl.o)
 .debug_abbrev  0x00011712      0x1eb ../RedeFFTHW_bsp\libucosii_bsp.a(et_arp.o)
 .debug_abbrev  0x000118fd      0x13d ../RedeFFTHW_bsp\libucosii_bsp.a(iface.o)
 .debug_abbrev  0x00011a3a      0x1ed ../RedeFFTHW_bsp\libucosii_bsp.a(ip.o)
 .debug_abbrev  0x00011c27      0x1ca ../RedeFFTHW_bsp\libucosii_bsp.a(ip_reasm.o)
 .debug_abbrev  0x00011df1      0x166 ../RedeFFTHW_bsp\libucosii_bsp.a(ipdemux.o)
 .debug_abbrev  0x00011f57      0x114 ../RedeFFTHW_bsp\libucosii_bsp.a(ipmc.o)
 .debug_abbrev  0x0001206b       0xe9 ../RedeFFTHW_bsp\libucosii_bsp.a(ipport.o)
 .debug_abbrev  0x00012154      0x19c ../RedeFFTHW_bsp\libucosii_bsp.a(ipraw.o)
 .debug_abbrev  0x000122f0      0x156 ../RedeFFTHW_bsp\libucosii_bsp.a(iproute.o)
 .debug_abbrev  0x00012446      0x1c0 ../RedeFFTHW_bsp\libucosii_bsp.a(udp.o)
 .debug_abbrev  0x00012606      0x10e ../RedeFFTHW_bsp\libucosii_bsp.a(igmp.o)
 .debug_abbrev  0x00012714      0x17a ../RedeFFTHW_bsp\libucosii_bsp.a(igmp2.o)
 .debug_abbrev  0x0001288e      0x189 ../RedeFFTHW_bsp\libucosii_bsp.a(ipopt.o)
 .debug_abbrev  0x00012a17      0x15a ../RedeFFTHW_bsp\libucosii_bsp.a(u_mctest.o)
 .debug_abbrev  0x00012b71      0x12e ../RedeFFTHW_bsp\libucosii_bsp.a(dhcsetup.o)
 .debug_abbrev  0x00012c9f      0x175 ../RedeFFTHW_bsp\libucosii_bsp.a(memdev.o)
 .debug_abbrev  0x00012e14      0x154 ../RedeFFTHW_bsp\libucosii_bsp.a(parseip.o)
 .debug_abbrev  0x00012f68       0xad ../RedeFFTHW_bsp\libucosii_bsp.a(tcpcksum.o)
 .debug_abbrev  0x00013015      0x19f ../RedeFFTHW_bsp\libucosii_bsp.a(in_pcb.o)
 .debug_abbrev  0x000131b4      0x1b6 ../RedeFFTHW_bsp\libucosii_bsp.a(vfsfiles.o)
 .debug_abbrev  0x0001336a       0x77 ../RedeFFTHW_bsp\libucosii_bsp.a(vfsport.o)
 .debug_abbrev  0x000133e1       0x12 ../RedeFFTHW_bsp\libucosii_bsp.a(alt_exception_entry.o)
 .debug_abbrev  0x000133f3      0x107 ../RedeFFTHW_bsp\libucosii_bsp.a(alt_fcntl.o)
 .debug_abbrev  0x000134fa       0xd6 ../RedeFFTHW_bsp\libucosii_bsp.a(alt_find_file.o)
 .debug_abbrev  0x000135d0      0x173 ../RedeFFTHW_bsp\libucosii_bsp.a(alt_get_fd.o)
 .debug_abbrev  0x00013743      0x15d ../RedeFFTHW_bsp\libucosii_bsp.a(icmp.o)
 .debug_abbrev  0x000138a0       0xb7 c:/altera/10.1sp1/nios2eds/bin/gnu/h-i686-mingw32/bin/../lib/gcc/nios2-elf/4.1.2/../../../../nios2-elf/lib/mno-hw-mul\libc.a(lib_a-atexit.o)
 .debug_abbrev  0x00013957      0x176 c:/altera/10.1sp1/nios2eds/bin/gnu/h-i686-mingw32/bin/../lib/gcc/nios2-elf/4.1.2/../../../../nios2-elf/lib/mno-hw-mul\libc.a(lib_a-atoi.o)
 .debug_abbrev  0x00013acd      0x17f c:/altera/10.1sp1/nios2eds/bin/gnu/h-i686-mingw32/bin/../lib/gcc/nios2-elf/4.1.2/../../../../nios2-elf/lib/mno-hw-mul\libc.a(lib_a-calloc.o)
 .debug_abbrev  0x00013c4c      0x16e c:/altera/10.1sp1/nios2eds/bin/gnu/h-i686-mingw32/bin/../lib/gcc/nios2-elf/4.1.2/../../../../nios2-elf/lib/mno-hw-mul\libc.a(lib_a-exit.o)
 .debug_abbrev  0x00013dba       0x7c c:/altera/10.1sp1/nios2eds/bin/gnu/h-i686-mingw32/bin/../lib/gcc/nios2-elf/4.1.2/../../../../nios2-elf/lib/mno-hw-mul\libc.a(lib_a-memcmp.o)
 .debug_abbrev  0x00013e36       0x80 c:/altera/10.1sp1/nios2eds/bin/gnu/h-i686-mingw32/bin/../lib/gcc/nios2-elf/4.1.2/../../../../nios2-elf/lib/mno-hw-mul\libc.a(lib_a-strchr.o)
 .debug_abbrev  0x00013eb6       0x8d c:/altera/10.1sp1/nios2eds/bin/gnu/h-i686-mingw32/bin/../lib/gcc/nios2-elf/4.1.2/../../../../nios2-elf/lib/mno-hw-mul\libc.a(lib_a-strncmp.o)
 .debug_abbrev  0x00013f43       0x9c c:/altera/10.1sp1/nios2eds/bin/gnu/h-i686-mingw32/bin/../lib/gcc/nios2-elf/4.1.2/../../../../nios2-elf/lib/mno-hw-mul\libc.a(lib_a-strncpy.o)
 .debug_abbrev  0x00013fdf      0x1c7 c:/altera/10.1sp1/nios2eds/bin/gnu/h-i686-mingw32/bin/../lib/gcc/nios2-elf/4.1.2/../../../../nios2-elf/lib/mno-hw-mul\libc.a(lib_a-strtol.o)
 .debug_abbrev  0x000141a6      0x170 c:/altera/10.1sp1/nios2eds/bin/gnu/h-i686-mingw32/bin/../lib/gcc/nios2-elf/4.1.2/../../../../nios2-elf/lib/mno-hw-mul\libc.a(lib_a-vprintf.o)
 .debug_abbrev  0x00014316      0x1a5 c:/altera/10.1sp1/nios2eds/bin/gnu/h-i686-mingw32/bin/../lib/gcc/nios2-elf/4.1.2/../../../../nios2-elf/lib/mno-hw-mul\libc.a(lib_a-vsprintf.o)
 .debug_abbrev  0x000144bb      0x1ae c:/altera/10.1sp1/nios2eds/bin/gnu/h-i686-mingw32/bin/../lib/gcc/nios2-elf/4.1.2/../../../../nios2-elf/lib/mno-hw-mul\libc.a(lib_a-__atexit.o)
 .debug_abbrev  0x00014669      0x1de c:/altera/10.1sp1/nios2eds/bin/gnu/h-i686-mingw32/bin/../lib/gcc/nios2-elf/4.1.2/../../../../nios2-elf/lib/mno-hw-mul\libc.a(lib_a-__call_atexit.o)
 .debug_abbrev  0x00014847       0x6c c:/altera/10.1sp1/nios2eds/bin/gnu/h-i686-mingw32/bin/../lib/gcc/nios2-elf/4.1.2/mno-hw-mul\libgcc.a(_floatundidf.o)
 .debug_abbrev  0x000148b3       0xaa ../RedeFFTHW_bsp\libucosii_bsp.a(alt_exit.o)

.debug_line     0x00000000    0x4cae6
 *(.debug_line)
 .debug_line    0x00000000       0x99 ../RedeFFTHW_bsp/obj/HAL/src/crt0.o
 .debug_line    0x00000099     0x102f obj/AquisicaoRede.o
 .debug_line    0x000010c8     0x1301 obj/DanWindow/DanWindow.o
 .debug_line    0x000023c9      0x7b2 obj/FFT/simpleDFT.o
 .debug_line    0x00002b7b     0x1063 obj/LCDTask.o
 .debug_line    0x00003bde      0x6cb obj/TerminalSerial.o
 .debug_line    0x000042a9      0x710 obj/alt_error_handler.o
 .debug_line    0x000049b9       0x24 obj/alt_touchscreen/alt_touchscreen.o
 .debug_line    0x000049dd      0x5c2 obj/alt_tpo_lcd/alt_tpo_lcd.o
 .debug_line    0x00004f9f      0x714 obj/alt_video_display/alt_video_display.o
 .debug_line    0x000056b3      0x1db obj/fixedpoint2_16.o
 .debug_line    0x0000588e     0x1080 obj/graphics_lib/simple_graphics.o
 .debug_line    0x0000690e      0x430 obj/iniche_init.o
 .debug_line    0x00006d3e      0x77d obj/network_utilities.o
 .debug_line    0x000074bb      0xb7c obj/simple_socket_server.o
 .debug_line    0x00008037      0x27c c:/altera/10.1sp1/nios2eds/bin/gnu/h-i686-mingw32/bin/../lib/gcc/nios2-elf/4.1.2/../../../../nios2-elf/lib/mno-hw-mul\libm.a(lib_a-s_cos.o)
 .debug_line    0x000082b3      0x27c c:/altera/10.1sp1/nios2eds/bin/gnu/h-i686-mingw32/bin/../lib/gcc/nios2-elf/4.1.2/../../../../nios2-elf/lib/mno-hw-mul\libm.a(lib_a-s_sin.o)
 .debug_line    0x0000852f      0x2ea c:/altera/10.1sp1/nios2eds/bin/gnu/h-i686-mingw32/bin/../lib/gcc/nios2-elf/4.1.2/../../../../nios2-elf/lib/mno-hw-mul\libm.a(lib_a-w_sqrt.o)
 .debug_line    0x00008819      0x2e5 c:/altera/10.1sp1/nios2eds/bin/gnu/h-i686-mingw32/bin/../lib/gcc/nios2-elf/4.1.2/../../../../nios2-elf/lib/mno-hw-mul\libm.a(lib_a-wf_sqrt.o)
 .debug_line    0x00008afe      0x635 c:/altera/10.1sp1/nios2eds/bin/gnu/h-i686-mingw32/bin/../lib/gcc/nios2-elf/4.1.2/../../../../nios2-elf/lib/mno-hw-mul\libm.a(lib_a-e_rem_pio2.o)
 .debug_line    0x00009133      0x4bd c:/altera/10.1sp1/nios2eds/bin/gnu/h-i686-mingw32/bin/../lib/gcc/nios2-elf/4.1.2/../../../../nios2-elf/lib/mno-hw-mul\libm.a(lib_a-e_sqrt.o)
 .debug_line    0x000095f0      0x374 c:/altera/10.1sp1/nios2eds/bin/gnu/h-i686-mingw32/bin/../lib/gcc/nios2-elf/4.1.2/../../../../nios2-elf/lib/mno-hw-mul\libm.a(lib_a-ef_sqrt.o)
 .debug_line    0x00009964      0x2a0 c:/altera/10.1sp1/nios2eds/bin/gnu/h-i686-mingw32/bin/../lib/gcc/nios2-elf/4.1.2/../../../../nios2-elf/lib/mno-hw-mul\libm.a(lib_a-k_cos.o)
 .debug_line    0x00009c04      0x8c7 c:/altera/10.1sp1/nios2eds/bin/gnu/h-i686-mingw32/bin/../lib/gcc/nios2-elf/4.1.2/../../../../nios2-elf/lib/mno-hw-mul\libm.a(lib_a-k_rem_pio2.o)
 .debug_line    0x0000a4cb      0x28c c:/altera/10.1sp1/nios2eds/bin/gnu/h-i686-mingw32/bin/../lib/gcc/nios2-elf/4.1.2/../../../../nios2-elf/lib/mno-hw-mul\libm.a(lib_a-k_sin.o)
 .debug_line    0x0000a757      0x205 c:/altera/10.1sp1/nios2eds/bin/gnu/h-i686-mingw32/bin/../lib/gcc/nios2-elf/4.1.2/../../../../nios2-elf/lib/mno-hw-mul\libm.a(lib_a-s_fabs.o)
 .debug_line    0x0000a95c      0x2e4 c:/altera/10.1sp1/nios2eds/bin/gnu/h-i686-mingw32/bin/../lib/gcc/nios2-elf/4.1.2/../../../../nios2-elf/lib/mno-hw-mul\libm.a(lib_a-s_floor.o)
 .debug_line    0x0000ac40      0x1f7 c:/altera/10.1sp1/nios2eds/bin/gnu/h-i686-mingw32/bin/../lib/gcc/nios2-elf/4.1.2/../../../../nios2-elf/lib/mno-hw-mul\libm.a(lib_a-s_isnand.o)
 .debug_line    0x0000ae37      0x1d6 c:/altera/10.1sp1/nios2eds/bin/gnu/h-i686-mingw32/bin/../lib/gcc/nios2-elf/4.1.2/../../../../nios2-elf/lib/mno-hw-mul\libm.a(lib_a-s_lib_ver.o)
 .debug_line    0x0000b00d      0x1e8 c:/altera/10.1sp1/nios2eds/bin/gnu/h-i686-mingw32/bin/../lib/gcc/nios2-elf/4.1.2/../../../../nios2-elf/lib/mno-hw-mul\libm.a(lib_a-s_matherr.o)
 .debug_line    0x0000b1f5      0x30b c:/altera/10.1sp1/nios2eds/bin/gnu/h-i686-mingw32/bin/../lib/gcc/nios2-elf/4.1.2/../../../../nios2-elf/lib/mno-hw-mul\libm.a(lib_a-s_scalbn.o)
 .debug_line    0x0000b500      0x1ef c:/altera/10.1sp1/nios2eds/bin/gnu/h-i686-mingw32/bin/../lib/gcc/nios2-elf/4.1.2/../../../../nios2-elf/lib/mno-hw-mul\libm.a(lib_a-sf_isnan.o)
 .debug_line    0x0000b6ef      0x209 c:/altera/10.1sp1/nios2eds/bin/gnu/h-i686-mingw32/bin/../lib/gcc/nios2-elf/4.1.2/../../../../nios2-elf/lib/mno-hw-mul\libm.a(lib_a-s_copysign.o)
 .debug_line    0x0000b8f8      0x14f c:/altera/10.1sp1/nios2eds/bin/gnu/h-i686-mingw32/bin/../lib/gcc/nios2-elf/4.1.2/mno-hw-mul\libgcc.a(_muldi3.o)
 .debug_line    0x0000ba47      0x3af c:/altera/10.1sp1/nios2eds/bin/gnu/h-i686-mingw32/bin/../lib/gcc/nios2-elf/4.1.2/mno-hw-mul\libgcc.a(_addsub_sf.o)
 .debug_line    0x0000bdf6      0x2c1 c:/altera/10.1sp1/nios2eds/bin/gnu/h-i686-mingw32/bin/../lib/gcc/nios2-elf/4.1.2/mno-hw-mul\libgcc.a(_mul_sf.o)
 .debug_line    0x0000c0b7      0x26a c:/altera/10.1sp1/nios2eds/bin/gnu/h-i686-mingw32/bin/../lib/gcc/nios2-elf/4.1.2/mno-hw-mul\libgcc.a(_div_sf.o)
 .debug_line    0x0000c321      0x121 c:/altera/10.1sp1/nios2eds/bin/gnu/h-i686-mingw32/bin/../lib/gcc/nios2-elf/4.1.2/mno-hw-mul\libgcc.a(_ge_sf.o)
 .debug_line    0x0000c442      0x121 c:/altera/10.1sp1/nios2eds/bin/gnu/h-i686-mingw32/bin/../lib/gcc/nios2-elf/4.1.2/mno-hw-mul\libgcc.a(_lt_sf.o)
 .debug_line    0x0000c563      0x187 c:/altera/10.1sp1/nios2eds/bin/gnu/h-i686-mingw32/bin/../lib/gcc/nios2-elf/4.1.2/mno-hw-mul\libgcc.a(_si_to_sf.o)
 .debug_line    0x0000c6ea      0x141 c:/altera/10.1sp1/nios2eds/bin/gnu/h-i686-mingw32/bin/../lib/gcc/nios2-elf/4.1.2/mno-hw-mul\libgcc.a(_sf_to_si.o)
 .debug_line    0x0000c82b       0xd1 c:/altera/10.1sp1/nios2eds/bin/gnu/h-i686-mingw32/bin/../lib/gcc/nios2-elf/4.1.2/mno-hw-mul\libgcc.a(_sf_to_df.o)
 .debug_line    0x0000c8fc       0x94 c:/altera/10.1sp1/nios2eds/bin/gnu/h-i686-mingw32/bin/../lib/gcc/nios2-elf/4.1.2/mno-hw-mul\libgcc.a(_thenan_sf.o)
 .debug_line    0x0000c990      0x430 c:/altera/10.1sp1/nios2eds/bin/gnu/h-i686-mingw32/bin/../lib/gcc/nios2-elf/4.1.2/mno-hw-mul\libgcc.a(_addsub_df.o)
 .debug_line    0x0000cdc0      0x3e5 c:/altera/10.1sp1/nios2eds/bin/gnu/h-i686-mingw32/bin/../lib/gcc/nios2-elf/4.1.2/mno-hw-mul\libgcc.a(_mul_df.o)
 .debug_line    0x0000d1a5      0x301 c:/altera/10.1sp1/nios2eds/bin/gnu/h-i686-mingw32/bin/../lib/gcc/nios2-elf/4.1.2/mno-hw-mul\libgcc.a(_div_df.o)
 .debug_line    0x0000d4a6      0x129 c:/altera/10.1sp1/nios2eds/bin/gnu/h-i686-mingw32/bin/../lib/gcc/nios2-elf/4.1.2/mno-hw-mul\libgcc.a(_eq_df.o)
 .debug_line    0x0000d5cf      0x129 c:/altera/10.1sp1/nios2eds/bin/gnu/h-i686-mingw32/bin/../lib/gcc/nios2-elf/4.1.2/mno-hw-mul\libgcc.a(_gt_df.o)
 .debug_line    0x0000d6f8      0x129 c:/altera/10.1sp1/nios2eds/bin/gnu/h-i686-mingw32/bin/../lib/gcc/nios2-elf/4.1.2/mno-hw-mul\libgcc.a(_ge_df.o)
 .debug_line    0x0000d821      0x129 c:/altera/10.1sp1/nios2eds/bin/gnu/h-i686-mingw32/bin/../lib/gcc/nios2-elf/4.1.2/mno-hw-mul\libgcc.a(_lt_df.o)
 .debug_line    0x0000d94a      0x175 c:/altera/10.1sp1/nios2eds/bin/gnu/h-i686-mingw32/bin/../lib/gcc/nios2-elf/4.1.2/mno-hw-mul\libgcc.a(_si_to_df.o)
 .debug_line    0x0000dabf      0x149 c:/altera/10.1sp1/nios2eds/bin/gnu/h-i686-mingw32/bin/../lib/gcc/nios2-elf/4.1.2/mno-hw-mul\libgcc.a(_df_to_si.o)
 .debug_line    0x0000dc08       0xe9 c:/altera/10.1sp1/nios2eds/bin/gnu/h-i686-mingw32/bin/../lib/gcc/nios2-elf/4.1.2/mno-hw-mul\libgcc.a(_make_df.o)
 .debug_line    0x0000dcf1      0x121 c:/altera/10.1sp1/nios2eds/bin/gnu/h-i686-mingw32/bin/../lib/gcc/nios2-elf/4.1.2/mno-hw-mul\libgcc.a(_df_to_sf.o)
 .debug_line    0x0000de12       0x94 c:/altera/10.1sp1/nios2eds/bin/gnu/h-i686-mingw32/bin/../lib/gcc/nios2-elf/4.1.2/mno-hw-mul\libgcc.a(_thenan_df.o)
 .debug_line    0x0000dea6      0x189 c:/altera/10.1sp1/nios2eds/bin/gnu/h-i686-mingw32/bin/../lib/gcc/nios2-elf/4.1.2/mno-hw-mul\libgcc.a(_usi_to_df.o)
 .debug_line    0x0000e02f      0x24f c:/altera/10.1sp1/nios2eds/bin/gnu/h-i686-mingw32/bin/../lib/gcc/nios2-elf/4.1.2/mno-hw-mul\libgcc.a(lib2-divmod.o)
 .debug_line    0x0000e27e      0x11a c:/altera/10.1sp1/nios2eds/bin/gnu/h-i686-mingw32/bin/../lib/gcc/nios2-elf/4.1.2/mno-hw-mul\libgcc.a(lib2-mul.o)
 .debug_line    0x0000e398      0x105 c:/altera/10.1sp1/nios2eds/bin/gnu/h-i686-mingw32/bin/../lib/gcc/nios2-elf/4.1.2/mno-hw-mul\libgcc.a(_clzsi2.o)
 .debug_line    0x0000e49d      0x1ca c:/altera/10.1sp1/nios2eds/bin/gnu/h-i686-mingw32/bin/../lib/gcc/nios2-elf/4.1.2/mno-hw-mul\libgcc.a(_pack_sf.o)
 .debug_line    0x0000e667      0x197 c:/altera/10.1sp1/nios2eds/bin/gnu/h-i686-mingw32/bin/../lib/gcc/nios2-elf/4.1.2/mno-hw-mul\libgcc.a(_unpack_sf.o)
 .debug_line    0x0000e7fe      0x177 c:/altera/10.1sp1/nios2eds/bin/gnu/h-i686-mingw32/bin/../lib/gcc/nios2-elf/4.1.2/mno-hw-mul\libgcc.a(_fpcmp_parts_sf.o)
 .debug_line    0x0000e975       0xe1 c:/altera/10.1sp1/nios2eds/bin/gnu/h-i686-mingw32/bin/../lib/gcc/nios2-elf/4.1.2/mno-hw-mul\libgcc.a(_make_sf.o)
 .debug_line    0x0000ea56      0x222 c:/altera/10.1sp1/nios2eds/bin/gnu/h-i686-mingw32/bin/../lib/gcc/nios2-elf/4.1.2/mno-hw-mul\libgcc.a(_pack_df.o)
 .debug_line    0x0000ec78      0x1e4 c:/altera/10.1sp1/nios2eds/bin/gnu/h-i686-mingw32/bin/../lib/gcc/nios2-elf/4.1.2/mno-hw-mul\libgcc.a(_unpack_df.o)
 .debug_line    0x0000ee5c      0x187 c:/altera/10.1sp1/nios2eds/bin/gnu/h-i686-mingw32/bin/../lib/gcc/nios2-elf/4.1.2/mno-hw-mul\libgcc.a(_fpcmp_parts_df.o)
 .debug_line    0x0000efe3       0xaa c:/altera/10.1sp1/nios2eds/bin/gnu/h-i686-mingw32/bin/../lib/gcc/nios2-elf/4.1.2/mno-hw-mul\libgcc.a(_clz.o)
 .debug_line    0x0000f08d       0x81 c:/altera/10.1sp1/nios2eds/bin/gnu/h-i686-mingw32/bin/../lib/gcc/nios2-elf/4.1.2/../../../../nios2-elf/lib/mno-hw-mul\libc.a(lib_a-ctype_.o)
 .debug_line    0x0000f10e      0x1c9 c:/altera/10.1sp1/nios2eds/bin/gnu/h-i686-mingw32/bin/../lib/gcc/nios2-elf/4.1.2/../../../../nios2-elf/lib/mno-hw-mul\libc.a(lib_a-errno.o)
 .debug_line    0x0000f2d7      0x261 c:/altera/10.1sp1/nios2eds/bin/gnu/h-i686-mingw32/bin/../lib/gcc/nios2-elf/4.1.2/../../../../nios2-elf/lib/mno-hw-mul\libc.a(lib_a-fprintf.o)
 .debug_line    0x0000f538      0x2be c:/altera/10.1sp1/nios2eds/bin/gnu/h-i686-mingw32/bin/../lib/gcc/nios2-elf/4.1.2/../../../../nios2-elf/lib/mno-hw-mul\libc.a(lib_a-fwrite.o)
 .debug_line    0x0000f7f6      0x281 c:/altera/10.1sp1/nios2eds/bin/gnu/h-i686-mingw32/bin/../lib/gcc/nios2-elf/4.1.2/../../../../nios2-elf/lib/mno-hw-mul\libc.a(lib_a-getc.o)
 .debug_line    0x0000fa77      0x1f7 c:/altera/10.1sp1/nios2eds/bin/gnu/h-i686-mingw32/bin/../lib/gcc/nios2-elf/4.1.2/../../../../nios2-elf/lib/mno-hw-mul\libc.a(lib_a-impure.o)
 .debug_line    0x0000fc6e      0x208 c:/altera/10.1sp1/nios2eds/bin/gnu/h-i686-mingw32/bin/../lib/gcc/nios2-elf/4.1.2/../../../../nios2-elf/lib/mno-hw-mul\libc.a(lib_a-malign.o)
 .debug_line    0x0000fe76      0x353 c:/altera/10.1sp1/nios2eds/bin/gnu/h-i686-mingw32/bin/../lib/gcc/nios2-elf/4.1.2/../../../../nios2-elf/lib/mno-hw-mul\libc.a(lib_a-malignr.o)
 .debug_line    0x000101c9      0x228 c:/altera/10.1sp1/nios2eds/bin/gnu/h-i686-mingw32/bin/../lib/gcc/nios2-elf/4.1.2/../../../../nios2-elf/lib/mno-hw-mul\libc.a(lib_a-malloc.o)
 .debug_line    0x000103f1      0x7e7 c:/altera/10.1sp1/nios2eds/bin/gnu/h-i686-mingw32/bin/../lib/gcc/nios2-elf/4.1.2/../../../../nios2-elf/lib/mno-hw-mul\libc.a(lib_a-mallocr.o)
 .debug_line    0x00010bd8      0x19c c:/altera/10.1sp1/nios2eds/bin/gnu/h-i686-mingw32/bin/../lib/gcc/nios2-elf/4.1.2/../../../../nios2-elf/lib/mno-hw-mul\libc.a(lib_a-memcpy.o)
 .debug_line    0x00010d74      0x2cb c:/altera/10.1sp1/nios2eds/bin/gnu/h-i686-mingw32/bin/../lib/gcc/nios2-elf/4.1.2/../../../../nios2-elf/lib/mno-hw-mul\libc.a(lib_a-memset.o)
 .debug_line    0x0001103f      0x281 c:/altera/10.1sp1/nios2eds/bin/gnu/h-i686-mingw32/bin/../lib/gcc/nios2-elf/4.1.2/../../../../nios2-elf/lib/mno-hw-mul\libc.a(lib_a-perror.o)
 .debug_line    0x000112c0      0x278 c:/altera/10.1sp1/nios2eds/bin/gnu/h-i686-mingw32/bin/../lib/gcc/nios2-elf/4.1.2/../../../../nios2-elf/lib/mno-hw-mul\libc.a(lib_a-printf.o)
 .debug_line    0x00011538      0x2a1 c:/altera/10.1sp1/nios2eds/bin/gnu/h-i686-mingw32/bin/../lib/gcc/nios2-elf/4.1.2/../../../../nios2-elf/lib/mno-hw-mul\libc.a(lib_a-putc.o)
 .debug_line    0x000117d9      0x241 c:/altera/10.1sp1/nios2eds/bin/gnu/h-i686-mingw32/bin/../lib/gcc/nios2-elf/4.1.2/../../../../nios2-elf/lib/mno-hw-mul\libc.a(lib_a-putchar.o)
 .debug_line    0x00011a1a      0x2d4 c:/altera/10.1sp1/nios2eds/bin/gnu/h-i686-mingw32/bin/../lib/gcc/nios2-elf/4.1.2/../../../../nios2-elf/lib/mno-hw-mul\libc.a(lib_a-puts.o)
 .debug_line    0x00011cee      0x26a c:/altera/10.1sp1/nios2eds/bin/gnu/h-i686-mingw32/bin/../lib/gcc/nios2-elf/4.1.2/../../../../nios2-elf/lib/mno-hw-mul\libc.a(lib_a-rget.o)
 .debug_line    0x00011f58      0x263 c:/altera/10.1sp1/nios2eds/bin/gnu/h-i686-mingw32/bin/../lib/gcc/nios2-elf/4.1.2/../../../../nios2-elf/lib/mno-hw-mul\libc.a(lib_a-sbrkr.o)
 .debug_line    0x000121bb      0x2ff c:/altera/10.1sp1/nios2eds/bin/gnu/h-i686-mingw32/bin/../lib/gcc/nios2-elf/4.1.2/../../../../nios2-elf/lib/mno-hw-mul\libc.a(lib_a-sprintf.o)
 .debug_line    0x000124ba      0x251 c:/altera/10.1sp1/nios2eds/bin/gnu/h-i686-mingw32/bin/../lib/gcc/nios2-elf/4.1.2/../../../../nios2-elf/lib/mno-hw-mul\libc.a(lib_a-strcpy.o)
 .debug_line    0x0001270b      0x4be c:/altera/10.1sp1/nios2eds/bin/gnu/h-i686-mingw32/bin/../lib/gcc/nios2-elf/4.1.2/../../../../nios2-elf/lib/mno-hw-mul\libc.a(lib_a-strerror.o)
 .debug_line    0x00012bc9      0x237 c:/altera/10.1sp1/nios2eds/bin/gnu/h-i686-mingw32/bin/../lib/gcc/nios2-elf/4.1.2/../../../../nios2-elf/lib/mno-hw-mul\libc.a(lib_a-strlen.o)
 .debug_line    0x00012e00       0x94 c:/altera/10.1sp1/nios2eds/bin/gnu/h-i686-mingw32/bin/../lib/gcc/nios2-elf/4.1.2/../../../../nios2-elf/lib/mno-hw-mul\libc.a(lib_a-u_strerr.o)
 .debug_line    0x00012e94     0x10e9 c:/altera/10.1sp1/nios2eds/bin/gnu/h-i686-mingw32/bin/../lib/gcc/nios2-elf/4.1.2/../../../../nios2-elf/lib/mno-hw-mul\libc.a(lib_a-vfprintf.o)
 .debug_line    0x00013f7d      0x32d c:/altera/10.1sp1/nios2eds/bin/gnu/h-i686-mingw32/bin/../lib/gcc/nios2-elf/4.1.2/../../../../nios2-elf/lib/mno-hw-mul\libc.a(lib_a-wbuf.o)
 .debug_line    0x000142aa      0x2cd c:/altera/10.1sp1/nios2eds/bin/gnu/h-i686-mingw32/bin/../lib/gcc/nios2-elf/4.1.2/../../../../nios2-elf/lib/mno-hw-mul\libc.a(lib_a-wsetup.o)
 .debug_line    0x00014577     0x12e3 c:/altera/10.1sp1/nios2eds/bin/gnu/h-i686-mingw32/bin/../lib/gcc/nios2-elf/4.1.2/../../../../nios2-elf/lib/mno-hw-mul\libc.a(lib_a-dtoa.o)
 .debug_line    0x0001585a      0x3ea c:/altera/10.1sp1/nios2eds/bin/gnu/h-i686-mingw32/bin/../lib/gcc/nios2-elf/4.1.2/../../../../nios2-elf/lib/mno-hw-mul\libc.a(lib_a-fflush.o)
 .debug_line    0x00015c44      0x5e6 c:/altera/10.1sp1/nios2eds/bin/gnu/h-i686-mingw32/bin/../lib/gcc/nios2-elf/4.1.2/../../../../nios2-elf/lib/mno-hw-mul\libc.a(lib_a-findfp.o)
 .debug_line    0x0001622a      0x262 c:/altera/10.1sp1/nios2eds/bin/gnu/h-i686-mingw32/bin/../lib/gcc/nios2-elf/4.1.2/../../../../nios2-elf/lib/mno-hw-mul\libc.a(lib_a-fputc.o)
 .debug_line    0x0001648c      0x2a5 c:/altera/10.1sp1/nios2eds/bin/gnu/h-i686-mingw32/bin/../lib/gcc/nios2-elf/4.1.2/../../../../nios2-elf/lib/mno-hw-mul\libc.a(lib_a-fputs.o)
 .debug_line    0x00016731      0x5c8 c:/altera/10.1sp1/nios2eds/bin/gnu/h-i686-mingw32/bin/../lib/gcc/nios2-elf/4.1.2/../../../../nios2-elf/lib/mno-hw-mul\libc.a(lib_a-freer.o)
 .debug_line    0x00016cf9      0x61e c:/altera/10.1sp1/nios2eds/bin/gnu/h-i686-mingw32/bin/../lib/gcc/nios2-elf/4.1.2/../../../../nios2-elf/lib/mno-hw-mul\libc.a(lib_a-fvwrite.o)
 .debug_line    0x00017317      0x327 c:/altera/10.1sp1/nios2eds/bin/gnu/h-i686-mingw32/bin/../lib/gcc/nios2-elf/4.1.2/../../../../nios2-elf/lib/mno-hw-mul\libc.a(lib_a-fwalk.o)
 .debug_line    0x0001763e      0x1bc c:/altera/10.1sp1/nios2eds/bin/gnu/h-i686-mingw32/bin/../lib/gcc/nios2-elf/4.1.2/../../../../nios2-elf/lib/mno-hw-mul\libc.a(lib_a-int_errno.o)
 .debug_line    0x000177fa      0x2a5 c:/altera/10.1sp1/nios2eds/bin/gnu/h-i686-mingw32/bin/../lib/gcc/nios2-elf/4.1.2/../../../../nios2-elf/lib/mno-hw-mul\libc.a(lib_a-locale.o)
 .debug_line    0x00017a9f      0x3a0 c:/altera/10.1sp1/nios2eds/bin/gnu/h-i686-mingw32/bin/../lib/gcc/nios2-elf/4.1.2/../../../../nios2-elf/lib/mno-hw-mul\libc.a(lib_a-makebuf.o)
 .debug_line    0x00017e3f      0x2cd c:/altera/10.1sp1/nios2eds/bin/gnu/h-i686-mingw32/bin/../lib/gcc/nios2-elf/4.1.2/../../../../nios2-elf/lib/mno-hw-mul\libc.a(lib_a-memchr.o)
 .debug_line    0x0001810c      0x2d4 c:/altera/10.1sp1/nios2eds/bin/gnu/h-i686-mingw32/bin/../lib/gcc/nios2-elf/4.1.2/../../../../nios2-elf/lib/mno-hw-mul\libc.a(lib_a-memmove.o)
 .debug_line    0x000183e0     0x1238 c:/altera/10.1sp1/nios2eds/bin/gnu/h-i686-mingw32/bin/../lib/gcc/nios2-elf/4.1.2/../../../../nios2-elf/lib/mno-hw-mul\libc.a(lib_a-mprec.o)
 .debug_line    0x00019618      0x567 c:/altera/10.1sp1/nios2eds/bin/gnu/h-i686-mingw32/bin/../lib/gcc/nios2-elf/4.1.2/../../../../nios2-elf/lib/mno-hw-mul\libc.a(lib_a-reallocr.o)
 .debug_line    0x00019b7f      0x3a1 c:/altera/10.1sp1/nios2eds/bin/gnu/h-i686-mingw32/bin/../lib/gcc/nios2-elf/4.1.2/../../../../nios2-elf/lib/mno-hw-mul\libc.a(lib_a-refill.o)
 .debug_line    0x00019f20      0x1ff c:/altera/10.1sp1/nios2eds/bin/gnu/h-i686-mingw32/bin/../lib/gcc/nios2-elf/4.1.2/../../../../nios2-elf/lib/mno-hw-mul\libc.a(lib_a-s_isinfd.o)
 .debug_line    0x0001a11f      0x369 c:/altera/10.1sp1/nios2eds/bin/gnu/h-i686-mingw32/bin/../lib/gcc/nios2-elf/4.1.2/../../../../nios2-elf/lib/mno-hw-mul\libc.a(lib_a-stdio.o)
 .debug_line    0x0001a488      0x29f c:/altera/10.1sp1/nios2eds/bin/gnu/h-i686-mingw32/bin/../lib/gcc/nios2-elf/4.1.2/../../../../nios2-elf/lib/mno-hw-mul\libc.a(lib_a-strcmp.o)
 .debug_line    0x0001a727      0x264 c:/altera/10.1sp1/nios2eds/bin/gnu/h-i686-mingw32/bin/../lib/gcc/nios2-elf/4.1.2/../../../../nios2-elf/lib/mno-hw-mul\libc.a(lib_a-writer.o)
 .debug_line    0x0001a98b      0x239 c:/altera/10.1sp1/nios2eds/bin/gnu/h-i686-mingw32/bin/../lib/gcc/nios2-elf/4.1.2/../../../../nios2-elf/lib/mno-hw-mul\libc.a(lib_a-callocr.o)
 .debug_line    0x0001abc4      0x264 c:/altera/10.1sp1/nios2eds/bin/gnu/h-i686-mingw32/bin/../lib/gcc/nios2-elf/4.1.2/../../../../nios2-elf/lib/mno-hw-mul\libc.a(lib_a-closer.o)
 .debug_line    0x0001ae28      0x2c5 c:/altera/10.1sp1/nios2eds/bin/gnu/h-i686-mingw32/bin/../lib/gcc/nios2-elf/4.1.2/../../../../nios2-elf/lib/mno-hw-mul\libc.a(lib_a-fclose.o)
 .debug_line    0x0001b0ed      0x241 c:/altera/10.1sp1/nios2eds/bin/gnu/h-i686-mingw32/bin/../lib/gcc/nios2-elf/4.1.2/../../../../nios2-elf/lib/mno-hw-mul\libc.a(lib_a-fstatr.o)
 .debug_line    0x0001b32e      0x265 c:/altera/10.1sp1/nios2eds/bin/gnu/h-i686-mingw32/bin/../lib/gcc/nios2-elf/4.1.2/../../../../nios2-elf/lib/mno-hw-mul\libc.a(lib_a-isattyr.o)
 .debug_line    0x0001b593      0x264 c:/altera/10.1sp1/nios2eds/bin/gnu/h-i686-mingw32/bin/../lib/gcc/nios2-elf/4.1.2/../../../../nios2-elf/lib/mno-hw-mul\libc.a(lib_a-lseekr.o)
 .debug_line    0x0001b7f7      0x263 c:/altera/10.1sp1/nios2eds/bin/gnu/h-i686-mingw32/bin/../lib/gcc/nios2-elf/4.1.2/../../../../nios2-elf/lib/mno-hw-mul\libc.a(lib_a-readr.o)
 .debug_line    0x0001ba5a      0x2f2 c:/altera/10.1sp1/nios2eds/bin/gnu/h-i686-mingw32/bin/../lib/gcc/nios2-elf/4.1.2/mno-hw-mul\libgcc.a(_udivdi3.o)
 .debug_line    0x0001bd4c      0x405 c:/altera/10.1sp1/nios2eds/bin/gnu/h-i686-mingw32/bin/../lib/gcc/nios2-elf/4.1.2/mno-hw-mul\libgcc.a(_umoddi3.o)
 .debug_line    0x0001c151      0x129 c:/altera/10.1sp1/nios2eds/bin/gnu/h-i686-mingw32/bin/../lib/gcc/nios2-elf/4.1.2/mno-hw-mul\libgcc.a(_ne_df.o)
 .debug_line    0x0001c27a      0x334 ../RedeFFTHW_bsp\libucosii_bsp.a(alt_fstat.o)
 .debug_line    0x0001c5ae      0x335 ../RedeFFTHW_bsp\libucosii_bsp.a(alt_isatty.o)
 .debug_line    0x0001c8e3      0x24a ../RedeFFTHW_bsp\libucosii_bsp.a(alt_load.o)
 .debug_line    0x0001cb2d      0x334 ../RedeFFTHW_bsp\libucosii_bsp.a(alt_lseek.o)
 .debug_line    0x0001ce61      0x37c ../RedeFFTHW_bsp\libucosii_bsp.a(alt_main.o)
 .debug_line    0x0001d1dd      0x1ec ../RedeFFTHW_bsp\libucosii_bsp.a(alt_remap_cached.o)
 .debug_line    0x0001d3c9      0x1f6 ../RedeFFTHW_bsp\libucosii_bsp.a(alt_remap_uncached.o)
 .debug_line    0x0001d5bf      0x294 ../RedeFFTHW_bsp\libucosii_bsp.a(alt_sbrk.o)
 .debug_line    0x0001d853      0x349 ../RedeFFTHW_bsp\libucosii_bsp.a(alt_tick.o)
 .debug_line    0x0001db9c      0x1ff ../RedeFFTHW_bsp\libucosii_bsp.a(alt_uncached_malloc.o)
 .debug_line    0x0001dd9b      0x2e0 ../RedeFFTHW_bsp\libucosii_bsp.a(alt_usleep.o)
 .debug_line    0x0001e07b      0x2f2 ../RedeFFTHW_bsp\libucosii_bsp.a(alt_env_lock.o)
 .debug_line    0x0001e36d      0x3ae ../RedeFFTHW_bsp\libucosii_bsp.a(alt_malloc_lock.o)
 .debug_line    0x0001e71b     0x1696 ../RedeFFTHW_bsp\libucosii_bsp.a(os_core.o)
 .debug_line    0x0001fdb1      0x3bb ../RedeFFTHW_bsp\libucosii_bsp.a(os_dbg.o)
 .debug_line    0x0002016c     0x121a ../RedeFFTHW_bsp\libucosii_bsp.a(os_flag.o)
 .debug_line    0x00021386      0x7bd ../RedeFFTHW_bsp\libucosii_bsp.a(os_mem.o)
 .debug_line    0x00021b43      0xe9e ../RedeFFTHW_bsp\libucosii_bsp.a(os_q.o)
 .debug_line    0x000229e1      0xa56 ../RedeFFTHW_bsp\libucosii_bsp.a(os_sem.o)
 .debug_line    0x00023437     0x115f ../RedeFFTHW_bsp\libucosii_bsp.a(os_task.o)
 .debug_line    0x00024596      0x562 ../RedeFFTHW_bsp\libucosii_bsp.a(os_time.o)
 .debug_line    0x00024af8      0x53e ../RedeFFTHW_bsp\libucosii_bsp.a(alt_sys_init.o)
 .debug_line    0x00025036      0x34c ../RedeFFTHW_bsp\libucosii_bsp.a(altera_avalon_jtag_uart_fd.o)
 .debug_line    0x00025382      0x5cb ../RedeFFTHW_bsp\libucosii_bsp.a(altera_avalon_jtag_uart_init.o)
 .debug_line    0x0002594d      0x389 ../RedeFFTHW_bsp\libucosii_bsp.a(altera_avalon_jtag_uart_ioctl.o)
 .debug_line    0x00025cd6      0x4c7 ../RedeFFTHW_bsp\libucosii_bsp.a(altera_avalon_jtag_uart_read.o)
 .debug_line    0x0002619d      0x4d5 ../RedeFFTHW_bsp\libucosii_bsp.a(altera_avalon_jtag_uart_write.o)
 .debug_line    0x00026672      0x649 ../RedeFFTHW_bsp\libucosii_bsp.a(altera_avalon_sgdma.o)
 .debug_line    0x00026cbb      0x2e6 ../RedeFFTHW_bsp\libucosii_bsp.a(altera_avalon_timer_sc.o)
 .debug_line    0x00026fa1      0xc62 ../RedeFFTHW_bsp\libucosii_bsp.a(ins_tse_mac.o)
 .debug_line    0x00027c03      0x29a ../RedeFFTHW_bsp\libucosii_bsp.a(perf_print_formatted_report.o)
 .debug_line    0x00027e9d      0x37a ../RedeFFTHW_bsp\libucosii_bsp.a(alt_iniche_close.o)
 .debug_line    0x00028217      0x41d ../RedeFFTHW_bsp\libucosii_bsp.a(alt_iniche_dev.o)
 .debug_line    0x00028634      0x379 ../RedeFFTHW_bsp\libucosii_bsp.a(alt_iniche_read.o)
 .debug_line    0x000289ad      0x38a ../RedeFFTHW_bsp\libucosii_bsp.a(alt_iniche_write.o)
 .debug_line    0x00028d37      0x7d9 ../RedeFFTHW_bsp\libucosii_bsp.a(ipnet.o)
 .debug_line    0x00029510      0x51a ../RedeFFTHW_bsp\libucosii_bsp.a(ipstart.o)
 .debug_line    0x00029a2a      0x94f ../RedeFFTHW_bsp\libucosii_bsp.a(igmp_cmn.o)
 .debug_line    0x0002a379      0x6fa ../RedeFFTHW_bsp\libucosii_bsp.a(bsdsock.o)
 .debug_line    0x0002aa73      0x33d ../RedeFFTHW_bsp\libucosii_bsp.a(cksum.o)
 .debug_line    0x0002adb0      0x7dc ../RedeFFTHW_bsp\libucosii_bsp.a(in_utils.o)
 .debug_line    0x0002b58c      0x472 ../RedeFFTHW_bsp\libucosii_bsp.a(netmain.o)
 .debug_line    0x0002b9fe      0x5db ../RedeFFTHW_bsp\libucosii_bsp.a(tk_crnos.o)
 .debug_line    0x0002bfd9     0x109c ../RedeFFTHW_bsp\libucosii_bsp.a(dhcpclnt.o)
 .debug_line    0x0002d075      0x332 ../RedeFFTHW_bsp\libucosii_bsp.a(dhcputil.o)
 .debug_line    0x0002d3a7      0x67c ../RedeFFTHW_bsp\libucosii_bsp.a(pktalloc.o)
 .debug_line    0x0002da23      0x40e ../RedeFFTHW_bsp\libucosii_bsp.a(q.o)
 .debug_line    0x0002de31      0x4a1 ../RedeFFTHW_bsp\libucosii_bsp.a(udp_open.o)
 .debug_line    0x0002e2d2       0xe2 ../RedeFFTHW_bsp\libucosii_bsp.a(asm_cksum.o)
 .debug_line    0x0002e3b4      0x4a5 ../RedeFFTHW_bsp\libucosii_bsp.a(brdutils.o)
 .debug_line    0x0002e859      0x532 ../RedeFFTHW_bsp\libucosii_bsp.a(osportco.o)
 .debug_line    0x0002ed8b      0x671 ../RedeFFTHW_bsp\libucosii_bsp.a(targnios.o)
 .debug_line    0x0002f3fc      0xf56 ../RedeFFTHW_bsp\libucosii_bsp.a(nptcp.o)
 .debug_line    0x00030352      0x87b ../RedeFFTHW_bsp\libucosii_bsp.a(rawsock.o)
 .debug_line    0x00030bcd      0xe69 ../RedeFFTHW_bsp\libucosii_bsp.a(sockcall.o)
 .debug_line    0x00031a36     0x12eb ../RedeFFTHW_bsp\libucosii_bsp.a(socket.o)
 .debug_line    0x00032d21      0xc1f ../RedeFFTHW_bsp\libucosii_bsp.a(socket2.o)
 .debug_line    0x00033940      0x760 ../RedeFFTHW_bsp\libucosii_bsp.a(soselect.o)
 .debug_line    0x000340a0     0x1621 ../RedeFFTHW_bsp\libucosii_bsp.a(tcp_in.o)
 .debug_line    0x000356c1      0xa8c ../RedeFFTHW_bsp\libucosii_bsp.a(tcp_out.o)
 .debug_line    0x0003614d      0x7f6 ../RedeFFTHW_bsp\libucosii_bsp.a(tcp_subr.o)
 .debug_line    0x00036943      0x646 ../RedeFFTHW_bsp\libucosii_bsp.a(tcp_timr.o)
 .debug_line    0x00036f89      0x8d5 ../RedeFFTHW_bsp\libucosii_bsp.a(tcp_usr.o)
 .debug_line    0x0003785e      0x372 ../RedeFFTHW_bsp\libucosii_bsp.a(tcpport.o)
 .debug_line    0x00037bd0      0x98c ../RedeFFTHW_bsp\libucosii_bsp.a(udpsock.o)
 .debug_line    0x0003855c      0x30f ../RedeFFTHW_bsp\libucosii_bsp.a(alt_alarm_start.o)
 .debug_line    0x0003886b      0x28f ../RedeFFTHW_bsp\libucosii_bsp.a(alt_busy_sleep.o)
 .debug_line    0x00038afa      0x32c ../RedeFFTHW_bsp\libucosii_bsp.a(alt_close.o)
 .debug_line    0x00038e26      0x1e4 ../RedeFFTHW_bsp\libucosii_bsp.a(alt_dcache_flush.o)
 .debug_line    0x0003900a      0x1e8 ../RedeFFTHW_bsp\libucosii_bsp.a(alt_dcache_flush_all.o)
 .debug_line    0x000391f2      0x2ed ../RedeFFTHW_bsp\libucosii_bsp.a(alt_dev.o)
 .debug_line    0x000394df      0x28d ../RedeFFTHW_bsp\libucosii_bsp.a(alt_dev_llist_insert.o)
 .debug_line    0x0003976c       0xb6 ../RedeFFTHW_bsp\libucosii_bsp.a(alt_do_ctors.o)
 .debug_line    0x00039822       0xb6 ../RedeFFTHW_bsp\libucosii_bsp.a(alt_do_dtors.o)
 .debug_line    0x000398d8      0x1dd ../RedeFFTHW_bsp\libucosii_bsp.a(alt_errno.o)
 .debug_line    0x00039ab5      0x30d ../RedeFFTHW_bsp\libucosii_bsp.a(alt_find_dev.o)
 .debug_line    0x00039dc2      0x1e8 ../RedeFFTHW_bsp\libucosii_bsp.a(alt_icache_flush_all.o)
 .debug_line    0x00039faa      0x2fb ../RedeFFTHW_bsp\libucosii_bsp.a(alt_iic.o)
 .debug_line    0x0003a2a5      0x27c ../RedeFFTHW_bsp\libucosii_bsp.a(alt_iic_isr_register.o)
 .debug_line    0x0003a521      0x356 ../RedeFFTHW_bsp\libucosii_bsp.a(alt_io_redirect.o)
 .debug_line    0x0003a877       0x9e ../RedeFFTHW_bsp\libucosii_bsp.a(alt_irq_entry.o)
 .debug_line    0x0003a915      0x2f7 ../RedeFFTHW_bsp\libucosii_bsp.a(alt_irq_handler.o)
 .debug_line    0x0003ac0c       0xa5 ../RedeFFTHW_bsp\libucosii_bsp.a(alt_irq_vars.o)
 .debug_line    0x0003acb1      0x392 ../RedeFFTHW_bsp\libucosii_bsp.a(alt_open.o)
 .debug_line    0x0003b043      0x35b ../RedeFFTHW_bsp\libucosii_bsp.a(alt_read.o)
 .debug_line    0x0003b39e      0x2ac ../RedeFFTHW_bsp\libucosii_bsp.a(alt_release_fd.o)
 .debug_line    0x0003b64a      0x35c ../RedeFFTHW_bsp\libucosii_bsp.a(alt_write.o)
 .debug_line    0x0003b9a6      0x1fc ../RedeFFTHW_bsp\libucosii_bsp.a(altera_nios2_irq.o)
 .debug_line    0x0003bba2       0xb9 ../RedeFFTHW_bsp\libucosii_bsp.a(os_cpu_a.o)
 .debug_line    0x0003bc5b      0x363 ../RedeFFTHW_bsp\libucosii_bsp.a(os_cpu_c.o)
 .debug_line    0x0003bfbe      0x160 ../RedeFFTHW_bsp\libucosii_bsp.a(altera_avalon_performance_counter.o)
 .debug_line    0x0003c11e     0x20ca ../RedeFFTHW_bsp\libucosii_bsp.a(altera_avalon_tse.o)
 .debug_line    0x0003e1e8      0x371 ../RedeFFTHW_bsp\libucosii_bsp.a(altera_avalon_tse_system_info.o)
 .debug_line    0x0003e559      0x552 ../RedeFFTHW_bsp\libucosii_bsp.a(allports.o)
 .debug_line    0x0003eaab      0x4b6 ../RedeFFTHW_bsp\libucosii_bsp.a(timeouts.o)
 .debug_line    0x0003ef61      0x3a3 ../RedeFFTHW_bsp\libucosii_bsp.a(tk_misc.o)
 .debug_line    0x0003f304      0x3c2 ../RedeFFTHW_bsp\libucosii_bsp.a(alt_iniche_fcntl.o)
 .debug_line    0x0003f6c6      0xcd5 ../RedeFFTHW_bsp\libucosii_bsp.a(et_arp.o)
 .debug_line    0x0004039b      0x4ac ../RedeFFTHW_bsp\libucosii_bsp.a(iface.o)
 .debug_line    0x00040847      0xfc8 ../RedeFFTHW_bsp\libucosii_bsp.a(ip.o)
 .debug_line    0x0004180f      0xfaf ../RedeFFTHW_bsp\libucosii_bsp.a(ip_reasm.o)
 .debug_line    0x000427be      0x7b9 ../RedeFFTHW_bsp\libucosii_bsp.a(ipdemux.o)
 .debug_line    0x00042f77      0x49b ../RedeFFTHW_bsp\libucosii_bsp.a(ipmc.o)
 .debug_line    0x00043412      0x36b ../RedeFFTHW_bsp\libucosii_bsp.a(ipport.o)
 .debug_line    0x0004377d      0x5ec ../RedeFFTHW_bsp\libucosii_bsp.a(ipraw.o)
 .debug_line    0x00043d69      0x5ee ../RedeFFTHW_bsp\libucosii_bsp.a(iproute.o)
 .debug_line    0x00044357      0x829 ../RedeFFTHW_bsp\libucosii_bsp.a(udp.o)
 .debug_line    0x00044b80      0x46d ../RedeFFTHW_bsp\libucosii_bsp.a(igmp.o)
 .debug_line    0x00044fed      0x660 ../RedeFFTHW_bsp\libucosii_bsp.a(igmp2.o)
 .debug_line    0x0004564d      0x744 ../RedeFFTHW_bsp\libucosii_bsp.a(ipopt.o)
 .debug_line    0x00045d91      0x62e ../RedeFFTHW_bsp\libucosii_bsp.a(u_mctest.o)
 .debug_line    0x000463bf      0x472 ../RedeFFTHW_bsp\libucosii_bsp.a(dhcsetup.o)
 .debug_line    0x00046831      0x47c ../RedeFFTHW_bsp\libucosii_bsp.a(memdev.o)
 .debug_line    0x00046cad      0x680 ../RedeFFTHW_bsp\libucosii_bsp.a(parseip.o)
 .debug_line    0x0004732d      0x3ec ../RedeFFTHW_bsp\libucosii_bsp.a(tcpcksum.o)
 .debug_line    0x00047719      0x7a0 ../RedeFFTHW_bsp\libucosii_bsp.a(in_pcb.o)
 .debug_line    0x00047eb9     0x102a ../RedeFFTHW_bsp\libucosii_bsp.a(vfsfiles.o)
 .debug_line    0x00048ee3      0x2f7 ../RedeFFTHW_bsp\libucosii_bsp.a(vfsport.o)
 .debug_line    0x000491da       0xde ../RedeFFTHW_bsp\libucosii_bsp.a(alt_exception_entry.o)
 .debug_line    0x000492b8      0x38b ../RedeFFTHW_bsp\libucosii_bsp.a(alt_fcntl.o)
 .debug_line    0x00049643      0x31e ../RedeFFTHW_bsp\libucosii_bsp.a(alt_find_file.o)
 .debug_line    0x00049961      0x34e ../RedeFFTHW_bsp\libucosii_bsp.a(alt_get_fd.o)
 .debug_line    0x00049caf      0x98b ../RedeFFTHW_bsp\libucosii_bsp.a(icmp.o)
 .debug_line    0x0004a63a      0x1dd c:/altera/10.1sp1/nios2eds/bin/gnu/h-i686-mingw32/bin/../lib/gcc/nios2-elf/4.1.2/../../../../nios2-elf/lib/mno-hw-mul\libc.a(lib_a-atexit.o)
 .debug_line    0x0004a817      0x1e7 c:/altera/10.1sp1/nios2eds/bin/gnu/h-i686-mingw32/bin/../lib/gcc/nios2-elf/4.1.2/../../../../nios2-elf/lib/mno-hw-mul\libc.a(lib_a-atoi.o)
 .debug_line    0x0004a9fe      0x1e9 c:/altera/10.1sp1/nios2eds/bin/gnu/h-i686-mingw32/bin/../lib/gcc/nios2-elf/4.1.2/../../../../nios2-elf/lib/mno-hw-mul\libc.a(lib_a-calloc.o)
 .debug_line    0x0004abe7      0x215 c:/altera/10.1sp1/nios2eds/bin/gnu/h-i686-mingw32/bin/../lib/gcc/nios2-elf/4.1.2/../../../../nios2-elf/lib/mno-hw-mul\libc.a(lib_a-exit.o)
 .debug_line    0x0004adfc      0x269 c:/altera/10.1sp1/nios2eds/bin/gnu/h-i686-mingw32/bin/../lib/gcc/nios2-elf/4.1.2/../../../../nios2-elf/lib/mno-hw-mul\libc.a(lib_a-memcmp.o)
 .debug_line    0x0004b065      0x291 c:/altera/10.1sp1/nios2eds/bin/gnu/h-i686-mingw32/bin/../lib/gcc/nios2-elf/4.1.2/../../../../nios2-elf/lib/mno-hw-mul\libc.a(lib_a-strchr.o)
 .debug_line    0x0004b2f6      0x2c8 c:/altera/10.1sp1/nios2eds/bin/gnu/h-i686-mingw32/bin/../lib/gcc/nios2-elf/4.1.2/../../../../nios2-elf/lib/mno-hw-mul\libc.a(lib_a-strncmp.o)
 .debug_line    0x0004b5be      0x29a c:/altera/10.1sp1/nios2eds/bin/gnu/h-i686-mingw32/bin/../lib/gcc/nios2-elf/4.1.2/../../../../nios2-elf/lib/mno-hw-mul\libc.a(lib_a-strncpy.o)
 .debug_line    0x0004b858      0x3d0 c:/altera/10.1sp1/nios2eds/bin/gnu/h-i686-mingw32/bin/../lib/gcc/nios2-elf/4.1.2/../../../../nios2-elf/lib/mno-hw-mul\libc.a(lib_a-strtol.o)
 .debug_line    0x0004bc28      0x24c c:/altera/10.1sp1/nios2eds/bin/gnu/h-i686-mingw32/bin/../lib/gcc/nios2-elf/4.1.2/../../../../nios2-elf/lib/mno-hw-mul\libc.a(lib_a-vprintf.o)
 .debug_line    0x0004be74      0x2b6 c:/altera/10.1sp1/nios2eds/bin/gnu/h-i686-mingw32/bin/../lib/gcc/nios2-elf/4.1.2/../../../../nios2-elf/lib/mno-hw-mul\libc.a(lib_a-vsprintf.o)
 .debug_line    0x0004c12a      0x2f0 c:/altera/10.1sp1/nios2eds/bin/gnu/h-i686-mingw32/bin/../lib/gcc/nios2-elf/4.1.2/../../../../nios2-elf/lib/mno-hw-mul\libc.a(lib_a-__atexit.o)
 .debug_line    0x0004c41a      0x344 c:/altera/10.1sp1/nios2eds/bin/gnu/h-i686-mingw32/bin/../lib/gcc/nios2-elf/4.1.2/../../../../nios2-elf/lib/mno-hw-mul\libc.a(lib_a-__call_atexit.o)
 .debug_line    0x0004c75e       0xdf c:/altera/10.1sp1/nios2eds/bin/gnu/h-i686-mingw32/bin/../lib/gcc/nios2-elf/4.1.2/mno-hw-mul\libgcc.a(_floatundidf.o)
 .debug_line    0x0004c83d      0x2a9 ../RedeFFTHW_bsp\libucosii_bsp.a(alt_exit.o)

.debug_frame    0x00000000     0x7774
 *(.debug_frame)
 .debug_frame   0x00000000       0xf0 obj/AquisicaoRede.o
 .debug_frame   0x000000f0      0x250 obj/DanWindow/DanWindow.o
 .debug_frame   0x00000340      0x1cc obj/FFT/simpleDFT.o
 .debug_frame   0x0000050c      0x180 obj/LCDTask.o
 .debug_frame   0x0000068c       0x48 obj/TerminalSerial.o
 .debug_frame   0x000006d4       0x64 obj/alt_error_handler.o
 .debug_frame   0x00000738       0xd4 obj/alt_tpo_lcd/alt_tpo_lcd.o
 .debug_frame   0x0000080c       0xf8 obj/alt_video_display/alt_video_display.o
 .debug_frame   0x00000904       0xf0 obj/fixedpoint2_16.o
 .debug_frame   0x000009f4      0x338 obj/graphics_lib/simple_graphics.o
 .debug_frame   0x00000d2c       0x48 obj/iniche_init.o
 .debug_frame   0x00000d74       0xd8 obj/network_utilities.o
 .debug_frame   0x00000e4c      0x12c obj/simple_socket_server.o
 .debug_frame   0x00000f78       0x28 c:/altera/10.1sp1/nios2eds/bin/gnu/h-i686-mingw32/bin/../lib/gcc/nios2-elf/4.1.2/../../../../nios2-elf/lib/mno-hw-mul\libm.a(lib_a-s_cos.o)
 .debug_frame   0x00000fa0       0x28 c:/altera/10.1sp1/nios2eds/bin/gnu/h-i686-mingw32/bin/../lib/gcc/nios2-elf/4.1.2/../../../../nios2-elf/lib/mno-hw-mul\libm.a(lib_a-s_sin.o)
 .debug_frame   0x00000fc8       0x34 c:/altera/10.1sp1/nios2eds/bin/gnu/h-i686-mingw32/bin/../lib/gcc/nios2-elf/4.1.2/../../../../nios2-elf/lib/mno-hw-mul\libm.a(lib_a-w_sqrt.o)
 .debug_frame   0x00000ffc       0x30 c:/altera/10.1sp1/nios2eds/bin/gnu/h-i686-mingw32/bin/../lib/gcc/nios2-elf/4.1.2/../../../../nios2-elf/lib/mno-hw-mul\libm.a(lib_a-wf_sqrt.o)
 .debug_frame   0x0000102c       0x3c c:/altera/10.1sp1/nios2eds/bin/gnu/h-i686-mingw32/bin/../lib/gcc/nios2-elf/4.1.2/../../../../nios2-elf/lib/mno-hw-mul\libm.a(lib_a-e_rem_pio2.o)
 .debug_frame   0x00001068       0x2c c:/altera/10.1sp1/nios2eds/bin/gnu/h-i686-mingw32/bin/../lib/gcc/nios2-elf/4.1.2/../../../../nios2-elf/lib/mno-hw-mul\libm.a(lib_a-e_sqrt.o)
 .debug_frame   0x00001094       0x28 c:/altera/10.1sp1/nios2eds/bin/gnu/h-i686-mingw32/bin/../lib/gcc/nios2-elf/4.1.2/../../../../nios2-elf/lib/mno-hw-mul\libm.a(lib_a-ef_sqrt.o)
 .debug_frame   0x000010bc       0x38 c:/altera/10.1sp1/nios2eds/bin/gnu/h-i686-mingw32/bin/../lib/gcc/nios2-elf/4.1.2/../../../../nios2-elf/lib/mno-hw-mul\libm.a(lib_a-k_cos.o)
 .debug_frame   0x000010f4       0x3c c:/altera/10.1sp1/nios2eds/bin/gnu/h-i686-mingw32/bin/../lib/gcc/nios2-elf/4.1.2/../../../../nios2-elf/lib/mno-hw-mul\libm.a(lib_a-k_rem_pio2.o)
 .debug_frame   0x00001130       0x38 c:/altera/10.1sp1/nios2eds/bin/gnu/h-i686-mingw32/bin/../lib/gcc/nios2-elf/4.1.2/../../../../nios2-elf/lib/mno-hw-mul\libm.a(lib_a-k_sin.o)
 .debug_frame   0x00001168       0x20 c:/altera/10.1sp1/nios2eds/bin/gnu/h-i686-mingw32/bin/../lib/gcc/nios2-elf/4.1.2/../../../../nios2-elf/lib/mno-hw-mul\libm.a(lib_a-s_fabs.o)
 .debug_frame   0x00001188       0x3c c:/altera/10.1sp1/nios2eds/bin/gnu/h-i686-mingw32/bin/../lib/gcc/nios2-elf/4.1.2/../../../../nios2-elf/lib/mno-hw-mul\libm.a(lib_a-s_floor.o)
 .debug_frame   0x000011c4       0x20 c:/altera/10.1sp1/nios2eds/bin/gnu/h-i686-mingw32/bin/../lib/gcc/nios2-elf/4.1.2/../../../../nios2-elf/lib/mno-hw-mul\libm.a(lib_a-s_isnand.o)
 .debug_frame   0x000011e4       0x20 c:/altera/10.1sp1/nios2eds/bin/gnu/h-i686-mingw32/bin/../lib/gcc/nios2-elf/4.1.2/../../../../nios2-elf/lib/mno-hw-mul\libm.a(lib_a-s_matherr.o)
 .debug_frame   0x00001204       0x2c c:/altera/10.1sp1/nios2eds/bin/gnu/h-i686-mingw32/bin/../lib/gcc/nios2-elf/4.1.2/../../../../nios2-elf/lib/mno-hw-mul\libm.a(lib_a-s_scalbn.o)
 .debug_frame   0x00001230       0x20 c:/altera/10.1sp1/nios2eds/bin/gnu/h-i686-mingw32/bin/../lib/gcc/nios2-elf/4.1.2/../../../../nios2-elf/lib/mno-hw-mul\libm.a(lib_a-sf_isnan.o)
 .debug_frame   0x00001250       0x20 c:/altera/10.1sp1/nios2eds/bin/gnu/h-i686-mingw32/bin/../lib/gcc/nios2-elf/4.1.2/../../../../nios2-elf/lib/mno-hw-mul\libm.a(lib_a-s_copysign.o)
 .debug_frame   0x00001270       0x40 c:/altera/10.1sp1/nios2eds/bin/gnu/h-i686-mingw32/bin/../lib/gcc/nios2-elf/4.1.2/mno-hw-mul\libgcc.a(_muldi3.o)
 .debug_frame   0x000012b0       0x58 c:/altera/10.1sp1/nios2eds/bin/gnu/h-i686-mingw32/bin/../lib/gcc/nios2-elf/4.1.2/mno-hw-mul\libgcc.a(_addsub_sf.o)
 .debug_frame   0x00001308       0x2c c:/altera/10.1sp1/nios2eds/bin/gnu/h-i686-mingw32/bin/../lib/gcc/nios2-elf/4.1.2/mno-hw-mul\libgcc.a(_mul_sf.o)
 .debug_frame   0x00001334       0x2c c:/altera/10.1sp1/nios2eds/bin/gnu/h-i686-mingw32/bin/../lib/gcc/nios2-elf/4.1.2/mno-hw-mul\libgcc.a(_div_sf.o)
 .debug_frame   0x00001360       0x2c c:/altera/10.1sp1/nios2eds/bin/gnu/h-i686-mingw32/bin/../lib/gcc/nios2-elf/4.1.2/mno-hw-mul\libgcc.a(_ge_sf.o)
 .debug_frame   0x0000138c       0x2c c:/altera/10.1sp1/nios2eds/bin/gnu/h-i686-mingw32/bin/../lib/gcc/nios2-elf/4.1.2/mno-hw-mul\libgcc.a(_lt_sf.o)
 .debug_frame   0x000013b8       0x28 c:/altera/10.1sp1/nios2eds/bin/gnu/h-i686-mingw32/bin/../lib/gcc/nios2-elf/4.1.2/mno-hw-mul\libgcc.a(_si_to_sf.o)
 .debug_frame   0x000013e0       0x28 c:/altera/10.1sp1/nios2eds/bin/gnu/h-i686-mingw32/bin/../lib/gcc/nios2-elf/4.1.2/mno-hw-mul\libgcc.a(_sf_to_si.o)
 .debug_frame   0x00001408       0x28 c:/altera/10.1sp1/nios2eds/bin/gnu/h-i686-mingw32/bin/../lib/gcc/nios2-elf/4.1.2/mno-hw-mul\libgcc.a(_sf_to_df.o)
 .debug_frame   0x00001430       0x70 c:/altera/10.1sp1/nios2eds/bin/gnu/h-i686-mingw32/bin/../lib/gcc/nios2-elf/4.1.2/mno-hw-mul\libgcc.a(_addsub_df.o)
 .debug_frame   0x000014a0       0x3c c:/altera/10.1sp1/nios2eds/bin/gnu/h-i686-mingw32/bin/../lib/gcc/nios2-elf/4.1.2/mno-hw-mul\libgcc.a(_mul_df.o)
 .debug_frame   0x000014dc       0x30 c:/altera/10.1sp1/nios2eds/bin/gnu/h-i686-mingw32/bin/../lib/gcc/nios2-elf/4.1.2/mno-hw-mul\libgcc.a(_div_df.o)
 .debug_frame   0x0000150c       0x2c c:/altera/10.1sp1/nios2eds/bin/gnu/h-i686-mingw32/bin/../lib/gcc/nios2-elf/4.1.2/mno-hw-mul\libgcc.a(_eq_df.o)
 .debug_frame   0x00001538       0x2c c:/altera/10.1sp1/nios2eds/bin/gnu/h-i686-mingw32/bin/../lib/gcc/nios2-elf/4.1.2/mno-hw-mul\libgcc.a(_gt_df.o)
 .debug_frame   0x00001564       0x2c c:/altera/10.1sp1/nios2eds/bin/gnu/h-i686-mingw32/bin/../lib/gcc/nios2-elf/4.1.2/mno-hw-mul\libgcc.a(_ge_df.o)
 .debug_frame   0x00001590       0x2c c:/altera/10.1sp1/nios2eds/bin/gnu/h-i686-mingw32/bin/../lib/gcc/nios2-elf/4.1.2/mno-hw-mul\libgcc.a(_lt_df.o)
 .debug_frame   0x000015bc       0x30 c:/altera/10.1sp1/nios2eds/bin/gnu/h-i686-mingw32/bin/../lib/gcc/nios2-elf/4.1.2/mno-hw-mul\libgcc.a(_si_to_df.o)
 .debug_frame   0x000015ec       0x28 c:/altera/10.1sp1/nios2eds/bin/gnu/h-i686-mingw32/bin/../lib/gcc/nios2-elf/4.1.2/mno-hw-mul\libgcc.a(_df_to_si.o)
 .debug_frame   0x00001614       0x28 c:/altera/10.1sp1/nios2eds/bin/gnu/h-i686-mingw32/bin/../lib/gcc/nios2-elf/4.1.2/mno-hw-mul\libgcc.a(_make_df.o)
 .debug_frame   0x0000163c       0x28 c:/altera/10.1sp1/nios2eds/bin/gnu/h-i686-mingw32/bin/../lib/gcc/nios2-elf/4.1.2/mno-hw-mul\libgcc.a(_df_to_sf.o)
 .debug_frame   0x00001664       0x38 c:/altera/10.1sp1/nios2eds/bin/gnu/h-i686-mingw32/bin/../lib/gcc/nios2-elf/4.1.2/mno-hw-mul\libgcc.a(_usi_to_df.o)
 .debug_frame   0x0000169c       0x70 c:/altera/10.1sp1/nios2eds/bin/gnu/h-i686-mingw32/bin/../lib/gcc/nios2-elf/4.1.2/mno-hw-mul\libgcc.a(lib2-divmod.o)
 .debug_frame   0x0000170c       0x20 c:/altera/10.1sp1/nios2eds/bin/gnu/h-i686-mingw32/bin/../lib/gcc/nios2-elf/4.1.2/mno-hw-mul\libgcc.a(lib2-mul.o)
 .debug_frame   0x0000172c       0x20 c:/altera/10.1sp1/nios2eds/bin/gnu/h-i686-mingw32/bin/../lib/gcc/nios2-elf/4.1.2/mno-hw-mul\libgcc.a(_clzsi2.o)
 .debug_frame   0x0000174c       0x20 c:/altera/10.1sp1/nios2eds/bin/gnu/h-i686-mingw32/bin/../lib/gcc/nios2-elf/4.1.2/mno-hw-mul\libgcc.a(_pack_sf.o)
 .debug_frame   0x0000176c       0x20 c:/altera/10.1sp1/nios2eds/bin/gnu/h-i686-mingw32/bin/../lib/gcc/nios2-elf/4.1.2/mno-hw-mul\libgcc.a(_unpack_sf.o)
 .debug_frame   0x0000178c       0x20 c:/altera/10.1sp1/nios2eds/bin/gnu/h-i686-mingw32/bin/../lib/gcc/nios2-elf/4.1.2/mno-hw-mul\libgcc.a(_fpcmp_parts_sf.o)
 .debug_frame   0x000017ac       0x28 c:/altera/10.1sp1/nios2eds/bin/gnu/h-i686-mingw32/bin/../lib/gcc/nios2-elf/4.1.2/mno-hw-mul\libgcc.a(_make_sf.o)
 .debug_frame   0x000017d4       0x2c c:/altera/10.1sp1/nios2eds/bin/gnu/h-i686-mingw32/bin/../lib/gcc/nios2-elf/4.1.2/mno-hw-mul\libgcc.a(_pack_df.o)
 .debug_frame   0x00001800       0x20 c:/altera/10.1sp1/nios2eds/bin/gnu/h-i686-mingw32/bin/../lib/gcc/nios2-elf/4.1.2/mno-hw-mul\libgcc.a(_unpack_df.o)
 .debug_frame   0x00001820       0x20 c:/altera/10.1sp1/nios2eds/bin/gnu/h-i686-mingw32/bin/../lib/gcc/nios2-elf/4.1.2/mno-hw-mul\libgcc.a(_fpcmp_parts_df.o)
 .debug_frame   0x00001840       0x20 c:/altera/10.1sp1/nios2eds/bin/gnu/h-i686-mingw32/bin/../lib/gcc/nios2-elf/4.1.2/../../../../nios2-elf/lib/mno-hw-mul\libc.a(lib_a-errno.o)
 .debug_frame   0x00001860       0x40 c:/altera/10.1sp1/nios2eds/bin/gnu/h-i686-mingw32/bin/../lib/gcc/nios2-elf/4.1.2/../../../../nios2-elf/lib/mno-hw-mul\libc.a(lib_a-fprintf.o)
 .debug_frame   0x000018a0       0x48 c:/altera/10.1sp1/nios2eds/bin/gnu/h-i686-mingw32/bin/../lib/gcc/nios2-elf/4.1.2/../../../../nios2-elf/lib/mno-hw-mul\libc.a(lib_a-fwrite.o)
 .debug_frame   0x000018e8       0x48 c:/altera/10.1sp1/nios2eds/bin/gnu/h-i686-mingw32/bin/../lib/gcc/nios2-elf/4.1.2/../../../../nios2-elf/lib/mno-hw-mul\libc.a(lib_a-getc.o)
 .debug_frame   0x00001930       0x20 c:/altera/10.1sp1/nios2eds/bin/gnu/h-i686-mingw32/bin/../lib/gcc/nios2-elf/4.1.2/../../../../nios2-elf/lib/mno-hw-mul\libc.a(lib_a-malign.o)
 .debug_frame   0x00001950       0x30 c:/altera/10.1sp1/nios2eds/bin/gnu/h-i686-mingw32/bin/../lib/gcc/nios2-elf/4.1.2/../../../../nios2-elf/lib/mno-hw-mul\libc.a(lib_a-malignr.o)
 .debug_frame   0x00001980       0x30 c:/altera/10.1sp1/nios2eds/bin/gnu/h-i686-mingw32/bin/../lib/gcc/nios2-elf/4.1.2/../../../../nios2-elf/lib/mno-hw-mul\libc.a(lib_a-malloc.o)
 .debug_frame   0x000019b0       0x38 c:/altera/10.1sp1/nios2eds/bin/gnu/h-i686-mingw32/bin/../lib/gcc/nios2-elf/4.1.2/../../../../nios2-elf/lib/mno-hw-mul\libc.a(lib_a-mallocr.o)
 .debug_frame   0x000019e8       0x20 c:/altera/10.1sp1/nios2eds/bin/gnu/h-i686-mingw32/bin/../lib/gcc/nios2-elf/4.1.2/../../../../nios2-elf/lib/mno-hw-mul\libc.a(lib_a-memcpy.o)
 .debug_frame   0x00001a08       0x20 c:/altera/10.1sp1/nios2eds/bin/gnu/h-i686-mingw32/bin/../lib/gcc/nios2-elf/4.1.2/../../../../nios2-elf/lib/mno-hw-mul\libc.a(lib_a-memset.o)
 .debug_frame   0x00001a28       0x38 c:/altera/10.1sp1/nios2eds/bin/gnu/h-i686-mingw32/bin/../lib/gcc/nios2-elf/4.1.2/../../../../nios2-elf/lib/mno-hw-mul\libc.a(lib_a-perror.o)
 .debug_frame   0x00001a60       0x40 c:/altera/10.1sp1/nios2eds/bin/gnu/h-i686-mingw32/bin/../lib/gcc/nios2-elf/4.1.2/../../../../nios2-elf/lib/mno-hw-mul\libc.a(lib_a-printf.o)
 .debug_frame   0x00001aa0       0x4c c:/altera/10.1sp1/nios2eds/bin/gnu/h-i686-mingw32/bin/../lib/gcc/nios2-elf/4.1.2/../../../../nios2-elf/lib/mno-hw-mul\libc.a(lib_a-putc.o)
 .debug_frame   0x00001aec       0x30 c:/altera/10.1sp1/nios2eds/bin/gnu/h-i686-mingw32/bin/../lib/gcc/nios2-elf/4.1.2/../../../../nios2-elf/lib/mno-hw-mul\libc.a(lib_a-putchar.o)
 .debug_frame   0x00001b1c       0x3c c:/altera/10.1sp1/nios2eds/bin/gnu/h-i686-mingw32/bin/../lib/gcc/nios2-elf/4.1.2/../../../../nios2-elf/lib/mno-hw-mul\libc.a(lib_a-puts.o)
 .debug_frame   0x00001b58       0x38 c:/altera/10.1sp1/nios2eds/bin/gnu/h-i686-mingw32/bin/../lib/gcc/nios2-elf/4.1.2/../../../../nios2-elf/lib/mno-hw-mul\libc.a(lib_a-rget.o)
 .debug_frame   0x00001b90       0x2c c:/altera/10.1sp1/nios2eds/bin/gnu/h-i686-mingw32/bin/../lib/gcc/nios2-elf/4.1.2/../../../../nios2-elf/lib/mno-hw-mul\libc.a(lib_a-sbrkr.o)
 .debug_frame   0x00001bbc       0x40 c:/altera/10.1sp1/nios2eds/bin/gnu/h-i686-mingw32/bin/../lib/gcc/nios2-elf/4.1.2/../../../../nios2-elf/lib/mno-hw-mul\libc.a(lib_a-sprintf.o)
 .debug_frame   0x00001bfc       0x20 c:/altera/10.1sp1/nios2eds/bin/gnu/h-i686-mingw32/bin/../lib/gcc/nios2-elf/4.1.2/../../../../nios2-elf/lib/mno-hw-mul\libc.a(lib_a-strcpy.o)
 .debug_frame   0x00001c1c       0x28 c:/altera/10.1sp1/nios2eds/bin/gnu/h-i686-mingw32/bin/../lib/gcc/nios2-elf/4.1.2/../../../../nios2-elf/lib/mno-hw-mul\libc.a(lib_a-strerror.o)
 .debug_frame   0x00001c44       0x20 c:/altera/10.1sp1/nios2eds/bin/gnu/h-i686-mingw32/bin/../lib/gcc/nios2-elf/4.1.2/../../../../nios2-elf/lib/mno-hw-mul\libc.a(lib_a-strlen.o)
 .debug_frame   0x00001c64       0x20 c:/altera/10.1sp1/nios2eds/bin/gnu/h-i686-mingw32/bin/../lib/gcc/nios2-elf/4.1.2/../../../../nios2-elf/lib/mno-hw-mul\libc.a(lib_a-u_strerr.o)
 .debug_frame   0x00001c84       0x64 c:/altera/10.1sp1/nios2eds/bin/gnu/h-i686-mingw32/bin/../lib/gcc/nios2-elf/4.1.2/../../../../nios2-elf/lib/mno-hw-mul\libc.a(lib_a-vfprintf.o)
 .debug_frame   0x00001ce8       0x3c c:/altera/10.1sp1/nios2eds/bin/gnu/h-i686-mingw32/bin/../lib/gcc/nios2-elf/4.1.2/../../../../nios2-elf/lib/mno-hw-mul\libc.a(lib_a-wbuf.o)
 .debug_frame   0x00001d24       0x2c c:/altera/10.1sp1/nios2eds/bin/gnu/h-i686-mingw32/bin/../lib/gcc/nios2-elf/4.1.2/../../../../nios2-elf/lib/mno-hw-mul\libc.a(lib_a-wsetup.o)
 .debug_frame   0x00001d50       0x64 c:/altera/10.1sp1/nios2eds/bin/gnu/h-i686-mingw32/bin/../lib/gcc/nios2-elf/4.1.2/../../../../nios2-elf/lib/mno-hw-mul\libc.a(lib_a-dtoa.o)
 .debug_frame   0x00001db4       0x40 c:/altera/10.1sp1/nios2eds/bin/gnu/h-i686-mingw32/bin/../lib/gcc/nios2-elf/4.1.2/../../../../nios2-elf/lib/mno-hw-mul\libc.a(lib_a-fflush.o)
 .debug_frame   0x00001df4      0x118 c:/altera/10.1sp1/nios2eds/bin/gnu/h-i686-mingw32/bin/../lib/gcc/nios2-elf/4.1.2/../../../../nios2-elf/lib/mno-hw-mul\libc.a(lib_a-findfp.o)
 .debug_frame   0x00001f0c       0x4c c:/altera/10.1sp1/nios2eds/bin/gnu/h-i686-mingw32/bin/../lib/gcc/nios2-elf/4.1.2/../../../../nios2-elf/lib/mno-hw-mul\libc.a(lib_a-fputc.o)
 .debug_frame   0x00001f58       0x3c c:/altera/10.1sp1/nios2eds/bin/gnu/h-i686-mingw32/bin/../lib/gcc/nios2-elf/4.1.2/../../../../nios2-elf/lib/mno-hw-mul\libc.a(lib_a-fputs.o)
 .debug_frame   0x00001f94       0x4c c:/altera/10.1sp1/nios2eds/bin/gnu/h-i686-mingw32/bin/../lib/gcc/nios2-elf/4.1.2/../../../../nios2-elf/lib/mno-hw-mul\libc.a(lib_a-freer.o)
 .debug_frame   0x00001fe0       0x38 c:/altera/10.1sp1/nios2eds/bin/gnu/h-i686-mingw32/bin/../lib/gcc/nios2-elf/4.1.2/../../../../nios2-elf/lib/mno-hw-mul\libc.a(lib_a-fvwrite.o)
 .debug_frame   0x00002018       0x60 c:/altera/10.1sp1/nios2eds/bin/gnu/h-i686-mingw32/bin/../lib/gcc/nios2-elf/4.1.2/../../../../nios2-elf/lib/mno-hw-mul\libc.a(lib_a-fwalk.o)
 .debug_frame   0x00002078       0x70 c:/altera/10.1sp1/nios2eds/bin/gnu/h-i686-mingw32/bin/../lib/gcc/nios2-elf/4.1.2/../../../../nios2-elf/lib/mno-hw-mul\libc.a(lib_a-locale.o)
 .debug_frame   0x000020e8       0x2c c:/altera/10.1sp1/nios2eds/bin/gnu/h-i686-mingw32/bin/../lib/gcc/nios2-elf/4.1.2/../../../../nios2-elf/lib/mno-hw-mul\libc.a(lib_a-makebuf.o)
 .debug_frame   0x00002114       0x20 c:/altera/10.1sp1/nios2eds/bin/gnu/h-i686-mingw32/bin/../lib/gcc/nios2-elf/4.1.2/../../../../nios2-elf/lib/mno-hw-mul\libc.a(lib_a-memchr.o)
 .debug_frame   0x00002134       0x20 c:/altera/10.1sp1/nios2eds/bin/gnu/h-i686-mingw32/bin/../lib/gcc/nios2-elf/4.1.2/../../../../nios2-elf/lib/mno-hw-mul\libc.a(lib_a-memmove.o)
 .debug_frame   0x00002154      0x228 c:/altera/10.1sp1/nios2eds/bin/gnu/h-i686-mingw32/bin/../lib/gcc/nios2-elf/4.1.2/../../../../nios2-elf/lib/mno-hw-mul\libc.a(lib_a-mprec.o)
 .debug_frame   0x0000237c       0x38 c:/altera/10.1sp1/nios2eds/bin/gnu/h-i686-mingw32/bin/../lib/gcc/nios2-elf/4.1.2/../../../../nios2-elf/lib/mno-hw-mul\libc.a(lib_a-reallocr.o)
 .debug_frame   0x000023b4       0x3c c:/altera/10.1sp1/nios2eds/bin/gnu/h-i686-mingw32/bin/../lib/gcc/nios2-elf/4.1.2/../../../../nios2-elf/lib/mno-hw-mul\libc.a(lib_a-refill.o)
 .debug_frame   0x000023f0       0x20 c:/altera/10.1sp1/nios2eds/bin/gnu/h-i686-mingw32/bin/../lib/gcc/nios2-elf/4.1.2/../../../../nios2-elf/lib/mno-hw-mul\libc.a(lib_a-s_isinfd.o)
 .debug_frame   0x00002410       0x78 c:/altera/10.1sp1/nios2eds/bin/gnu/h-i686-mingw32/bin/../lib/gcc/nios2-elf/4.1.2/../../../../nios2-elf/lib/mno-hw-mul\libc.a(lib_a-stdio.o)
 .debug_frame   0x00002488       0x20 c:/altera/10.1sp1/nios2eds/bin/gnu/h-i686-mingw32/bin/../lib/gcc/nios2-elf/4.1.2/../../../../nios2-elf/lib/mno-hw-mul\libc.a(lib_a-strcmp.o)
 .debug_frame   0x000024a8       0x2c c:/altera/10.1sp1/nios2eds/bin/gnu/h-i686-mingw32/bin/../lib/gcc/nios2-elf/4.1.2/../../../../nios2-elf/lib/mno-hw-mul\libc.a(lib_a-writer.o)
 .debug_frame   0x000024d4       0x2c c:/altera/10.1sp1/nios2eds/bin/gnu/h-i686-mingw32/bin/../lib/gcc/nios2-elf/4.1.2/../../../../nios2-elf/lib/mno-hw-mul\libc.a(lib_a-callocr.o)
 .debug_frame   0x00002500       0x2c c:/altera/10.1sp1/nios2eds/bin/gnu/h-i686-mingw32/bin/../lib/gcc/nios2-elf/4.1.2/../../../../nios2-elf/lib/mno-hw-mul\libc.a(lib_a-closer.o)
 .debug_frame   0x0000252c       0x3c c:/altera/10.1sp1/nios2eds/bin/gnu/h-i686-mingw32/bin/../lib/gcc/nios2-elf/4.1.2/../../../../nios2-elf/lib/mno-hw-mul\libc.a(lib_a-fclose.o)
 .debug_frame   0x00002568       0x2c c:/altera/10.1sp1/nios2eds/bin/gnu/h-i686-mingw32/bin/../lib/gcc/nios2-elf/4.1.2/../../../../nios2-elf/lib/mno-hw-mul\libc.a(lib_a-fstatr.o)
 .debug_frame   0x00002594       0x2c c:/altera/10.1sp1/nios2eds/bin/gnu/h-i686-mingw32/bin/../lib/gcc/nios2-elf/4.1.2/../../../../nios2-elf/lib/mno-hw-mul\libc.a(lib_a-isattyr.o)
 .debug_frame   0x000025c0       0x2c c:/altera/10.1sp1/nios2eds/bin/gnu/h-i686-mingw32/bin/../lib/gcc/nios2-elf/4.1.2/../../../../nios2-elf/lib/mno-hw-mul\libc.a(lib_a-lseekr.o)
 .debug_frame   0x000025ec       0x2c c:/altera/10.1sp1/nios2eds/bin/gnu/h-i686-mingw32/bin/../lib/gcc/nios2-elf/4.1.2/../../../../nios2-elf/lib/mno-hw-mul\libc.a(lib_a-readr.o)
 .debug_frame   0x00002618       0x38 c:/altera/10.1sp1/nios2eds/bin/gnu/h-i686-mingw32/bin/../lib/gcc/nios2-elf/4.1.2/mno-hw-mul\libgcc.a(_udivdi3.o)
 .debug_frame   0x00002650       0x38 c:/altera/10.1sp1/nios2eds/bin/gnu/h-i686-mingw32/bin/../lib/gcc/nios2-elf/4.1.2/mno-hw-mul\libgcc.a(_umoddi3.o)
 .debug_frame   0x00002688       0x2c c:/altera/10.1sp1/nios2eds/bin/gnu/h-i686-mingw32/bin/../lib/gcc/nios2-elf/4.1.2/mno-hw-mul\libgcc.a(_ne_df.o)
 .debug_frame   0x000026b4       0x48 ../RedeFFTHW_bsp\libucosii_bsp.a(alt_fstat.o)
 .debug_frame   0x000026fc       0x48 ../RedeFFTHW_bsp\libucosii_bsp.a(alt_isatty.o)
 .debug_frame   0x00002744       0x48 ../RedeFFTHW_bsp\libucosii_bsp.a(alt_load.o)
 .debug_frame   0x0000278c       0x48 ../RedeFFTHW_bsp\libucosii_bsp.a(alt_lseek.o)
 .debug_frame   0x000027d4       0x2c ../RedeFFTHW_bsp\libucosii_bsp.a(alt_main.o)
 .debug_frame   0x00002800       0x2c ../RedeFFTHW_bsp\libucosii_bsp.a(alt_remap_cached.o)
 .debug_frame   0x0000282c       0x2c ../RedeFFTHW_bsp\libucosii_bsp.a(alt_remap_uncached.o)
 .debug_frame   0x00002858       0x2c ../RedeFFTHW_bsp\libucosii_bsp.a(alt_sbrk.o)
 .debug_frame   0x00002884       0x48 ../RedeFFTHW_bsp\libucosii_bsp.a(alt_tick.o)
 .debug_frame   0x000028cc       0x2c ../RedeFFTHW_bsp\libucosii_bsp.a(alt_uncached_malloc.o)
 .debug_frame   0x000028f8       0x30 ../RedeFFTHW_bsp\libucosii_bsp.a(alt_usleep.o)
 .debug_frame   0x00002928       0x4c ../RedeFFTHW_bsp\libucosii_bsp.a(alt_env_lock.o)
 .debug_frame   0x00002974       0x4c ../RedeFFTHW_bsp\libucosii_bsp.a(alt_malloc_lock.o)
 .debug_frame   0x000029c0      0x3e4 ../RedeFFTHW_bsp\libucosii_bsp.a(os_core.o)
 .debug_frame   0x00002da4       0x2c ../RedeFFTHW_bsp\libucosii_bsp.a(os_dbg.o)
 .debug_frame   0x00002dd0      0x180 ../RedeFFTHW_bsp\libucosii_bsp.a(os_flag.o)
 .debug_frame   0x00002f50       0xd4 ../RedeFFTHW_bsp\libucosii_bsp.a(os_mem.o)
 .debug_frame   0x00003024      0x144 ../RedeFFTHW_bsp\libucosii_bsp.a(os_q.o)
 .debug_frame   0x00003168       0xf0 ../RedeFFTHW_bsp\libucosii_bsp.a(os_sem.o)
 .debug_frame   0x00003258      0x160 ../RedeFFTHW_bsp\libucosii_bsp.a(os_task.o)
 .debug_frame   0x000033b8       0xa0 ../RedeFFTHW_bsp\libucosii_bsp.a(os_time.o)
 .debug_frame   0x00003458       0x6c ../RedeFFTHW_bsp\libucosii_bsp.a(alt_sys_init.o)
 .debug_frame   0x000034c4       0x80 ../RedeFFTHW_bsp\libucosii_bsp.a(altera_avalon_jtag_uart_fd.o)
 .debug_frame   0x00003544       0x80 ../RedeFFTHW_bsp\libucosii_bsp.a(altera_avalon_jtag_uart_init.o)
 .debug_frame   0x000035c4       0x2c ../RedeFFTHW_bsp\libucosii_bsp.a(altera_avalon_jtag_uart_ioctl.o)
 .debug_frame   0x000035f0       0x2c ../RedeFFTHW_bsp\libucosii_bsp.a(altera_avalon_jtag_uart_read.o)
 .debug_frame   0x0000361c       0x2c ../RedeFFTHW_bsp\libucosii_bsp.a(altera_avalon_jtag_uart_write.o)
 .debug_frame   0x00003648      0x208 ../RedeFFTHW_bsp\libucosii_bsp.a(altera_avalon_sgdma.o)
 .debug_frame   0x00003850       0x48 ../RedeFFTHW_bsp\libucosii_bsp.a(altera_avalon_timer_sc.o)
 .debug_frame   0x00003898      0x128 ../RedeFFTHW_bsp\libucosii_bsp.a(ins_tse_mac.o)
 .debug_frame   0x000039c0       0x34 ../RedeFFTHW_bsp\libucosii_bsp.a(perf_print_formatted_report.o)
 .debug_frame   0x000039f4       0x2c ../RedeFFTHW_bsp\libucosii_bsp.a(alt_iniche_close.o)
 .debug_frame   0x00003a20       0x2c ../RedeFFTHW_bsp\libucosii_bsp.a(alt_iniche_dev.o)
 .debug_frame   0x00003a4c       0x2c ../RedeFFTHW_bsp\libucosii_bsp.a(alt_iniche_read.o)
 .debug_frame   0x00003a78       0x2c ../RedeFFTHW_bsp\libucosii_bsp.a(alt_iniche_write.o)
 .debug_frame   0x00003aa4       0xb8 ../RedeFFTHW_bsp\libucosii_bsp.a(ipnet.o)
 .debug_frame   0x00003b5c       0x84 ../RedeFFTHW_bsp\libucosii_bsp.a(ipstart.o)
 .debug_frame   0x00003be0       0xf4 ../RedeFFTHW_bsp\libucosii_bsp.a(igmp_cmn.o)
 .debug_frame   0x00003cd4      0x128 ../RedeFFTHW_bsp\libucosii_bsp.a(bsdsock.o)
 .debug_frame   0x00003dfc       0x48 ../RedeFFTHW_bsp\libucosii_bsp.a(cksum.o)
 .debug_frame   0x00003e44      0x164 ../RedeFFTHW_bsp\libucosii_bsp.a(in_utils.o)
 .debug_frame   0x00003fa8       0x64 ../RedeFFTHW_bsp\libucosii_bsp.a(netmain.o)
 .debug_frame   0x0000400c       0xdc ../RedeFFTHW_bsp\libucosii_bsp.a(tk_crnos.o)
 .debug_frame   0x000040e8      0x28c ../RedeFFTHW_bsp\libucosii_bsp.a(dhcpclnt.o)
 .debug_frame   0x00004374       0x2c ../RedeFFTHW_bsp\libucosii_bsp.a(dhcputil.o)
 .debug_frame   0x000043a0       0xb8 ../RedeFFTHW_bsp\libucosii_bsp.a(pktalloc.o)
 .debug_frame   0x00004458       0x64 ../RedeFFTHW_bsp\libucosii_bsp.a(q.o)
 .debug_frame   0x000044bc       0x48 ../RedeFFTHW_bsp\libucosii_bsp.a(udp_open.o)
 .debug_frame   0x00004504       0xf0 ../RedeFFTHW_bsp\libucosii_bsp.a(brdutils.o)
 .debug_frame   0x000045f4       0x9c ../RedeFFTHW_bsp\libucosii_bsp.a(osportco.o)
 .debug_frame   0x00004690      0x114 ../RedeFFTHW_bsp\libucosii_bsp.a(targnios.o)
 .debug_frame   0x000047a4      0x208 ../RedeFFTHW_bsp\libucosii_bsp.a(nptcp.o)
 .debug_frame   0x000049ac       0x68 ../RedeFFTHW_bsp\libucosii_bsp.a(rawsock.o)
 .debug_frame   0x00004a14      0x224 ../RedeFFTHW_bsp\libucosii_bsp.a(sockcall.o)
 .debug_frame   0x00004c38      0x1d0 ../RedeFFTHW_bsp\libucosii_bsp.a(socket.o)
 .debug_frame   0x00004e08      0x294 ../RedeFFTHW_bsp\libucosii_bsp.a(socket2.o)
 .debug_frame   0x0000509c      0x110 ../RedeFFTHW_bsp\libucosii_bsp.a(soselect.o)
 .debug_frame   0x000051ac       0xd8 ../RedeFFTHW_bsp\libucosii_bsp.a(tcp_in.o)
 .debug_frame   0x00005284       0x68 ../RedeFFTHW_bsp\libucosii_bsp.a(tcp_out.o)
 .debug_frame   0x000052ec      0x10c ../RedeFFTHW_bsp\libucosii_bsp.a(tcp_subr.o)
 .debug_frame   0x000053f8       0x64 ../RedeFFTHW_bsp\libucosii_bsp.a(tcp_timr.o)
 .debug_frame   0x0000545c       0x80 ../RedeFFTHW_bsp\libucosii_bsp.a(tcp_usr.o)
 .debug_frame   0x000054dc       0x2c ../RedeFFTHW_bsp\libucosii_bsp.a(tcpport.o)
 .debug_frame   0x00005508       0xbc ../RedeFFTHW_bsp\libucosii_bsp.a(udpsock.o)
 .debug_frame   0x000055c4       0x2c ../RedeFFTHW_bsp\libucosii_bsp.a(alt_alarm_start.o)
 .debug_frame   0x000055f0       0x2c ../RedeFFTHW_bsp\libucosii_bsp.a(alt_busy_sleep.o)
 .debug_frame   0x0000561c       0x48 ../RedeFFTHW_bsp\libucosii_bsp.a(alt_close.o)
 .debug_frame   0x00005664       0x2c ../RedeFFTHW_bsp\libucosii_bsp.a(alt_dcache_flush.o)
 .debug_frame   0x00005690       0x2c ../RedeFFTHW_bsp\libucosii_bsp.a(alt_dcache_flush_all.o)
 .debug_frame   0x000056bc       0x2c ../RedeFFTHW_bsp\libucosii_bsp.a(alt_dev.o)
 .debug_frame   0x000056e8       0x48 ../RedeFFTHW_bsp\libucosii_bsp.a(alt_dev_llist_insert.o)
 .debug_frame   0x00005730       0x2c ../RedeFFTHW_bsp\libucosii_bsp.a(alt_do_ctors.o)
 .debug_frame   0x0000575c       0x2c ../RedeFFTHW_bsp\libucosii_bsp.a(alt_do_dtors.o)
 .debug_frame   0x00005788       0x2c ../RedeFFTHW_bsp\libucosii_bsp.a(alt_find_dev.o)
 .debug_frame   0x000057b4       0x2c ../RedeFFTHW_bsp\libucosii_bsp.a(alt_icache_flush_all.o)
 .debug_frame   0x000057e0       0x80 ../RedeFFTHW_bsp\libucosii_bsp.a(alt_iic.o)
 .debug_frame   0x00005860       0x2c ../RedeFFTHW_bsp\libucosii_bsp.a(alt_iic_isr_register.o)
 .debug_frame   0x0000588c       0x4c ../RedeFFTHW_bsp\libucosii_bsp.a(alt_io_redirect.o)
 .debug_frame   0x000058d8       0x2c ../RedeFFTHW_bsp\libucosii_bsp.a(alt_irq_handler.o)
 .debug_frame   0x00005904       0x68 ../RedeFFTHW_bsp\libucosii_bsp.a(alt_open.o)
 .debug_frame   0x0000596c       0x48 ../RedeFFTHW_bsp\libucosii_bsp.a(alt_read.o)
 .debug_frame   0x000059b4       0x30 ../RedeFFTHW_bsp\libucosii_bsp.a(alt_release_fd.o)
 .debug_frame   0x000059e4       0x48 ../RedeFFTHW_bsp\libucosii_bsp.a(alt_write.o)
 .debug_frame   0x00005a2c       0x2c ../RedeFFTHW_bsp\libucosii_bsp.a(altera_nios2_irq.o)
 .debug_frame   0x00005a58      0x128 ../RedeFFTHW_bsp\libucosii_bsp.a(os_cpu_c.o)
 .debug_frame   0x00005b80       0x9c ../RedeFFTHW_bsp\libucosii_bsp.a(altera_avalon_performance_counter.o)
 .debug_frame   0x00005c1c      0x4e0 ../RedeFFTHW_bsp\libucosii_bsp.a(altera_avalon_tse.o)
 .debug_frame   0x000060fc       0xe0 ../RedeFFTHW_bsp\libucosii_bsp.a(allports.o)
 .debug_frame   0x000061dc       0x94 ../RedeFFTHW_bsp\libucosii_bsp.a(timeouts.o)
 .debug_frame   0x00006270       0x48 ../RedeFFTHW_bsp\libucosii_bsp.a(tk_misc.o)
 .debug_frame   0x000062b8       0x2c ../RedeFFTHW_bsp\libucosii_bsp.a(alt_iniche_fcntl.o)
 .debug_frame   0x000062e4      0x160 ../RedeFFTHW_bsp\libucosii_bsp.a(et_arp.o)
 .debug_frame   0x00006444       0x80 ../RedeFFTHW_bsp\libucosii_bsp.a(iface.o)
 .debug_frame   0x000064c4      0x168 ../RedeFFTHW_bsp\libucosii_bsp.a(ip.o)
 .debug_frame   0x0000662c      0x1d4 ../RedeFFTHW_bsp\libucosii_bsp.a(ip_reasm.o)
 .debug_frame   0x00006800       0x68 ../RedeFFTHW_bsp\libucosii_bsp.a(ipdemux.o)
 .debug_frame   0x00006868       0x64 ../RedeFFTHW_bsp\libucosii_bsp.a(ipmc.o)
 .debug_frame   0x000068cc       0x64 ../RedeFFTHW_bsp\libucosii_bsp.a(ipport.o)
 .debug_frame   0x00006930       0xb8 ../RedeFFTHW_bsp\libucosii_bsp.a(ipraw.o)
 .debug_frame   0x000069e8       0x64 ../RedeFFTHW_bsp\libucosii_bsp.a(iproute.o)
 .debug_frame   0x00006a4c       0xd4 ../RedeFFTHW_bsp\libucosii_bsp.a(udp.o)
 .debug_frame   0x00006b20       0x2c ../RedeFFTHW_bsp\libucosii_bsp.a(igmp.o)
 .debug_frame   0x00006b4c       0x9c ../RedeFFTHW_bsp\libucosii_bsp.a(igmp2.o)
 .debug_frame   0x00006be8       0x84 ../RedeFFTHW_bsp\libucosii_bsp.a(ipopt.o)
 .debug_frame   0x00006c6c       0x4c ../RedeFFTHW_bsp\libucosii_bsp.a(u_mctest.o)
 .debug_frame   0x00006cb8       0x4c ../RedeFFTHW_bsp\libucosii_bsp.a(dhcsetup.o)
 .debug_frame   0x00006d04      0x110 ../RedeFFTHW_bsp\libucosii_bsp.a(memdev.o)
 .debug_frame   0x00006e14      0x10c ../RedeFFTHW_bsp\libucosii_bsp.a(parseip.o)
 .debug_frame   0x00006f20       0x2c ../RedeFFTHW_bsp\libucosii_bsp.a(tcpcksum.o)
 .debug_frame   0x00006f4c       0xf0 ../RedeFFTHW_bsp\libucosii_bsp.a(in_pcb.o)
 .debug_frame   0x0000703c      0x320 ../RedeFFTHW_bsp\libucosii_bsp.a(vfsfiles.o)
 .debug_frame   0x0000735c       0x2c ../RedeFFTHW_bsp\libucosii_bsp.a(vfsport.o)
 .debug_frame   0x00007388       0x48 ../RedeFFTHW_bsp\libucosii_bsp.a(alt_fcntl.o)
 .debug_frame   0x000073d0       0x2c ../RedeFFTHW_bsp\libucosii_bsp.a(alt_find_file.o)
 .debug_frame   0x000073fc       0x30 ../RedeFFTHW_bsp\libucosii_bsp.a(alt_get_fd.o)
 .debug_frame   0x0000742c       0x84 ../RedeFFTHW_bsp\libucosii_bsp.a(icmp.o)
 .debug_frame   0x000074b0       0x20 c:/altera/10.1sp1/nios2eds/bin/gnu/h-i686-mingw32/bin/../lib/gcc/nios2-elf/4.1.2/../../../../nios2-elf/lib/mno-hw-mul\libc.a(lib_a-atexit.o)
 .debug_frame   0x000074d0       0x30 c:/altera/10.1sp1/nios2eds/bin/gnu/h-i686-mingw32/bin/../lib/gcc/nios2-elf/4.1.2/../../../../nios2-elf/lib/mno-hw-mul\libc.a(lib_a-atoi.o)
 .debug_frame   0x00007500       0x20 c:/altera/10.1sp1/nios2eds/bin/gnu/h-i686-mingw32/bin/../lib/gcc/nios2-elf/4.1.2/../../../../nios2-elf/lib/mno-hw-mul\libc.a(lib_a-calloc.o)
 .debug_frame   0x00007520       0x28 c:/altera/10.1sp1/nios2eds/bin/gnu/h-i686-mingw32/bin/../lib/gcc/nios2-elf/4.1.2/../../../../nios2-elf/lib/mno-hw-mul\libc.a(lib_a-exit.o)
 .debug_frame   0x00007548       0x20 c:/altera/10.1sp1/nios2eds/bin/gnu/h-i686-mingw32/bin/../lib/gcc/nios2-elf/4.1.2/../../../../nios2-elf/lib/mno-hw-mul\libc.a(lib_a-memcmp.o)
 .debug_frame   0x00007568       0x20 c:/altera/10.1sp1/nios2eds/bin/gnu/h-i686-mingw32/bin/../lib/gcc/nios2-elf/4.1.2/../../../../nios2-elf/lib/mno-hw-mul\libc.a(lib_a-strchr.o)
 .debug_frame   0x00007588       0x20 c:/altera/10.1sp1/nios2eds/bin/gnu/h-i686-mingw32/bin/../lib/gcc/nios2-elf/4.1.2/../../../../nios2-elf/lib/mno-hw-mul\libc.a(lib_a-strncmp.o)
 .debug_frame   0x000075a8       0x20 c:/altera/10.1sp1/nios2eds/bin/gnu/h-i686-mingw32/bin/../lib/gcc/nios2-elf/4.1.2/../../../../nios2-elf/lib/mno-hw-mul\libc.a(lib_a-strncpy.o)
 .debug_frame   0x000075c8       0x4c c:/altera/10.1sp1/nios2eds/bin/gnu/h-i686-mingw32/bin/../lib/gcc/nios2-elf/4.1.2/../../../../nios2-elf/lib/mno-hw-mul\libc.a(lib_a-strtol.o)
 .debug_frame   0x00007614       0x30 c:/altera/10.1sp1/nios2eds/bin/gnu/h-i686-mingw32/bin/../lib/gcc/nios2-elf/4.1.2/../../../../nios2-elf/lib/mno-hw-mul\libc.a(lib_a-vprintf.o)
 .debug_frame   0x00007644       0x38 c:/altera/10.1sp1/nios2eds/bin/gnu/h-i686-mingw32/bin/../lib/gcc/nios2-elf/4.1.2/../../../../nios2-elf/lib/mno-hw-mul\libc.a(lib_a-vsprintf.o)
 .debug_frame   0x0000767c       0x34 c:/altera/10.1sp1/nios2eds/bin/gnu/h-i686-mingw32/bin/../lib/gcc/nios2-elf/4.1.2/../../../../nios2-elf/lib/mno-hw-mul\libc.a(lib_a-__atexit.o)
 .debug_frame   0x000076b0       0x4c c:/altera/10.1sp1/nios2eds/bin/gnu/h-i686-mingw32/bin/../lib/gcc/nios2-elf/4.1.2/../../../../nios2-elf/lib/mno-hw-mul\libc.a(lib_a-__call_atexit.o)
 .debug_frame   0x000076fc       0x30 c:/altera/10.1sp1/nios2eds/bin/gnu/h-i686-mingw32/bin/../lib/gcc/nios2-elf/4.1.2/mno-hw-mul\libgcc.a(_floatundidf.o)
 .debug_frame   0x0000772c       0x48 ../RedeFFTHW_bsp\libucosii_bsp.a(alt_exit.o)

.debug_str      0x00000000     0x4839
 *(.debug_str)
 .debug_str     0x00000000      0x122 obj/AquisicaoRede.o
 .debug_str     0x00000122      0x25d obj/DanWindow/DanWindow.o
 .debug_str     0x0000037f       0x49 obj/FFT/simpleDFT.o
 .debug_str     0x000003c8      0x11f obj/LCDTask.o
 .debug_str     0x000004e7      0x111 obj/TerminalSerial.o
 .debug_str     0x000005f8       0x4e obj/alt_error_handler.o
 .debug_str     0x00000646       0x32 obj/alt_tpo_lcd/alt_tpo_lcd.o
 .debug_str     0x00000678       0xad obj/alt_video_display/alt_video_display.o
 .debug_str     0x00000725        0x9 obj/fixedpoint2_16.o
 .debug_str     0x0000072e      0x12b obj/graphics_lib/simple_graphics.o
 .debug_str     0x00000859       0x1d obj/iniche_init.o
 .debug_str     0x00000876       0x52 obj/network_utilities.o
 .debug_str     0x000008c8       0x48 obj/simple_socket_server.o
 .debug_str     0x00000910      0x12f c:/altera/10.1sp1/nios2eds/bin/gnu/h-i686-mingw32/bin/../lib/gcc/nios2-elf/4.1.2/../../../../nios2-elf/lib/mno-hw-mul\libm.a(lib_a-s_cos.o)
                                0x175 (size before relaxing)
 .debug_str     0x00000a3f       0x3b c:/altera/10.1sp1/nios2eds/bin/gnu/h-i686-mingw32/bin/../lib/gcc/nios2-elf/4.1.2/../../../../nios2-elf/lib/mno-hw-mul\libm.a(lib_a-s_sin.o)
                                0x175 (size before relaxing)
 .debug_str     0x00000a7a       0xb7 c:/altera/10.1sp1/nios2eds/bin/gnu/h-i686-mingw32/bin/../lib/gcc/nios2-elf/4.1.2/../../../../nios2-elf/lib/mno-hw-mul\libm.a(lib_a-w_sqrt.o)
                                0x1f1 (size before relaxing)
 .debug_str     0x00000b31       0x3d c:/altera/10.1sp1/nios2eds/bin/gnu/h-i686-mingw32/bin/../lib/gcc/nios2-elf/4.1.2/../../../../nios2-elf/lib/mno-hw-mul\libm.a(lib_a-wf_sqrt.o)
                                0x1f3 (size before relaxing)
 .debug_str     0x00000b6e       0xd9 c:/altera/10.1sp1/nios2eds/bin/gnu/h-i686-mingw32/bin/../lib/gcc/nios2-elf/4.1.2/../../../../nios2-elf/lib/mno-hw-mul\libm.a(lib_a-e_rem_pio2.o)
                                0x224 (size before relaxing)
 .debug_str     0x00000c47       0x5a c:/altera/10.1sp1/nios2eds/bin/gnu/h-i686-mingw32/bin/../lib/gcc/nios2-elf/4.1.2/../../../../nios2-elf/lib/mno-hw-mul\libm.a(lib_a-e_sqrt.o)
                                0x1c7 (size before relaxing)
 .debug_str     0x00000ca1       0x72 c:/altera/10.1sp1/nios2eds/bin/gnu/h-i686-mingw32/bin/../lib/gcc/nios2-elf/4.1.2/../../../../nios2-elf/lib/mno-hw-mul\libm.a(lib_a-ef_sqrt.o)
                                0x1c7 (size before relaxing)
 .debug_str     0x00000d13       0x48 c:/altera/10.1sp1/nios2eds/bin/gnu/h-i686-mingw32/bin/../lib/gcc/nios2-elf/4.1.2/../../../../nios2-elf/lib/mno-hw-mul\libm.a(lib_a-k_cos.o)
                                0x1b5 (size before relaxing)
 .debug_str     0x00000d5b       0x7c c:/altera/10.1sp1/nios2eds/bin/gnu/h-i686-mingw32/bin/../lib/gcc/nios2-elf/4.1.2/../../../../nios2-elf/lib/mno-hw-mul\libm.a(lib_a-k_rem_pio2.o)
                                0x1c6 (size before relaxing)
 .debug_str     0x00000dd7       0x48 c:/altera/10.1sp1/nios2eds/bin/gnu/h-i686-mingw32/bin/../lib/gcc/nios2-elf/4.1.2/../../../../nios2-elf/lib/mno-hw-mul\libm.a(lib_a-k_sin.o)
                                0x187 (size before relaxing)
 .debug_str     0x00000e1f       0x41 c:/altera/10.1sp1/nios2eds/bin/gnu/h-i686-mingw32/bin/../lib/gcc/nios2-elf/4.1.2/../../../../nios2-elf/lib/mno-hw-mul\libm.a(lib_a-s_fabs.o)
                                0x1a9 (size before relaxing)
 .debug_str     0x00000e60       0x48 c:/altera/10.1sp1/nios2eds/bin/gnu/h-i686-mingw32/bin/../lib/gcc/nios2-elf/4.1.2/../../../../nios2-elf/lib/mno-hw-mul\libm.a(lib_a-s_floor.o)
                                0x1ba (size before relaxing)
 .debug_str     0x00000ea8       0xcd c:/altera/10.1sp1/nios2eds/bin/gnu/h-i686-mingw32/bin/../lib/gcc/nios2-elf/4.1.2/../../../../nios2-elf/lib/mno-hw-mul\libm.a(lib_a-s_isnand.o)
                                0x185 (size before relaxing)
 .debug_str     0x00000f75       0x41 c:/altera/10.1sp1/nios2eds/bin/gnu/h-i686-mingw32/bin/../lib/gcc/nios2-elf/4.1.2/../../../../nios2-elf/lib/mno-hw-mul\libm.a(lib_a-s_lib_ver.o)
                                0x1ce (size before relaxing)
 .debug_str     0x00000fb6       0x49 c:/altera/10.1sp1/nios2eds/bin/gnu/h-i686-mingw32/bin/../lib/gcc/nios2-elf/4.1.2/../../../../nios2-elf/lib/mno-hw-mul\libm.a(lib_a-s_matherr.o)
                                0x1a0 (size before relaxing)
 .debug_str     0x00000fff       0x54 c:/altera/10.1sp1/nios2eds/bin/gnu/h-i686-mingw32/bin/../lib/gcc/nios2-elf/4.1.2/../../../../nios2-elf/lib/mno-hw-mul\libm.a(lib_a-s_scalbn.o)
                                0x1d7 (size before relaxing)
 .debug_str     0x00001053       0x47 c:/altera/10.1sp1/nios2eds/bin/gnu/h-i686-mingw32/bin/../lib/gcc/nios2-elf/4.1.2/../../../../nios2-elf/lib/mno-hw-mul\libm.a(lib_a-sf_isnan.o)
                                0x1b4 (size before relaxing)
 .debug_str     0x0000109a       0x4b c:/altera/10.1sp1/nios2eds/bin/gnu/h-i686-mingw32/bin/../lib/gcc/nios2-elf/4.1.2/../../../../nios2-elf/lib/mno-hw-mul\libm.a(lib_a-s_copysign.o)
                                0x1b0 (size before relaxing)
 .debug_str     0x000010e5       0xe4 c:/altera/10.1sp1/nios2eds/bin/gnu/h-i686-mingw32/bin/../lib/gcc/nios2-elf/4.1.2/mno-hw-mul\libgcc.a(_muldi3.o)
                                0x199 (size before relaxing)
 .debug_str     0x000011c9      0x139 c:/altera/10.1sp1/nios2eds/bin/gnu/h-i686-mingw32/bin/../lib/gcc/nios2-elf/4.1.2/mno-hw-mul\libgcc.a(_addsub_sf.o)
                                0x256 (size before relaxing)
 .debug_str     0x00001302       0x25 c:/altera/10.1sp1/nios2eds/bin/gnu/h-i686-mingw32/bin/../lib/gcc/nios2-elf/4.1.2/mno-hw-mul\libgcc.a(_mul_sf.o)
                                0x20d (size before relaxing)
 .debug_str     0x00001327       0x35 c:/altera/10.1sp1/nios2eds/bin/gnu/h-i686-mingw32/bin/../lib/gcc/nios2-elf/4.1.2/mno-hw-mul\libgcc.a(_div_sf.o)
                                0x218 (size before relaxing)
 .debug_str     0x0000135c        0x8 c:/altera/10.1sp1/nios2eds/bin/gnu/h-i686-mingw32/bin/../lib/gcc/nios2-elf/4.1.2/mno-hw-mul\libgcc.a(_ge_sf.o)
                                0x1e5 (size before relaxing)
 .debug_str     0x00001364        0x8 c:/altera/10.1sp1/nios2eds/bin/gnu/h-i686-mingw32/bin/../lib/gcc/nios2-elf/4.1.2/mno-hw-mul\libgcc.a(_lt_sf.o)
                                0x1e5 (size before relaxing)
 .debug_str     0x0000136c       0x18 c:/altera/10.1sp1/nios2eds/bin/gnu/h-i686-mingw32/bin/../lib/gcc/nios2-elf/4.1.2/mno-hw-mul\libgcc.a(_si_to_sf.o)
                                0x1cb (size before relaxing)
 .debug_str     0x00001384        0xa c:/altera/10.1sp1/nios2eds/bin/gnu/h-i686-mingw32/bin/../lib/gcc/nios2-elf/4.1.2/mno-hw-mul\libgcc.a(_sf_to_si.o)
                                0x1ee (size before relaxing)
 .debug_str     0x0000138e       0x15 c:/altera/10.1sp1/nios2eds/bin/gnu/h-i686-mingw32/bin/../lib/gcc/nios2-elf/4.1.2/mno-hw-mul\libgcc.a(_sf_to_df.o)
                                0x1df (size before relaxing)
 .debug_str     0x00000000      0x190 c:/altera/10.1sp1/nios2eds/bin/gnu/h-i686-mingw32/bin/../lib/gcc/nios2-elf/4.1.2/mno-hw-mul\libgcc.a(_thenan_sf.o)
 .debug_str     0x000013a3       0x2d c:/altera/10.1sp1/nios2eds/bin/gnu/h-i686-mingw32/bin/../lib/gcc/nios2-elf/4.1.2/mno-hw-mul\libgcc.a(_addsub_df.o)
                                0x25c (size before relaxing)
 .debug_str     0x000013d0       0x33 c:/altera/10.1sp1/nios2eds/bin/gnu/h-i686-mingw32/bin/../lib/gcc/nios2-elf/4.1.2/mno-hw-mul\libgcc.a(_mul_df.o)
                                0x22e (size before relaxing)
 .debug_str     0x00001403        0x9 c:/altera/10.1sp1/nios2eds/bin/gnu/h-i686-mingw32/bin/../lib/gcc/nios2-elf/4.1.2/mno-hw-mul\libgcc.a(_div_df.o)
                                0x21e (size before relaxing)
 .debug_str     0x0000140c        0x8 c:/altera/10.1sp1/nios2eds/bin/gnu/h-i686-mingw32/bin/../lib/gcc/nios2-elf/4.1.2/mno-hw-mul\libgcc.a(_eq_df.o)
                                0x1eb (size before relaxing)
 .debug_str     0x00001414        0x8 c:/altera/10.1sp1/nios2eds/bin/gnu/h-i686-mingw32/bin/../lib/gcc/nios2-elf/4.1.2/mno-hw-mul\libgcc.a(_gt_df.o)
                                0x1eb (size before relaxing)
 .debug_str     0x0000141c        0x8 c:/altera/10.1sp1/nios2eds/bin/gnu/h-i686-mingw32/bin/../lib/gcc/nios2-elf/4.1.2/mno-hw-mul\libgcc.a(_ge_df.o)
                                0x1eb (size before relaxing)
 .debug_str     0x00001424        0x8 c:/altera/10.1sp1/nios2eds/bin/gnu/h-i686-mingw32/bin/../lib/gcc/nios2-elf/4.1.2/mno-hw-mul\libgcc.a(_lt_df.o)
                                0x1eb (size before relaxing)
 .debug_str     0x0000142c        0xc c:/altera/10.1sp1/nios2eds/bin/gnu/h-i686-mingw32/bin/../lib/gcc/nios2-elf/4.1.2/mno-hw-mul\libgcc.a(_si_to_df.o)
                                0x1cb (size before relaxing)
 .debug_str     0x00001438        0xa c:/altera/10.1sp1/nios2eds/bin/gnu/h-i686-mingw32/bin/../lib/gcc/nios2-elf/4.1.2/mno-hw-mul\libgcc.a(_df_to_si.o)
                                0x1f4 (size before relaxing)
 .debug_str     0x00001442        0xa c:/altera/10.1sp1/nios2eds/bin/gnu/h-i686-mingw32/bin/../lib/gcc/nios2-elf/4.1.2/mno-hw-mul\libgcc.a(_make_df.o)
                                0x1a6 (size before relaxing)
 .debug_str     0x0000144c       0x14 c:/altera/10.1sp1/nios2eds/bin/gnu/h-i686-mingw32/bin/../lib/gcc/nios2-elf/4.1.2/mno-hw-mul\libgcc.a(_df_to_sf.o)
                                0x1eb (size before relaxing)
 .debug_str     0x00000000      0x190 c:/altera/10.1sp1/nios2eds/bin/gnu/h-i686-mingw32/bin/../lib/gcc/nios2-elf/4.1.2/mno-hw-mul\libgcc.a(_thenan_df.o)
 .debug_str     0x00001460       0x14 c:/altera/10.1sp1/nios2eds/bin/gnu/h-i686-mingw32/bin/../lib/gcc/nios2-elf/4.1.2/mno-hw-mul\libgcc.a(_usi_to_df.o)
                                0x1c7 (size before relaxing)
 .debug_str     0x00001474       0x76 c:/altera/10.1sp1/nios2eds/bin/gnu/h-i686-mingw32/bin/../lib/gcc/nios2-elf/4.1.2/mno-hw-mul\libgcc.a(lib2-divmod.o)
                                0x1a1 (size before relaxing)
 .debug_str     0x000014ea       0x37 c:/altera/10.1sp1/nios2eds/bin/gnu/h-i686-mingw32/bin/../lib/gcc/nios2-elf/4.1.2/mno-hw-mul\libgcc.a(lib2-mul.o)
                                0x162 (size before relaxing)
 .debug_str     0x00001521       0x20 c:/altera/10.1sp1/nios2eds/bin/gnu/h-i686-mingw32/bin/../lib/gcc/nios2-elf/4.1.2/mno-hw-mul\libgcc.a(_clzsi2.o)
                                0x16b (size before relaxing)
 .debug_str     0x00001541       0x10 c:/altera/10.1sp1/nios2eds/bin/gnu/h-i686-mingw32/bin/../lib/gcc/nios2-elf/4.1.2/mno-hw-mul\libgcc.a(_pack_sf.o)
                                0x1ed (size before relaxing)
 .debug_str     0x00001551        0xb c:/altera/10.1sp1/nios2eds/bin/gnu/h-i686-mingw32/bin/../lib/gcc/nios2-elf/4.1.2/mno-hw-mul\libgcc.a(_unpack_sf.o)
                                0x1cf (size before relaxing)
 .debug_str     0x0000155c       0x10 c:/altera/10.1sp1/nios2eds/bin/gnu/h-i686-mingw32/bin/../lib/gcc/nios2-elf/4.1.2/mno-hw-mul\libgcc.a(_fpcmp_parts_sf.o)
                                0x1b3 (size before relaxing)
 .debug_str     0x0000156c        0xa c:/altera/10.1sp1/nios2eds/bin/gnu/h-i686-mingw32/bin/../lib/gcc/nios2-elf/4.1.2/mno-hw-mul\libgcc.a(_make_sf.o)
                                0x1a6 (size before relaxing)
 .debug_str     0x00001576        0x9 c:/altera/10.1sp1/nios2eds/bin/gnu/h-i686-mingw32/bin/../lib/gcc/nios2-elf/4.1.2/mno-hw-mul\libgcc.a(_pack_df.o)
                                0x1f3 (size before relaxing)
 .debug_str     0x0000157f        0xb c:/altera/10.1sp1/nios2eds/bin/gnu/h-i686-mingw32/bin/../lib/gcc/nios2-elf/4.1.2/mno-hw-mul\libgcc.a(_unpack_df.o)
                                0x1d5 (size before relaxing)
 .debug_str     0x0000158a       0x10 c:/altera/10.1sp1/nios2eds/bin/gnu/h-i686-mingw32/bin/../lib/gcc/nios2-elf/4.1.2/mno-hw-mul\libgcc.a(_fpcmp_parts_df.o)
                                0x1b3 (size before relaxing)
 .debug_str     0x00000000      0x14e c:/altera/10.1sp1/nios2eds/bin/gnu/h-i686-mingw32/bin/../lib/gcc/nios2-elf/4.1.2/mno-hw-mul\libgcc.a(_clz.o)
 .debug_str     0x0000159a       0xdd c:/altera/10.1sp1/nios2eds/bin/gnu/h-i686-mingw32/bin/../lib/gcc/nios2-elf/4.1.2/../../../../nios2-elf/lib/mno-hw-mul\libc.a(lib_a-ctype_.o)
                                0x100 (size before relaxing)
 .debug_str     0x00001677      0x421 c:/altera/10.1sp1/nios2eds/bin/gnu/h-i686-mingw32/bin/../lib/gcc/nios2-elf/4.1.2/../../../../nios2-elf/lib/mno-hw-mul\libc.a(lib_a-errno.o)
                                0x4fd (size before relaxing)
 .debug_str     0x00001a98       0xe3 c:/altera/10.1sp1/nios2eds/bin/gnu/h-i686-mingw32/bin/../lib/gcc/nios2-elf/4.1.2/../../../../nios2-elf/lib/mno-hw-mul\libc.a(lib_a-fprintf.o)
                                0x51a (size before relaxing)
 .debug_str     0x00001b7b       0x8a c:/altera/10.1sp1/nios2eds/bin/gnu/h-i686-mingw32/bin/../lib/gcc/nios2-elf/4.1.2/../../../../nios2-elf/lib/mno-hw-mul\libc.a(lib_a-fwrite.o)
                                0x55a (size before relaxing)
 .debug_str     0x00001c05       0x48 c:/altera/10.1sp1/nios2eds/bin/gnu/h-i686-mingw32/bin/../lib/gcc/nios2-elf/4.1.2/../../../../nios2-elf/lib/mno-hw-mul\libc.a(lib_a-getc.o)
                                0x50d (size before relaxing)
 .debug_str     0x00001c4d       0xdf c:/altera/10.1sp1/nios2eds/bin/gnu/h-i686-mingw32/bin/../lib/gcc/nios2-elf/4.1.2/../../../../nios2-elf/lib/mno-hw-mul\libc.a(lib_a-impure.o)
                                0x515 (size before relaxing)
 .debug_str     0x00001d2c       0xd2 c:/altera/10.1sp1/nios2eds/bin/gnu/h-i686-mingw32/bin/../lib/gcc/nios2-elf/4.1.2/../../../../nios2-elf/lib/mno-hw-mul\libc.a(lib_a-malign.o)
                                0x515 (size before relaxing)
 .debug_str     0x00001dfe       0xaf c:/altera/10.1sp1/nios2eds/bin/gnu/h-i686-mingw32/bin/../lib/gcc/nios2-elf/4.1.2/../../../../nios2-elf/lib/mno-hw-mul\libc.a(lib_a-malignr.o)
                                0x56f (size before relaxing)
 .debug_str     0x00001ead       0x43 c:/altera/10.1sp1/nios2eds/bin/gnu/h-i686-mingw32/bin/../lib/gcc/nios2-elf/4.1.2/../../../../nios2-elf/lib/mno-hw-mul\libc.a(lib_a-malloc.o)
                                0x517 (size before relaxing)
 .debug_str     0x00001ef0      0x188 c:/altera/10.1sp1/nios2eds/bin/gnu/h-i686-mingw32/bin/../lib/gcc/nios2-elf/4.1.2/../../../../nios2-elf/lib/mno-hw-mul\libc.a(lib_a-mallocr.o)
                                0x6ec (size before relaxing)
 .debug_str     0x00002078       0xf0 c:/altera/10.1sp1/nios2eds/bin/gnu/h-i686-mingw32/bin/../lib/gcc/nios2-elf/4.1.2/../../../../nios2-elf/lib/mno-hw-mul\libc.a(lib_a-memcpy.o)
                                0x123 (size before relaxing)
 .debug_str     0x00002168       0x59 c:/altera/10.1sp1/nios2eds/bin/gnu/h-i686-mingw32/bin/../lib/gcc/nios2-elf/4.1.2/../../../../nios2-elf/lib/mno-hw-mul\libc.a(lib_a-memset.o)
                                0x179 (size before relaxing)
 .debug_str     0x000021c1       0x4e c:/altera/10.1sp1/nios2eds/bin/gnu/h-i686-mingw32/bin/../lib/gcc/nios2-elf/4.1.2/../../../../nios2-elf/lib/mno-hw-mul\libc.a(lib_a-perror.o)
                                0x50d (size before relaxing)
 .debug_str     0x0000220f       0x47 c:/altera/10.1sp1/nios2eds/bin/gnu/h-i686-mingw32/bin/../lib/gcc/nios2-elf/4.1.2/../../../../nios2-elf/lib/mno-hw-mul\libc.a(lib_a-printf.o)
                                0x51e (size before relaxing)
 .debug_str     0x00002256       0x43 c:/altera/10.1sp1/nios2eds/bin/gnu/h-i686-mingw32/bin/../lib/gcc/nios2-elf/4.1.2/../../../../nios2-elf/lib/mno-hw-mul\libc.a(lib_a-putc.o)
                                0x50d (size before relaxing)
 .debug_str     0x00002299       0x51 c:/altera/10.1sp1/nios2eds/bin/gnu/h-i686-mingw32/bin/../lib/gcc/nios2-elf/4.1.2/../../../../nios2-elf/lib/mno-hw-mul\libc.a(lib_a-putchar.o)
                                0x50a (size before relaxing)
 .debug_str     0x000022ea       0x43 c:/altera/10.1sp1/nios2eds/bin/gnu/h-i686-mingw32/bin/../lib/gcc/nios2-elf/4.1.2/../../../../nios2-elf/lib/mno-hw-mul\libc.a(lib_a-puts.o)
                                0x544 (size before relaxing)
 .debug_str     0x0000232d       0x4d c:/altera/10.1sp1/nios2eds/bin/gnu/h-i686-mingw32/bin/../lib/gcc/nios2-elf/4.1.2/../../../../nios2-elf/lib/mno-hw-mul\libc.a(lib_a-rget.o)
                                0x50b (size before relaxing)
 .debug_str     0x0000237a       0x53 c:/altera/10.1sp1/nios2eds/bin/gnu/h-i686-mingw32/bin/../lib/gcc/nios2-elf/4.1.2/../../../../nios2-elf/lib/mno-hw-mul\libc.a(lib_a-sbrkr.o)
                                0x506 (size before relaxing)
 .debug_str     0x000023cd       0x49 c:/altera/10.1sp1/nios2eds/bin/gnu/h-i686-mingw32/bin/../lib/gcc/nios2-elf/4.1.2/../../../../nios2-elf/lib/mno-hw-mul\libc.a(lib_a-sprintf.o)
                                0x526 (size before relaxing)
 .debug_str     0x00002416       0x45 c:/altera/10.1sp1/nios2eds/bin/gnu/h-i686-mingw32/bin/../lib/gcc/nios2-elf/4.1.2/../../../../nios2-elf/lib/mno-hw-mul\libc.a(lib_a-strcpy.o)
                                0x180 (size before relaxing)
 .debug_str     0x0000245b       0x47 c:/altera/10.1sp1/nios2eds/bin/gnu/h-i686-mingw32/bin/../lib/gcc/nios2-elf/4.1.2/../../../../nios2-elf/lib/mno-hw-mul\libc.a(lib_a-strerror.o)
                                0x16f (size before relaxing)
 .debug_str     0x000024a2       0x45 c:/altera/10.1sp1/nios2eds/bin/gnu/h-i686-mingw32/bin/../lib/gcc/nios2-elf/4.1.2/../../../../nios2-elf/lib/mno-hw-mul\libc.a(lib_a-strlen.o)
                                0x178 (size before relaxing)
 .debug_str     0x000024e7       0x4f c:/altera/10.1sp1/nios2eds/bin/gnu/h-i686-mingw32/bin/../lib/gcc/nios2-elf/4.1.2/../../../../nios2-elf/lib/mno-hw-mul\libc.a(lib_a-u_strerr.o)
                                 0xeb (size before relaxing)
 .debug_str     0x00002536      0x16b c:/altera/10.1sp1/nios2eds/bin/gnu/h-i686-mingw32/bin/../lib/gcc/nios2-elf/4.1.2/../../../../nios2-elf/lib/mno-hw-mul\libc.a(lib_a-vfprintf.o)
                                0x6f3 (size before relaxing)
 .debug_str     0x000026a1       0x4d c:/altera/10.1sp1/nios2eds/bin/gnu/h-i686-mingw32/bin/../lib/gcc/nios2-elf/4.1.2/../../../../nios2-elf/lib/mno-hw-mul\libc.a(lib_a-wbuf.o)
                                0x50b (size before relaxing)
 .debug_str     0x000026ee       0x49 c:/altera/10.1sp1/nios2eds/bin/gnu/h-i686-mingw32/bin/../lib/gcc/nios2-elf/4.1.2/../../../../nios2-elf/lib/mno-hw-mul\libc.a(lib_a-wsetup.o)
                                0x507 (size before relaxing)
 .debug_str     0x00002737       0xff c:/altera/10.1sp1/nios2eds/bin/gnu/h-i686-mingw32/bin/../lib/gcc/nios2-elf/4.1.2/../../../../nios2-elf/lib/mno-hw-mul\libc.a(lib_a-dtoa.o)
                                0x5fc (size before relaxing)
 .debug_str     0x00002836       0x55 c:/altera/10.1sp1/nios2eds/bin/gnu/h-i686-mingw32/bin/../lib/gcc/nios2-elf/4.1.2/../../../../nios2-elf/lib/mno-hw-mul\libc.a(lib_a-fflush.o)
                                0x52d (size before relaxing)
 .debug_str     0x0000288b      0x105 c:/altera/10.1sp1/nios2eds/bin/gnu/h-i686-mingw32/bin/../lib/gcc/nios2-elf/4.1.2/../../../../nios2-elf/lib/mno-hw-mul\libc.a(lib_a-findfp.o)
                                0x5ef (size before relaxing)
 .debug_str     0x00002990       0x4b c:/altera/10.1sp1/nios2eds/bin/gnu/h-i686-mingw32/bin/../lib/gcc/nios2-elf/4.1.2/../../../../nios2-elf/lib/mno-hw-mul\libc.a(lib_a-fputc.o)
                                0x515 (size before relaxing)
 .debug_str     0x000029db       0x4b c:/altera/10.1sp1/nios2eds/bin/gnu/h-i686-mingw32/bin/../lib/gcc/nios2-elf/4.1.2/../../../../nios2-elf/lib/mno-hw-mul\libc.a(lib_a-fputs.o)
                                0x553 (size before relaxing)
 .debug_str     0x00002a26       0x3c c:/altera/10.1sp1/nios2eds/bin/gnu/h-i686-mingw32/bin/../lib/gcc/nios2-elf/4.1.2/../../../../nios2-elf/lib/mno-hw-mul\libc.a(lib_a-freer.o)
                                0x63e (size before relaxing)
 .debug_str     0x00002a62       0x61 c:/altera/10.1sp1/nios2eds/bin/gnu/h-i686-mingw32/bin/../lib/gcc/nios2-elf/4.1.2/../../../../nios2-elf/lib/mno-hw-mul\libc.a(lib_a-fvwrite.o)
                                0x55e (size before relaxing)
 .debug_str     0x00002ac3       0x61 c:/altera/10.1sp1/nios2eds/bin/gnu/h-i686-mingw32/bin/../lib/gcc/nios2-elf/4.1.2/../../../../nios2-elf/lib/mno-hw-mul\libc.a(lib_a-fwalk.o)
                                0x530 (size before relaxing)
 .debug_str     0x00002b24       0x40 c:/altera/10.1sp1/nios2eds/bin/gnu/h-i686-mingw32/bin/../lib/gcc/nios2-elf/4.1.2/../../../../nios2-elf/lib/mno-hw-mul\libc.a(lib_a-int_errno.o)
                                0x15e (size before relaxing)
 .debug_str     0x00002b64      0x220 c:/altera/10.1sp1/nios2eds/bin/gnu/h-i686-mingw32/bin/../lib/gcc/nios2-elf/4.1.2/../../../../nios2-elf/lib/mno-hw-mul\libc.a(lib_a-locale.o)
                                0x6a4 (size before relaxing)
 .debug_str     0x00002d84      0x126 c:/altera/10.1sp1/nios2eds/bin/gnu/h-i686-mingw32/bin/../lib/gcc/nios2-elf/4.1.2/../../../../nios2-elf/lib/mno-hw-mul\libc.a(lib_a-makebuf.o)
                                0x601 (size before relaxing)
 .debug_str     0x00002eaa       0x58 c:/altera/10.1sp1/nios2eds/bin/gnu/h-i686-mingw32/bin/../lib/gcc/nios2-elf/4.1.2/../../../../nios2-elf/lib/mno-hw-mul\libc.a(lib_a-memchr.o)
                                0x186 (size before relaxing)
 .debug_str     0x00002f02       0x50 c:/altera/10.1sp1/nios2eds/bin/gnu/h-i686-mingw32/bin/../lib/gcc/nios2-elf/4.1.2/../../../../nios2-elf/lib/mno-hw-mul\libc.a(lib_a-memmove.o)
                                0x198 (size before relaxing)
 .debug_str     0x00002f52       0xfb c:/altera/10.1sp1/nios2eds/bin/gnu/h-i686-mingw32/bin/../lib/gcc/nios2-elf/4.1.2/../../../../nios2-elf/lib/mno-hw-mul\libc.a(lib_a-mprec.o)
                                0x609 (size before relaxing)
 .debug_str     0x0000304d       0x54 c:/altera/10.1sp1/nios2eds/bin/gnu/h-i686-mingw32/bin/../lib/gcc/nios2-elf/4.1.2/../../../../nios2-elf/lib/mno-hw-mul\libc.a(lib_a-reallocr.o)
                                0x5be (size before relaxing)
 .debug_str     0x000030a1       0x50 c:/altera/10.1sp1/nios2eds/bin/gnu/h-i686-mingw32/bin/../lib/gcc/nios2-elf/4.1.2/../../../../nios2-elf/lib/mno-hw-mul\libc.a(lib_a-refill.o)
                                0x515 (size before relaxing)
 .debug_str     0x000030f1       0x49 c:/altera/10.1sp1/nios2eds/bin/gnu/h-i686-mingw32/bin/../lib/gcc/nios2-elf/4.1.2/../../../../nios2-elf/lib/mno-hw-mul\libc.a(lib_a-s_isinfd.o)
                                0x185 (size before relaxing)
 .debug_str     0x0000313a       0x65 c:/altera/10.1sp1/nios2eds/bin/gnu/h-i686-mingw32/bin/../lib/gcc/nios2-elf/4.1.2/../../../../nios2-elf/lib/mno-hw-mul\libc.a(lib_a-stdio.o)
                                0x52c (size before relaxing)
 .debug_str     0x0000319f       0x45 c:/altera/10.1sp1/nios2eds/bin/gnu/h-i686-mingw32/bin/../lib/gcc/nios2-elf/4.1.2/../../../../nios2-elf/lib/mno-hw-mul\libc.a(lib_a-strcmp.o)
                                0x15e (size before relaxing)
 .debug_str     0x000031e4       0x4f c:/altera/10.1sp1/nios2eds/bin/gnu/h-i686-mingw32/bin/../lib/gcc/nios2-elf/4.1.2/../../../../nios2-elf/lib/mno-hw-mul\libc.a(lib_a-writer.o)
                                0x509 (size before relaxing)
 .debug_str     0x00003233       0x19 c:/altera/10.1sp1/nios2eds/bin/gnu/h-i686-mingw32/bin/../lib/gcc/nios2-elf/4.1.2/../../../../nios2-elf/lib/mno-hw-mul\libc.a(lib_a-callocr.o)
                                0x53d (size before relaxing)
 .debug_str     0x0000324c       0x46 c:/altera/10.1sp1/nios2eds/bin/gnu/h-i686-mingw32/bin/../lib/gcc/nios2-elf/4.1.2/../../../../nios2-elf/lib/mno-hw-mul\libc.a(lib_a-closer.o)
                                0x4f9 (size before relaxing)
 .debug_str     0x00003292       0x4e c:/altera/10.1sp1/nios2eds/bin/gnu/h-i686-mingw32/bin/../lib/gcc/nios2-elf/4.1.2/../../../../nios2-elf/lib/mno-hw-mul\libc.a(lib_a-fclose.o)
                                0x511 (size before relaxing)
 .debug_str     0x000032e0       0x4c c:/altera/10.1sp1/nios2eds/bin/gnu/h-i686-mingw32/bin/../lib/gcc/nios2-elf/4.1.2/../../../../nios2-elf/lib/mno-hw-mul\libc.a(lib_a-fstatr.o)
                                0x5ec (size before relaxing)
 .debug_str     0x0000332c       0x48 c:/altera/10.1sp1/nios2eds/bin/gnu/h-i686-mingw32/bin/../lib/gcc/nios2-elf/4.1.2/../../../../nios2-elf/lib/mno-hw-mul\libc.a(lib_a-isattyr.o)
                                0x4fb (size before relaxing)
 .debug_str     0x00003374       0x46 c:/altera/10.1sp1/nios2eds/bin/gnu/h-i686-mingw32/bin/../lib/gcc/nios2-elf/4.1.2/../../../../nios2-elf/lib/mno-hw-mul\libc.a(lib_a-lseekr.o)
                                0x507 (size before relaxing)
 .debug_str     0x000033ba       0x44 c:/altera/10.1sp1/nios2eds/bin/gnu/h-i686-mingw32/bin/../lib/gcc/nios2-elf/4.1.2/../../../../nios2-elf/lib/mno-hw-mul\libc.a(lib_a-readr.o)
                                0x507 (size before relaxing)
 .debug_str     0x000033fe       0x35 c:/altera/10.1sp1/nios2eds/bin/gnu/h-i686-mingw32/bin/../lib/gcc/nios2-elf/4.1.2/mno-hw-mul\libgcc.a(_udivdi3.o)
                                0x1e4 (size before relaxing)
 .debug_str     0x00003433        0xa c:/altera/10.1sp1/nios2eds/bin/gnu/h-i686-mingw32/bin/../lib/gcc/nios2-elf/4.1.2/mno-hw-mul\libgcc.a(_umoddi3.o)
                                0x1e4 (size before relaxing)
 .debug_str     0x0000343d        0x8 c:/altera/10.1sp1/nios2eds/bin/gnu/h-i686-mingw32/bin/../lib/gcc/nios2-elf/4.1.2/mno-hw-mul\libgcc.a(_ne_df.o)
                                0x1eb (size before relaxing)
 .debug_str     0x00003445       0x12 ../RedeFFTHW_bsp\libucosii_bsp.a(alt_fstat.o)
 .debug_str     0x00003457       0x12 ../RedeFFTHW_bsp\libucosii_bsp.a(alt_isatty.o)
 .debug_str     0x00003469       0x12 ../RedeFFTHW_bsp\libucosii_bsp.a(alt_load.o)
 .debug_str     0x0000347b       0x12 ../RedeFFTHW_bsp\libucosii_bsp.a(alt_lseek.o)
 .debug_str     0x0000348d       0x12 ../RedeFFTHW_bsp\libucosii_bsp.a(alt_main.o)
 .debug_str     0x0000349f       0x12 ../RedeFFTHW_bsp\libucosii_bsp.a(alt_remap_cached.o)
 .debug_str     0x000034b1       0x12 ../RedeFFTHW_bsp\libucosii_bsp.a(alt_remap_uncached.o)
 .debug_str     0x000034c3       0x1a ../RedeFFTHW_bsp\libucosii_bsp.a(alt_sbrk.o)
 .debug_str     0x000034dd       0x1a ../RedeFFTHW_bsp\libucosii_bsp.a(alt_tick.o)
 .debug_str     0x000034f7       0x12 ../RedeFFTHW_bsp\libucosii_bsp.a(alt_uncached_malloc.o)
 .debug_str     0x00003509       0x12 ../RedeFFTHW_bsp\libucosii_bsp.a(alt_usleep.o)
 .debug_str     0x0000351b       0x36 ../RedeFFTHW_bsp\libucosii_bsp.a(alt_env_lock.o)
 .debug_str     0x00003551       0x36 ../RedeFFTHW_bsp\libucosii_bsp.a(alt_malloc_lock.o)
 .debug_str     0x00003587       0x46 ../RedeFFTHW_bsp\libucosii_bsp.a(os_core.o)
 .debug_str     0x000035cd       0x2b ../RedeFFTHW_bsp\libucosii_bsp.a(os_dbg.o)
 .debug_str     0x000035f8       0x4e ../RedeFFTHW_bsp\libucosii_bsp.a(os_flag.o)
 .debug_str     0x00003646       0x2c ../RedeFFTHW_bsp\libucosii_bsp.a(os_mem.o)
 .debug_str     0x00003672       0x36 ../RedeFFTHW_bsp\libucosii_bsp.a(os_q.o)
 .debug_str     0x000036a8       0x36 ../RedeFFTHW_bsp\libucosii_bsp.a(os_sem.o)
 .debug_str     0x000036de       0x23 ../RedeFFTHW_bsp\libucosii_bsp.a(os_task.o)
 .debug_str     0x00003701       0x1f ../RedeFFTHW_bsp\libucosii_bsp.a(os_time.o)
 .debug_str     0x00003720       0x2f ../RedeFFTHW_bsp\libucosii_bsp.a(alt_sys_init.o)
 .debug_str     0x0000374f       0x12 ../RedeFFTHW_bsp\libucosii_bsp.a(altera_avalon_jtag_uart_fd.o)
 .debug_str     0x00003761       0x1a ../RedeFFTHW_bsp\libucosii_bsp.a(altera_avalon_jtag_uart_init.o)
 .debug_str     0x0000377b       0x12 ../RedeFFTHW_bsp\libucosii_bsp.a(altera_avalon_jtag_uart_ioctl.o)
 .debug_str     0x0000378d       0x22 ../RedeFFTHW_bsp\libucosii_bsp.a(altera_avalon_jtag_uart_read.o)
 .debug_str     0x000037af       0x22 ../RedeFFTHW_bsp\libucosii_bsp.a(altera_avalon_jtag_uart_write.o)
 .debug_str     0x000037d1       0xe7 ../RedeFFTHW_bsp\libucosii_bsp.a(altera_avalon_sgdma.o)
 .debug_str     0x000038b8       0x12 ../RedeFFTHW_bsp\libucosii_bsp.a(altera_avalon_timer_sc.o)
 .debug_str     0x000038ca       0xac ../RedeFFTHW_bsp\libucosii_bsp.a(ins_tse_mac.o)
 .debug_str     0x00003976       0x12 ../RedeFFTHW_bsp\libucosii_bsp.a(perf_print_formatted_report.o)
 .debug_str     0x00003988       0x12 ../RedeFFTHW_bsp\libucosii_bsp.a(alt_iniche_close.o)
 .debug_str     0x0000399a       0x12 ../RedeFFTHW_bsp\libucosii_bsp.a(alt_iniche_dev.o)
 .debug_str     0x000039ac       0x12 ../RedeFFTHW_bsp\libucosii_bsp.a(alt_iniche_read.o)
 .debug_str     0x000039be       0x12 ../RedeFFTHW_bsp\libucosii_bsp.a(alt_iniche_write.o)
 .debug_str     0x000039d0       0x12 ../RedeFFTHW_bsp\libucosii_bsp.a(ipnet.o)
 .debug_str     0x000039e2       0x12 ../RedeFFTHW_bsp\libucosii_bsp.a(ipstart.o)
 .debug_str     0x000039f4       0x12 ../RedeFFTHW_bsp\libucosii_bsp.a(igmp_cmn.o)
 .debug_str     0x00003a06       0x20 ../RedeFFTHW_bsp\libucosii_bsp.a(bsdsock.o)
 .debug_str     0x00003a26       0x12 ../RedeFFTHW_bsp\libucosii_bsp.a(cksum.o)
 .debug_str     0x00003a38       0x12 ../RedeFFTHW_bsp\libucosii_bsp.a(in_utils.o)
 .debug_str     0x00003a4a       0x12 ../RedeFFTHW_bsp\libucosii_bsp.a(netmain.o)
 .debug_str     0x00003a5c       0x12 ../RedeFFTHW_bsp\libucosii_bsp.a(tk_crnos.o)
 .debug_str     0x00003a6e       0x2e ../RedeFFTHW_bsp\libucosii_bsp.a(dhcpclnt.o)
 .debug_str     0x00003a9c       0x12 ../RedeFFTHW_bsp\libucosii_bsp.a(dhcputil.o)
 .debug_str     0x00003aae       0x12 ../RedeFFTHW_bsp\libucosii_bsp.a(pktalloc.o)
 .debug_str     0x00003ac0       0x12 ../RedeFFTHW_bsp\libucosii_bsp.a(q.o)
 .debug_str     0x00003ad2       0x12 ../RedeFFTHW_bsp\libucosii_bsp.a(udp_open.o)
 .debug_str     0x00003ae4       0x20 ../RedeFFTHW_bsp\libucosii_bsp.a(brdutils.o)
 .debug_str     0x00003b04       0x22 ../RedeFFTHW_bsp\libucosii_bsp.a(osportco.o)
 .debug_str     0x00003b26       0x12 ../RedeFFTHW_bsp\libucosii_bsp.a(targnios.o)
 .debug_str     0x00003b38       0x1e ../RedeFFTHW_bsp\libucosii_bsp.a(nptcp.o)
 .debug_str     0x00003b56       0x12 ../RedeFFTHW_bsp\libucosii_bsp.a(rawsock.o)
 .debug_str     0x00003b68       0x34 ../RedeFFTHW_bsp\libucosii_bsp.a(sockcall.o)
 .debug_str     0x00003b9c       0x18 ../RedeFFTHW_bsp\libucosii_bsp.a(socket.o)
 .debug_str     0x00003bb4       0x12 ../RedeFFTHW_bsp\libucosii_bsp.a(socket2.o)
 .debug_str     0x00003bc6       0x12 ../RedeFFTHW_bsp\libucosii_bsp.a(soselect.o)
 .debug_str     0x00003bd8       0x12 ../RedeFFTHW_bsp\libucosii_bsp.a(tcp_in.o)
 .debug_str     0x00003bea       0x12 ../RedeFFTHW_bsp\libucosii_bsp.a(tcp_out.o)
 .debug_str     0x00003bfc       0x12 ../RedeFFTHW_bsp\libucosii_bsp.a(tcp_subr.o)
 .debug_str     0x00003c0e       0x12 ../RedeFFTHW_bsp\libucosii_bsp.a(tcp_timr.o)
 .debug_str     0x00003c20       0x12 ../RedeFFTHW_bsp\libucosii_bsp.a(tcp_usr.o)
 .debug_str     0x00003c32       0x12 ../RedeFFTHW_bsp\libucosii_bsp.a(tcpport.o)
 .debug_str     0x00003c44       0x1a ../RedeFFTHW_bsp\libucosii_bsp.a(udpsock.o)
 .debug_str     0x00003c5e       0x23 ../RedeFFTHW_bsp\libucosii_bsp.a(alt_alarm_start.o)
 .debug_str     0x00003c81       0x12 ../RedeFFTHW_bsp\libucosii_bsp.a(alt_busy_sleep.o)
 .debug_str     0x00003c93       0x12 ../RedeFFTHW_bsp\libucosii_bsp.a(alt_close.o)
 .debug_str     0x00003ca5       0x12 ../RedeFFTHW_bsp\libucosii_bsp.a(alt_dcache_flush.o)
 .debug_str     0x00003cb7       0x12 ../RedeFFTHW_bsp\libucosii_bsp.a(alt_dcache_flush_all.o)
 .debug_str     0x00003cc9       0x12 ../RedeFFTHW_bsp\libucosii_bsp.a(alt_dev.o)
 .debug_str     0x00003cdb       0x12 ../RedeFFTHW_bsp\libucosii_bsp.a(alt_dev_llist_insert.o)
 .debug_str     0x00003ced       0x12 ../RedeFFTHW_bsp\libucosii_bsp.a(alt_errno.o)
 .debug_str     0x00003cff       0x12 ../RedeFFTHW_bsp\libucosii_bsp.a(alt_find_dev.o)
 .debug_str     0x00003d11       0x12 ../RedeFFTHW_bsp\libucosii_bsp.a(alt_icache_flush_all.o)
 .debug_str     0x00003d23       0x18 ../RedeFFTHW_bsp\libucosii_bsp.a(alt_iic.o)
 .debug_str     0x00003d3b       0x1a ../RedeFFTHW_bsp\libucosii_bsp.a(alt_iic_isr_register.o)
 .debug_str     0x00003d55       0x12 ../RedeFFTHW_bsp\libucosii_bsp.a(alt_io_redirect.o)
 .debug_str     0x00003d67       0x12 ../RedeFFTHW_bsp\libucosii_bsp.a(alt_irq_handler.o)
 .debug_str     0x00003d79       0x12 ../RedeFFTHW_bsp\libucosii_bsp.a(alt_open.o)
 .debug_str     0x00003d8b       0x12 ../RedeFFTHW_bsp\libucosii_bsp.a(alt_read.o)
 .debug_str     0x00003d9d       0x12 ../RedeFFTHW_bsp\libucosii_bsp.a(alt_release_fd.o)
 .debug_str     0x00003daf       0x12 ../RedeFFTHW_bsp\libucosii_bsp.a(alt_write.o)
 .debug_str     0x00003dc1       0x12 ../RedeFFTHW_bsp\libucosii_bsp.a(altera_nios2_irq.o)
 .debug_str     0x00003dd3       0x20 ../RedeFFTHW_bsp\libucosii_bsp.a(os_cpu_c.o)
 .debug_str     0x00003df3       0x1e ../RedeFFTHW_bsp\libucosii_bsp.a(altera_avalon_performance_counter.o)
 .debug_str     0x00003e11      0x328 ../RedeFFTHW_bsp\libucosii_bsp.a(altera_avalon_tse.o)
 .debug_str     0x00004139       0x12 ../RedeFFTHW_bsp\libucosii_bsp.a(altera_avalon_tse_system_info.o)
 .debug_str     0x0000414b       0x12 ../RedeFFTHW_bsp\libucosii_bsp.a(allports.o)
 .debug_str     0x0000415d       0x1b ../RedeFFTHW_bsp\libucosii_bsp.a(timeouts.o)
 .debug_str     0x00004178       0x12 ../RedeFFTHW_bsp\libucosii_bsp.a(tk_misc.o)
 .debug_str     0x0000418a       0x12 ../RedeFFTHW_bsp\libucosii_bsp.a(alt_iniche_fcntl.o)
 .debug_str     0x0000419c       0x3d ../RedeFFTHW_bsp\libucosii_bsp.a(et_arp.o)
 .debug_str     0x000041d9       0x12 ../RedeFFTHW_bsp\libucosii_bsp.a(iface.o)
 .debug_str     0x000041eb       0x2c ../RedeFFTHW_bsp\libucosii_bsp.a(ip.o)
 .debug_str     0x00004217       0x4e ../RedeFFTHW_bsp\libucosii_bsp.a(ip_reasm.o)
 .debug_str     0x00004265       0x12 ../RedeFFTHW_bsp\libucosii_bsp.a(ipdemux.o)
 .debug_str     0x00004277       0x12 ../RedeFFTHW_bsp\libucosii_bsp.a(ipmc.o)
 .debug_str     0x00004289       0x12 ../RedeFFTHW_bsp\libucosii_bsp.a(ipport.o)
 .debug_str     0x0000429b       0x12 ../RedeFFTHW_bsp\libucosii_bsp.a(ipraw.o)
 .debug_str     0x000042ad       0x12 ../RedeFFTHW_bsp\libucosii_bsp.a(iproute.o)
 .debug_str     0x000042bf       0x12 ../RedeFFTHW_bsp\libucosii_bsp.a(udp.o)
 .debug_str     0x000042d1       0x12 ../RedeFFTHW_bsp\libucosii_bsp.a(igmp.o)
 .debug_str     0x000042e3       0x20 ../RedeFFTHW_bsp\libucosii_bsp.a(igmp2.o)
 .debug_str     0x00004303       0x12 ../RedeFFTHW_bsp\libucosii_bsp.a(ipopt.o)
 .debug_str     0x00004315       0x12 ../RedeFFTHW_bsp\libucosii_bsp.a(u_mctest.o)
 .debug_str     0x00004327       0x12 ../RedeFFTHW_bsp\libucosii_bsp.a(dhcsetup.o)
 .debug_str     0x00004339       0x1b ../RedeFFTHW_bsp\libucosii_bsp.a(memdev.o)
 .debug_str     0x00004354       0x12 ../RedeFFTHW_bsp\libucosii_bsp.a(parseip.o)
 .debug_str     0x00004366       0x12 ../RedeFFTHW_bsp\libucosii_bsp.a(tcpcksum.o)
 .debug_str     0x00004378       0x12 ../RedeFFTHW_bsp\libucosii_bsp.a(in_pcb.o)
 .debug_str     0x0000438a       0x2b ../RedeFFTHW_bsp\libucosii_bsp.a(vfsfiles.o)
 .debug_str     0x000043b5       0x12 ../RedeFFTHW_bsp\libucosii_bsp.a(vfsport.o)
 .debug_str     0x000043c7       0x12 ../RedeFFTHW_bsp\libucosii_bsp.a(alt_fcntl.o)
 .debug_str     0x000043d9       0x12 ../RedeFFTHW_bsp\libucosii_bsp.a(alt_find_file.o)
 .debug_str     0x000043eb       0x12 ../RedeFFTHW_bsp\libucosii_bsp.a(alt_get_fd.o)
 .debug_str     0x000043fd       0x12 ../RedeFFTHW_bsp\libucosii_bsp.a(icmp.o)
 .debug_str     0x0000440f       0x3e c:/altera/10.1sp1/nios2eds/bin/gnu/h-i686-mingw32/bin/../lib/gcc/nios2-elf/4.1.2/../../../../nios2-elf/lib/mno-hw-mul\libc.a(lib_a-atexit.o)
                                0x1ba (size before relaxing)
 .debug_str     0x0000444d       0x49 c:/altera/10.1sp1/nios2eds/bin/gnu/h-i686-mingw32/bin/../lib/gcc/nios2-elf/4.1.2/../../../../nios2-elf/lib/mno-hw-mul\libc.a(lib_a-atoi.o)
                                0x4f7 (size before relaxing)
 .debug_str     0x00004496       0x45 c:/altera/10.1sp1/nios2eds/bin/gnu/h-i686-mingw32/bin/../lib/gcc/nios2-elf/4.1.2/../../../../nios2-elf/lib/mno-hw-mul\libc.a(lib_a-calloc.o)
                                0x50b (size before relaxing)
 .debug_str     0x000044db       0x41 c:/altera/10.1sp1/nios2eds/bin/gnu/h-i686-mingw32/bin/../lib/gcc/nios2-elf/4.1.2/../../../../nios2-elf/lib/mno-hw-mul\libc.a(lib_a-exit.o)
                                0x507 (size before relaxing)
 .debug_str     0x0000451c       0x45 c:/altera/10.1sp1/nios2eds/bin/gnu/h-i686-mingw32/bin/../lib/gcc/nios2-elf/4.1.2/../../../../nios2-elf/lib/mno-hw-mul\libc.a(lib_a-memcmp.o)
                                0x165 (size before relaxing)
 .debug_str     0x00004561       0x45 c:/altera/10.1sp1/nios2eds/bin/gnu/h-i686-mingw32/bin/../lib/gcc/nios2-elf/4.1.2/../../../../nios2-elf/lib/mno-hw-mul\libc.a(lib_a-strchr.o)
                                0x170 (size before relaxing)
 .debug_str     0x000045a6       0x47 c:/altera/10.1sp1/nios2eds/bin/gnu/h-i686-mingw32/bin/../lib/gcc/nios2-elf/4.1.2/../../../../nios2-elf/lib/mno-hw-mul\libc.a(lib_a-strncmp.o)
                                0x167 (size before relaxing)
 .debug_str     0x000045ed       0x47 c:/altera/10.1sp1/nios2eds/bin/gnu/h-i686-mingw32/bin/../lib/gcc/nios2-elf/4.1.2/../../../../nios2-elf/lib/mno-hw-mul\libc.a(lib_a-strncpy.o)
                                0x18f (size before relaxing)
 .debug_str     0x00004634       0x64 c:/altera/10.1sp1/nios2eds/bin/gnu/h-i686-mingw32/bin/../lib/gcc/nios2-elf/4.1.2/../../../../nios2-elf/lib/mno-hw-mul\libc.a(lib_a-strtol.o)
                                0x539 (size before relaxing)
 .debug_str     0x00004698       0x51 c:/altera/10.1sp1/nios2eds/bin/gnu/h-i686-mingw32/bin/../lib/gcc/nios2-elf/4.1.2/../../../../nios2-elf/lib/mno-hw-mul\libc.a(lib_a-vprintf.o)
                                0x521 (size before relaxing)
 .debug_str     0x000046e9       0x54 c:/altera/10.1sp1/nios2eds/bin/gnu/h-i686-mingw32/bin/../lib/gcc/nios2-elf/4.1.2/../../../../nios2-elf/lib/mno-hw-mul\libc.a(lib_a-vsprintf.o)
                                0x529 (size before relaxing)
 .debug_str     0x0000473d       0x54 c:/altera/10.1sp1/nios2eds/bin/gnu/h-i686-mingw32/bin/../lib/gcc/nios2-elf/4.1.2/../../../../nios2-elf/lib/mno-hw-mul\libc.a(lib_a-__atexit.o)
                                0x51f (size before relaxing)
 .debug_str     0x00004791       0x7e c:/altera/10.1sp1/nios2eds/bin/gnu/h-i686-mingw32/bin/../lib/gcc/nios2-elf/4.1.2/../../../../nios2-elf/lib/mno-hw-mul\libc.a(lib_a-__call_atexit.o)
                                0x549 (size before relaxing)
 .debug_str     0x0000480f        0xe c:/altera/10.1sp1/nios2eds/bin/gnu/h-i686-mingw32/bin/../lib/gcc/nios2-elf/4.1.2/mno-hw-mul\libgcc.a(_floatundidf.o)
                                0x159 (size before relaxing)
 .debug_str     0x0000481d       0x1c ../RedeFFTHW_bsp\libucosii_bsp.a(alt_exit.o)

.debug_loc      0x00000000    0x17622
 *(.debug_loc)
 .debug_loc     0x00000000      0x158 obj/AquisicaoRede.o
 .debug_loc     0x00000158      0x361 obj/DanWindow/DanWindow.o
 .debug_loc     0x000004b9      0x25e obj/FFT/simpleDFT.o
 .debug_loc     0x00000717      0x230 obj/LCDTask.o
 .debug_loc     0x00000947       0x56 obj/TerminalSerial.o
 .debug_loc     0x0000099d       0x81 obj/alt_error_handler.o
 .debug_loc     0x00000a1e      0x12d obj/alt_tpo_lcd/alt_tpo_lcd.o
 .debug_loc     0x00000b4b      0x159 obj/alt_video_display/alt_video_display.o
 .debug_loc     0x00000ca4      0x158 obj/fixedpoint2_16.o
 .debug_loc     0x00000dfc      0x4b8 obj/graphics_lib/simple_graphics.o
 .debug_loc     0x000012b4       0x56 obj/iniche_init.o
 .debug_loc     0x0000130a      0x12d obj/network_utilities.o
 .debug_loc     0x00001437      0x1b3 obj/simple_socket_server.o
 .debug_loc     0x000015ea       0x90 c:/altera/10.1sp1/nios2eds/bin/gnu/h-i686-mingw32/bin/../lib/gcc/nios2-elf/4.1.2/../../../../nios2-elf/lib/mno-hw-mul\libm.a(lib_a-s_cos.o)
 .debug_loc     0x0000167a       0x90 c:/altera/10.1sp1/nios2eds/bin/gnu/h-i686-mingw32/bin/../lib/gcc/nios2-elf/4.1.2/../../../../nios2-elf/lib/mno-hw-mul\libm.a(lib_a-s_sin.o)
 .debug_loc     0x0000170a       0x9f c:/altera/10.1sp1/nios2eds/bin/gnu/h-i686-mingw32/bin/../lib/gcc/nios2-elf/4.1.2/../../../../nios2-elf/lib/mno-hw-mul\libm.a(lib_a-w_sqrt.o)
 .debug_loc     0x000017a9       0x71 c:/altera/10.1sp1/nios2eds/bin/gnu/h-i686-mingw32/bin/../lib/gcc/nios2-elf/4.1.2/../../../../nios2-elf/lib/mno-hw-mul\libm.a(lib_a-wf_sqrt.o)
 .debug_loc     0x0000181a      0x33c c:/altera/10.1sp1/nios2eds/bin/gnu/h-i686-mingw32/bin/../lib/gcc/nios2-elf/4.1.2/../../../../nios2-elf/lib/mno-hw-mul\libm.a(lib_a-e_rem_pio2.o)
 .debug_loc     0x00001b56      0x41e c:/altera/10.1sp1/nios2eds/bin/gnu/h-i686-mingw32/bin/../lib/gcc/nios2-elf/4.1.2/../../../../nios2-elf/lib/mno-hw-mul\libm.a(lib_a-e_sqrt.o)
 .debug_loc     0x00001f74      0x209 c:/altera/10.1sp1/nios2eds/bin/gnu/h-i686-mingw32/bin/../lib/gcc/nios2-elf/4.1.2/../../../../nios2-elf/lib/mno-hw-mul\libm.a(lib_a-ef_sqrt.o)
 .debug_loc     0x0000217d      0x18c c:/altera/10.1sp1/nios2eds/bin/gnu/h-i686-mingw32/bin/../lib/gcc/nios2-elf/4.1.2/../../../../nios2-elf/lib/mno-hw-mul\libm.a(lib_a-k_cos.o)
 .debug_loc     0x00002309      0xc76 c:/altera/10.1sp1/nios2eds/bin/gnu/h-i686-mingw32/bin/../lib/gcc/nios2-elf/4.1.2/../../../../nios2-elf/lib/mno-hw-mul\libm.a(lib_a-k_rem_pio2.o)
 .debug_loc     0x00002f7f       0xbe c:/altera/10.1sp1/nios2eds/bin/gnu/h-i686-mingw32/bin/../lib/gcc/nios2-elf/4.1.2/../../../../nios2-elf/lib/mno-hw-mul\libm.a(lib_a-k_sin.o)
 .debug_loc     0x0000303d      0x221 c:/altera/10.1sp1/nios2eds/bin/gnu/h-i686-mingw32/bin/../lib/gcc/nios2-elf/4.1.2/../../../../nios2-elf/lib/mno-hw-mul\libm.a(lib_a-s_floor.o)
 .debug_loc     0x0000325e       0x18 c:/altera/10.1sp1/nios2eds/bin/gnu/h-i686-mingw32/bin/../lib/gcc/nios2-elf/4.1.2/../../../../nios2-elf/lib/mno-hw-mul\libm.a(lib_a-s_isnand.o)
 .debug_loc     0x00003276      0x228 c:/altera/10.1sp1/nios2eds/bin/gnu/h-i686-mingw32/bin/../lib/gcc/nios2-elf/4.1.2/../../../../nios2-elf/lib/mno-hw-mul\libm.a(lib_a-s_scalbn.o)
 .debug_loc     0x0000349e       0x13 c:/altera/10.1sp1/nios2eds/bin/gnu/h-i686-mingw32/bin/../lib/gcc/nios2-elf/4.1.2/../../../../nios2-elf/lib/mno-hw-mul\libm.a(lib_a-sf_isnan.o)
 .debug_loc     0x000034b1      0x103 c:/altera/10.1sp1/nios2eds/bin/gnu/h-i686-mingw32/bin/../lib/gcc/nios2-elf/4.1.2/mno-hw-mul\libgcc.a(_muldi3.o)
 .debug_loc     0x000035b4      0x289 c:/altera/10.1sp1/nios2eds/bin/gnu/h-i686-mingw32/bin/../lib/gcc/nios2-elf/4.1.2/mno-hw-mul\libgcc.a(_addsub_sf.o)
 .debug_loc     0x0000383d      0x103 c:/altera/10.1sp1/nios2eds/bin/gnu/h-i686-mingw32/bin/../lib/gcc/nios2-elf/4.1.2/mno-hw-mul\libgcc.a(_mul_sf.o)
 .debug_loc     0x00003940      0x11d c:/altera/10.1sp1/nios2eds/bin/gnu/h-i686-mingw32/bin/../lib/gcc/nios2-elf/4.1.2/mno-hw-mul\libgcc.a(_div_sf.o)
 .debug_loc     0x00003a5d       0x45 c:/altera/10.1sp1/nios2eds/bin/gnu/h-i686-mingw32/bin/../lib/gcc/nios2-elf/4.1.2/mno-hw-mul\libgcc.a(_ge_sf.o)
 .debug_loc     0x00003aa2       0x45 c:/altera/10.1sp1/nios2eds/bin/gnu/h-i686-mingw32/bin/../lib/gcc/nios2-elf/4.1.2/mno-hw-mul\libgcc.a(_lt_sf.o)
 .debug_loc     0x00003ae7       0x8f c:/altera/10.1sp1/nios2eds/bin/gnu/h-i686-mingw32/bin/../lib/gcc/nios2-elf/4.1.2/mno-hw-mul\libgcc.a(_si_to_sf.o)
 .debug_loc     0x00003b76       0x66 c:/altera/10.1sp1/nios2eds/bin/gnu/h-i686-mingw32/bin/../lib/gcc/nios2-elf/4.1.2/mno-hw-mul\libgcc.a(_sf_to_si.o)
 .debug_loc     0x00003bdc       0x32 c:/altera/10.1sp1/nios2eds/bin/gnu/h-i686-mingw32/bin/../lib/gcc/nios2-elf/4.1.2/mno-hw-mul\libgcc.a(_sf_to_df.o)
 .debug_loc     0x00003c0e      0x47a c:/altera/10.1sp1/nios2eds/bin/gnu/h-i686-mingw32/bin/../lib/gcc/nios2-elf/4.1.2/mno-hw-mul\libgcc.a(_addsub_df.o)
 .debug_loc     0x00004088      0x3b4 c:/altera/10.1sp1/nios2eds/bin/gnu/h-i686-mingw32/bin/../lib/gcc/nios2-elf/4.1.2/mno-hw-mul\libgcc.a(_mul_df.o)
 .debug_loc     0x0000443c      0x1df c:/altera/10.1sp1/nios2eds/bin/gnu/h-i686-mingw32/bin/../lib/gcc/nios2-elf/4.1.2/mno-hw-mul\libgcc.a(_div_df.o)
 .debug_loc     0x0000461b       0x70 c:/altera/10.1sp1/nios2eds/bin/gnu/h-i686-mingw32/bin/../lib/gcc/nios2-elf/4.1.2/mno-hw-mul\libgcc.a(_eq_df.o)
 .debug_loc     0x0000468b       0x70 c:/altera/10.1sp1/nios2eds/bin/gnu/h-i686-mingw32/bin/../lib/gcc/nios2-elf/4.1.2/mno-hw-mul\libgcc.a(_gt_df.o)
 .debug_loc     0x000046fb       0x70 c:/altera/10.1sp1/nios2eds/bin/gnu/h-i686-mingw32/bin/../lib/gcc/nios2-elf/4.1.2/mno-hw-mul\libgcc.a(_ge_df.o)
 .debug_loc     0x0000476b       0x70 c:/altera/10.1sp1/nios2eds/bin/gnu/h-i686-mingw32/bin/../lib/gcc/nios2-elf/4.1.2/mno-hw-mul\libgcc.a(_lt_df.o)
 .debug_loc     0x000047db       0x9a c:/altera/10.1sp1/nios2eds/bin/gnu/h-i686-mingw32/bin/../lib/gcc/nios2-elf/4.1.2/mno-hw-mul\libgcc.a(_si_to_df.o)
 .debug_loc     0x00004875       0x8b c:/altera/10.1sp1/nios2eds/bin/gnu/h-i686-mingw32/bin/../lib/gcc/nios2-elf/4.1.2/mno-hw-mul\libgcc.a(_df_to_si.o)
 .debug_loc     0x00004900       0x58 c:/altera/10.1sp1/nios2eds/bin/gnu/h-i686-mingw32/bin/../lib/gcc/nios2-elf/4.1.2/mno-hw-mul\libgcc.a(_make_df.o)
 .debug_loc     0x00004958       0x6a c:/altera/10.1sp1/nios2eds/bin/gnu/h-i686-mingw32/bin/../lib/gcc/nios2-elf/4.1.2/mno-hw-mul\libgcc.a(_df_to_sf.o)
 .debug_loc     0x000049c2       0x5b c:/altera/10.1sp1/nios2eds/bin/gnu/h-i686-mingw32/bin/../lib/gcc/nios2-elf/4.1.2/mno-hw-mul\libgcc.a(_usi_to_df.o)
 .debug_loc     0x00004a1d      0x1d2 c:/altera/10.1sp1/nios2eds/bin/gnu/h-i686-mingw32/bin/../lib/gcc/nios2-elf/4.1.2/mno-hw-mul\libgcc.a(lib2-divmod.o)
 .debug_loc     0x00004bef       0x4f c:/altera/10.1sp1/nios2eds/bin/gnu/h-i686-mingw32/bin/../lib/gcc/nios2-elf/4.1.2/mno-hw-mul\libgcc.a(lib2-mul.o)
 .debug_loc     0x00004c3e       0x1e c:/altera/10.1sp1/nios2eds/bin/gnu/h-i686-mingw32/bin/../lib/gcc/nios2-elf/4.1.2/mno-hw-mul\libgcc.a(_clzsi2.o)
 .debug_loc     0x00004c5c       0xf9 c:/altera/10.1sp1/nios2eds/bin/gnu/h-i686-mingw32/bin/../lib/gcc/nios2-elf/4.1.2/mno-hw-mul\libgcc.a(_pack_sf.o)
 .debug_loc     0x00004d55       0x31 c:/altera/10.1sp1/nios2eds/bin/gnu/h-i686-mingw32/bin/../lib/gcc/nios2-elf/4.1.2/mno-hw-mul\libgcc.a(_unpack_sf.o)
 .debug_loc     0x00004d86       0x3c c:/altera/10.1sp1/nios2eds/bin/gnu/h-i686-mingw32/bin/../lib/gcc/nios2-elf/4.1.2/mno-hw-mul\libgcc.a(_fpcmp_parts_sf.o)
 .debug_loc     0x00004dc2       0x6b c:/altera/10.1sp1/nios2eds/bin/gnu/h-i686-mingw32/bin/../lib/gcc/nios2-elf/4.1.2/mno-hw-mul\libgcc.a(_make_sf.o)
 .debug_loc     0x00004e2d      0x184 c:/altera/10.1sp1/nios2eds/bin/gnu/h-i686-mingw32/bin/../lib/gcc/nios2-elf/4.1.2/mno-hw-mul\libgcc.a(_pack_df.o)
 .debug_loc     0x00004fb1       0xe5 c:/altera/10.1sp1/nios2eds/bin/gnu/h-i686-mingw32/bin/../lib/gcc/nios2-elf/4.1.2/mno-hw-mul\libgcc.a(_unpack_df.o)
 .debug_loc     0x00005096       0xf1 c:/altera/10.1sp1/nios2eds/bin/gnu/h-i686-mingw32/bin/../lib/gcc/nios2-elf/4.1.2/../../../../nios2-elf/lib/mno-hw-mul\libc.a(lib_a-fprintf.o)
 .debug_loc     0x00005187      0x183 c:/altera/10.1sp1/nios2eds/bin/gnu/h-i686-mingw32/bin/../lib/gcc/nios2-elf/4.1.2/../../../../nios2-elf/lib/mno-hw-mul\libc.a(lib_a-fwrite.o)
 .debug_loc     0x0000530a      0x10b c:/altera/10.1sp1/nios2eds/bin/gnu/h-i686-mingw32/bin/../lib/gcc/nios2-elf/4.1.2/../../../../nios2-elf/lib/mno-hw-mul\libc.a(lib_a-getc.o)
 .debug_loc     0x00005415       0x3c c:/altera/10.1sp1/nios2eds/bin/gnu/h-i686-mingw32/bin/../lib/gcc/nios2-elf/4.1.2/../../../../nios2-elf/lib/mno-hw-mul\libc.a(lib_a-malign.o)
 .debug_loc     0x00005451      0x1ae c:/altera/10.1sp1/nios2eds/bin/gnu/h-i686-mingw32/bin/../lib/gcc/nios2-elf/4.1.2/../../../../nios2-elf/lib/mno-hw-mul\libc.a(lib_a-malignr.o)
 .debug_loc     0x000055ff       0x3c c:/altera/10.1sp1/nios2eds/bin/gnu/h-i686-mingw32/bin/../lib/gcc/nios2-elf/4.1.2/../../../../nios2-elf/lib/mno-hw-mul\libc.a(lib_a-malloc.o)
 .debug_loc     0x0000563b      0xaeb c:/altera/10.1sp1/nios2eds/bin/gnu/h-i686-mingw32/bin/../lib/gcc/nios2-elf/4.1.2/../../../../nios2-elf/lib/mno-hw-mul\libc.a(lib_a-mallocr.o)
 .debug_loc     0x00006126       0xca c:/altera/10.1sp1/nios2eds/bin/gnu/h-i686-mingw32/bin/../lib/gcc/nios2-elf/4.1.2/../../../../nios2-elf/lib/mno-hw-mul\libc.a(lib_a-memcpy.o)
 .debug_loc     0x000061f0       0xa1 c:/altera/10.1sp1/nios2eds/bin/gnu/h-i686-mingw32/bin/../lib/gcc/nios2-elf/4.1.2/../../../../nios2-elf/lib/mno-hw-mul\libc.a(lib_a-memset.o)
 .debug_loc     0x00006291       0xa2 c:/altera/10.1sp1/nios2eds/bin/gnu/h-i686-mingw32/bin/../lib/gcc/nios2-elf/4.1.2/../../../../nios2-elf/lib/mno-hw-mul\libc.a(lib_a-perror.o)
 .debug_loc     0x00006333       0xcb c:/altera/10.1sp1/nios2eds/bin/gnu/h-i686-mingw32/bin/../lib/gcc/nios2-elf/4.1.2/../../../../nios2-elf/lib/mno-hw-mul\libc.a(lib_a-printf.o)
 .debug_loc     0x000063fe      0x20d c:/altera/10.1sp1/nios2eds/bin/gnu/h-i686-mingw32/bin/../lib/gcc/nios2-elf/4.1.2/../../../../nios2-elf/lib/mno-hw-mul\libc.a(lib_a-putc.o)
 .debug_loc     0x0000660b       0x44 c:/altera/10.1sp1/nios2eds/bin/gnu/h-i686-mingw32/bin/../lib/gcc/nios2-elf/4.1.2/../../../../nios2-elf/lib/mno-hw-mul\libc.a(lib_a-putchar.o)
 .debug_loc     0x0000664f       0xa2 c:/altera/10.1sp1/nios2eds/bin/gnu/h-i686-mingw32/bin/../lib/gcc/nios2-elf/4.1.2/../../../../nios2-elf/lib/mno-hw-mul\libc.a(lib_a-puts.o)
 .debug_loc     0x000066f1       0x6e c:/altera/10.1sp1/nios2eds/bin/gnu/h-i686-mingw32/bin/../lib/gcc/nios2-elf/4.1.2/../../../../nios2-elf/lib/mno-hw-mul\libc.a(lib_a-rget.o)
 .debug_loc     0x0000675f       0x5b c:/altera/10.1sp1/nios2eds/bin/gnu/h-i686-mingw32/bin/../lib/gcc/nios2-elf/4.1.2/../../../../nios2-elf/lib/mno-hw-mul\libc.a(lib_a-sbrkr.o)
 .debug_loc     0x000067ba       0xc0 c:/altera/10.1sp1/nios2eds/bin/gnu/h-i686-mingw32/bin/../lib/gcc/nios2-elf/4.1.2/../../../../nios2-elf/lib/mno-hw-mul\libc.a(lib_a-sprintf.o)
 .debug_loc     0x0000687a       0x8b c:/altera/10.1sp1/nios2eds/bin/gnu/h-i686-mingw32/bin/../lib/gcc/nios2-elf/4.1.2/../../../../nios2-elf/lib/mno-hw-mul\libc.a(lib_a-strcpy.o)
 .debug_loc     0x00006905      0x418 c:/altera/10.1sp1/nios2eds/bin/gnu/h-i686-mingw32/bin/../lib/gcc/nios2-elf/4.1.2/../../../../nios2-elf/lib/mno-hw-mul\libc.a(lib_a-strerror.o)
 .debug_loc     0x00006d1d       0x3c c:/altera/10.1sp1/nios2eds/bin/gnu/h-i686-mingw32/bin/../lib/gcc/nios2-elf/4.1.2/../../../../nios2-elf/lib/mno-hw-mul\libc.a(lib_a-strlen.o)
 .debug_loc     0x00006d59     0x1dc0 c:/altera/10.1sp1/nios2eds/bin/gnu/h-i686-mingw32/bin/../lib/gcc/nios2-elf/4.1.2/../../../../nios2-elf/lib/mno-hw-mul\libc.a(lib_a-vfprintf.o)
 .debug_loc     0x00008b19      0x157 c:/altera/10.1sp1/nios2eds/bin/gnu/h-i686-mingw32/bin/../lib/gcc/nios2-elf/4.1.2/../../../../nios2-elf/lib/mno-hw-mul\libc.a(lib_a-wbuf.o)
 .debug_loc     0x00008c70       0x7c c:/altera/10.1sp1/nios2eds/bin/gnu/h-i686-mingw32/bin/../lib/gcc/nios2-elf/4.1.2/../../../../nios2-elf/lib/mno-hw-mul\libc.a(lib_a-wsetup.o)
 .debug_loc     0x00008cec     0x1da7 c:/altera/10.1sp1/nios2eds/bin/gnu/h-i686-mingw32/bin/../lib/gcc/nios2-elf/4.1.2/../../../../nios2-elf/lib/mno-hw-mul\libc.a(lib_a-dtoa.o)
 .debug_loc     0x0000aa93      0x1f6 c:/altera/10.1sp1/nios2eds/bin/gnu/h-i686-mingw32/bin/../lib/gcc/nios2-elf/4.1.2/../../../../nios2-elf/lib/mno-hw-mul\libc.a(lib_a-fflush.o)
 .debug_loc     0x0000ac89      0x1e1 c:/altera/10.1sp1/nios2eds/bin/gnu/h-i686-mingw32/bin/../lib/gcc/nios2-elf/4.1.2/../../../../nios2-elf/lib/mno-hw-mul\libc.a(lib_a-findfp.o)
 .debug_loc     0x0000ae6a      0x14d c:/altera/10.1sp1/nios2eds/bin/gnu/h-i686-mingw32/bin/../lib/gcc/nios2-elf/4.1.2/../../../../nios2-elf/lib/mno-hw-mul\libc.a(lib_a-fputc.o)
 .debug_loc     0x0000afb7       0xcb c:/altera/10.1sp1/nios2eds/bin/gnu/h-i686-mingw32/bin/../lib/gcc/nios2-elf/4.1.2/../../../../nios2-elf/lib/mno-hw-mul\libc.a(lib_a-fputs.o)
 .debug_loc     0x0000b082      0x4a7 c:/altera/10.1sp1/nios2eds/bin/gnu/h-i686-mingw32/bin/../lib/gcc/nios2-elf/4.1.2/../../../../nios2-elf/lib/mno-hw-mul\libc.a(lib_a-freer.o)
 .debug_loc     0x0000b529      0x4e4 c:/altera/10.1sp1/nios2eds/bin/gnu/h-i686-mingw32/bin/../lib/gcc/nios2-elf/4.1.2/../../../../nios2-elf/lib/mno-hw-mul\libc.a(lib_a-fvwrite.o)
 .debug_loc     0x0000ba0d      0x1d2 c:/altera/10.1sp1/nios2eds/bin/gnu/h-i686-mingw32/bin/../lib/gcc/nios2-elf/4.1.2/../../../../nios2-elf/lib/mno-hw-mul\libc.a(lib_a-fwalk.o)
 .debug_loc     0x0000bbdf       0xe1 c:/altera/10.1sp1/nios2eds/bin/gnu/h-i686-mingw32/bin/../lib/gcc/nios2-elf/4.1.2/../../../../nios2-elf/lib/mno-hw-mul\libc.a(lib_a-locale.o)
 .debug_loc     0x0000bcc0      0x11c c:/altera/10.1sp1/nios2eds/bin/gnu/h-i686-mingw32/bin/../lib/gcc/nios2-elf/4.1.2/../../../../nios2-elf/lib/mno-hw-mul\libc.a(lib_a-makebuf.o)
 .debug_loc     0x0000bddc      0x106 c:/altera/10.1sp1/nios2eds/bin/gnu/h-i686-mingw32/bin/../lib/gcc/nios2-elf/4.1.2/../../../../nios2-elf/lib/mno-hw-mul\libc.a(lib_a-memchr.o)
 .debug_loc     0x0000bee2      0x117 c:/altera/10.1sp1/nios2eds/bin/gnu/h-i686-mingw32/bin/../lib/gcc/nios2-elf/4.1.2/../../../../nios2-elf/lib/mno-hw-mul\libc.a(lib_a-memmove.o)
 .debug_loc     0x0000bff9     0x1547 c:/altera/10.1sp1/nios2eds/bin/gnu/h-i686-mingw32/bin/../lib/gcc/nios2-elf/4.1.2/../../../../nios2-elf/lib/mno-hw-mul\libc.a(lib_a-mprec.o)
 .debug_loc     0x0000d540      0x8c0 c:/altera/10.1sp1/nios2eds/bin/gnu/h-i686-mingw32/bin/../lib/gcc/nios2-elf/4.1.2/../../../../nios2-elf/lib/mno-hw-mul\libc.a(lib_a-reallocr.o)
 .debug_loc     0x0000de00       0xd1 c:/altera/10.1sp1/nios2eds/bin/gnu/h-i686-mingw32/bin/../lib/gcc/nios2-elf/4.1.2/../../../../nios2-elf/lib/mno-hw-mul\libc.a(lib_a-refill.o)
 .debug_loc     0x0000ded1       0x36 c:/altera/10.1sp1/nios2eds/bin/gnu/h-i686-mingw32/bin/../lib/gcc/nios2-elf/4.1.2/../../../../nios2-elf/lib/mno-hw-mul\libc.a(lib_a-s_isinfd.o)
 .debug_loc     0x0000df07      0x21f c:/altera/10.1sp1/nios2eds/bin/gnu/h-i686-mingw32/bin/../lib/gcc/nios2-elf/4.1.2/../../../../nios2-elf/lib/mno-hw-mul\libc.a(lib_a-stdio.o)
 .debug_loc     0x0000e126       0x65 c:/altera/10.1sp1/nios2eds/bin/gnu/h-i686-mingw32/bin/../lib/gcc/nios2-elf/4.1.2/../../../../nios2-elf/lib/mno-hw-mul\libc.a(lib_a-strcmp.o)
 .debug_loc     0x0000e18b       0x97 c:/altera/10.1sp1/nios2eds/bin/gnu/h-i686-mingw32/bin/../lib/gcc/nios2-elf/4.1.2/../../../../nios2-elf/lib/mno-hw-mul\libc.a(lib_a-writer.o)
 .debug_loc     0x0000e222       0xff c:/altera/10.1sp1/nios2eds/bin/gnu/h-i686-mingw32/bin/../lib/gcc/nios2-elf/4.1.2/../../../../nios2-elf/lib/mno-hw-mul\libc.a(lib_a-callocr.o)
 .debug_loc     0x0000e321       0x5b c:/altera/10.1sp1/nios2eds/bin/gnu/h-i686-mingw32/bin/../lib/gcc/nios2-elf/4.1.2/../../../../nios2-elf/lib/mno-hw-mul\libc.a(lib_a-closer.o)
 .debug_loc     0x0000e37c       0xe4 c:/altera/10.1sp1/nios2eds/bin/gnu/h-i686-mingw32/bin/../lib/gcc/nios2-elf/4.1.2/../../../../nios2-elf/lib/mno-hw-mul\libc.a(lib_a-fclose.o)
 .debug_loc     0x0000e460       0x79 c:/altera/10.1sp1/nios2eds/bin/gnu/h-i686-mingw32/bin/../lib/gcc/nios2-elf/4.1.2/../../../../nios2-elf/lib/mno-hw-mul\libc.a(lib_a-fstatr.o)
 .debug_loc     0x0000e4d9       0x5b c:/altera/10.1sp1/nios2eds/bin/gnu/h-i686-mingw32/bin/../lib/gcc/nios2-elf/4.1.2/../../../../nios2-elf/lib/mno-hw-mul\libc.a(lib_a-isattyr.o)
 .debug_loc     0x0000e534       0x97 c:/altera/10.1sp1/nios2eds/bin/gnu/h-i686-mingw32/bin/../lib/gcc/nios2-elf/4.1.2/../../../../nios2-elf/lib/mno-hw-mul\libc.a(lib_a-lseekr.o)
 .debug_loc     0x0000e5cb       0x97 c:/altera/10.1sp1/nios2eds/bin/gnu/h-i686-mingw32/bin/../lib/gcc/nios2-elf/4.1.2/../../../../nios2-elf/lib/mno-hw-mul\libc.a(lib_a-readr.o)
 .debug_loc     0x0000e662      0xc1d c:/altera/10.1sp1/nios2eds/bin/gnu/h-i686-mingw32/bin/../lib/gcc/nios2-elf/4.1.2/mno-hw-mul\libgcc.a(_udivdi3.o)
 .debug_loc     0x0000f27f      0xbd7 c:/altera/10.1sp1/nios2eds/bin/gnu/h-i686-mingw32/bin/../lib/gcc/nios2-elf/4.1.2/mno-hw-mul\libgcc.a(_umoddi3.o)
 .debug_loc     0x0000fe56       0x70 c:/altera/10.1sp1/nios2eds/bin/gnu/h-i686-mingw32/bin/../lib/gcc/nios2-elf/4.1.2/mno-hw-mul\libgcc.a(_ne_df.o)
 .debug_loc     0x0000fec6       0x56 ../RedeFFTHW_bsp\libucosii_bsp.a(alt_fstat.o)
 .debug_loc     0x0000ff1c       0x57 ../RedeFFTHW_bsp\libucosii_bsp.a(alt_isatty.o)
 .debug_loc     0x0000ff73       0x56 ../RedeFFTHW_bsp\libucosii_bsp.a(alt_load.o)
 .debug_loc     0x0000ffc9       0x56 ../RedeFFTHW_bsp\libucosii_bsp.a(alt_lseek.o)
 .debug_loc     0x0001001f       0x2b ../RedeFFTHW_bsp\libucosii_bsp.a(alt_main.o)
 .debug_loc     0x0001004a       0x2b ../RedeFFTHW_bsp\libucosii_bsp.a(alt_remap_cached.o)
 .debug_loc     0x00010075       0x2b ../RedeFFTHW_bsp\libucosii_bsp.a(alt_remap_uncached.o)
 .debug_loc     0x000100a0       0x2b ../RedeFFTHW_bsp\libucosii_bsp.a(alt_sbrk.o)
 .debug_loc     0x000100cb       0x56 ../RedeFFTHW_bsp\libucosii_bsp.a(alt_tick.o)
 .debug_loc     0x00010121       0x2b ../RedeFFTHW_bsp\libucosii_bsp.a(alt_uncached_malloc.o)
 .debug_loc     0x0001014c       0x2b ../RedeFFTHW_bsp\libucosii_bsp.a(alt_usleep.o)
 .debug_loc     0x00010177       0x57 ../RedeFFTHW_bsp\libucosii_bsp.a(alt_env_lock.o)
 .debug_loc     0x000101ce       0x57 ../RedeFFTHW_bsp\libucosii_bsp.a(alt_malloc_lock.o)
 .debug_loc     0x00010225      0x5e2 ../RedeFFTHW_bsp\libucosii_bsp.a(os_core.o)
 .debug_loc     0x00010807       0x2b ../RedeFFTHW_bsp\libucosii_bsp.a(os_dbg.o)
 .debug_loc     0x00010832      0x232 ../RedeFFTHW_bsp\libucosii_bsp.a(os_flag.o)
 .debug_loc     0x00010a64      0x12d ../RedeFFTHW_bsp\libucosii_bsp.a(os_mem.o)
 .debug_loc     0x00010b91      0x1da ../RedeFFTHW_bsp\libucosii_bsp.a(os_q.o)
 .debug_loc     0x00010d6b      0x158 ../RedeFFTHW_bsp\libucosii_bsp.a(os_sem.o)
 .debug_loc     0x00010ec3      0x207 ../RedeFFTHW_bsp\libucosii_bsp.a(os_task.o)
 .debug_loc     0x000110ca       0xd7 ../RedeFFTHW_bsp\libucosii_bsp.a(os_time.o)
 .debug_loc     0x000111a1       0x81 ../RedeFFTHW_bsp\libucosii_bsp.a(alt_sys_init.o)
 .debug_loc     0x00011222       0xac ../RedeFFTHW_bsp\libucosii_bsp.a(altera_avalon_jtag_uart_fd.o)
 .debug_loc     0x000112ce       0xac ../RedeFFTHW_bsp\libucosii_bsp.a(altera_avalon_jtag_uart_init.o)
 .debug_loc     0x0001137a       0x2b ../RedeFFTHW_bsp\libucosii_bsp.a(altera_avalon_jtag_uart_ioctl.o)
 .debug_loc     0x000113a5       0x2c ../RedeFFTHW_bsp\libucosii_bsp.a(altera_avalon_jtag_uart_read.o)
 .debug_loc     0x000113d1       0x2c ../RedeFFTHW_bsp\libucosii_bsp.a(altera_avalon_jtag_uart_write.o)
 .debug_loc     0x000113fd      0x306 ../RedeFFTHW_bsp\libucosii_bsp.a(altera_avalon_sgdma.o)
 .debug_loc     0x00011703       0x56 ../RedeFFTHW_bsp\libucosii_bsp.a(altera_avalon_timer_sc.o)
 .debug_loc     0x00011759      0x185 ../RedeFFTHW_bsp\libucosii_bsp.a(ins_tse_mac.o)
 .debug_loc     0x000118de       0x2c ../RedeFFTHW_bsp\libucosii_bsp.a(perf_print_formatted_report.o)
 .debug_loc     0x0001190a       0x2b ../RedeFFTHW_bsp\libucosii_bsp.a(alt_iniche_close.o)
 .debug_loc     0x00011935       0x2b ../RedeFFTHW_bsp\libucosii_bsp.a(alt_iniche_dev.o)
 .debug_loc     0x00011960       0x2b ../RedeFFTHW_bsp\libucosii_bsp.a(alt_iniche_read.o)
 .debug_loc     0x0001198b       0x2b ../RedeFFTHW_bsp\libucosii_bsp.a(alt_iniche_write.o)
 .debug_loc     0x000119b6      0x102 ../RedeFFTHW_bsp\libucosii_bsp.a(ipnet.o)
 .debug_loc     0x00011ab8       0xac ../RedeFFTHW_bsp\libucosii_bsp.a(ipstart.o)
 .debug_loc     0x00011b64      0x159 ../RedeFFTHW_bsp\libucosii_bsp.a(igmp_cmn.o)
 .debug_loc     0x00011cbd      0x1af ../RedeFFTHW_bsp\libucosii_bsp.a(bsdsock.o)
 .debug_loc     0x00011e6c       0x56 ../RedeFFTHW_bsp\libucosii_bsp.a(cksum.o)
 .debug_loc     0x00011ec2      0x204 ../RedeFFTHW_bsp\libucosii_bsp.a(in_utils.o)
 .debug_loc     0x000120c6       0x81 ../RedeFFTHW_bsp\libucosii_bsp.a(netmain.o)
 .debug_loc     0x00012147      0x12f ../RedeFFTHW_bsp\libucosii_bsp.a(tk_crnos.o)
 .debug_loc     0x00012276      0x35e ../RedeFFTHW_bsp\libucosii_bsp.a(dhcpclnt.o)
 .debug_loc     0x000125d4       0x2b ../RedeFFTHW_bsp\libucosii_bsp.a(dhcputil.o)
 .debug_loc     0x000125ff      0x102 ../RedeFFTHW_bsp\libucosii_bsp.a(pktalloc.o)
 .debug_loc     0x00012701       0x81 ../RedeFFTHW_bsp\libucosii_bsp.a(q.o)
 .debug_loc     0x00012782       0x56 ../RedeFFTHW_bsp\libucosii_bsp.a(udp_open.o)
 .debug_loc     0x000127d8      0x158 ../RedeFFTHW_bsp\libucosii_bsp.a(brdutils.o)
 .debug_loc     0x00012930       0xd8 ../RedeFFTHW_bsp\libucosii_bsp.a(osportco.o)
 .debug_loc     0x00012a08      0x183 ../RedeFFTHW_bsp\libucosii_bsp.a(targnios.o)
 .debug_loc     0x00012b8b      0x306 ../RedeFFTHW_bsp\libucosii_bsp.a(nptcp.o)
 .debug_loc     0x00012e91       0x82 ../RedeFFTHW_bsp\libucosii_bsp.a(rawsock.o)
 .debug_loc     0x00012f13      0x332 ../RedeFFTHW_bsp\libucosii_bsp.a(sockcall.o)
 .debug_loc     0x00013245      0x2b1 ../RedeFFTHW_bsp\libucosii_bsp.a(socket.o)
 .debug_loc     0x000134f6      0x3dd ../RedeFFTHW_bsp\libucosii_bsp.a(socket2.o)
 .debug_loc     0x000138d3      0x184 ../RedeFFTHW_bsp\libucosii_bsp.a(soselect.o)
 .debug_loc     0x00013a57      0x12e ../RedeFFTHW_bsp\libucosii_bsp.a(tcp_in.o)
 .debug_loc     0x00013b85       0x82 ../RedeFFTHW_bsp\libucosii_bsp.a(tcp_out.o)
 .debug_loc     0x00013c07      0x183 ../RedeFFTHW_bsp\libucosii_bsp.a(tcp_subr.o)
 .debug_loc     0x00013d8a       0x81 ../RedeFFTHW_bsp\libucosii_bsp.a(tcp_timr.o)
 .debug_loc     0x00013e0b       0xac ../RedeFFTHW_bsp\libucosii_bsp.a(tcp_usr.o)
 .debug_loc     0x00013eb7       0x2b ../RedeFFTHW_bsp\libucosii_bsp.a(tcpport.o)
 .debug_loc     0x00013ee2      0x102 ../RedeFFTHW_bsp\libucosii_bsp.a(udpsock.o)
 .debug_loc     0x00013fe4       0x2b ../RedeFFTHW_bsp\libucosii_bsp.a(alt_alarm_start.o)
 .debug_loc     0x0001400f       0x2b ../RedeFFTHW_bsp\libucosii_bsp.a(alt_busy_sleep.o)
 .debug_loc     0x0001403a       0x56 ../RedeFFTHW_bsp\libucosii_bsp.a(alt_close.o)
 .debug_loc     0x00014090       0x2b ../RedeFFTHW_bsp\libucosii_bsp.a(alt_dcache_flush.o)
 .debug_loc     0x000140bb       0x2b ../RedeFFTHW_bsp\libucosii_bsp.a(alt_dcache_flush_all.o)
 .debug_loc     0x000140e6       0x2b ../RedeFFTHW_bsp\libucosii_bsp.a(alt_dev.o)
 .debug_loc     0x00014111       0x56 ../RedeFFTHW_bsp\libucosii_bsp.a(alt_dev_llist_insert.o)
 .debug_loc     0x00014167       0x2b ../RedeFFTHW_bsp\libucosii_bsp.a(alt_do_ctors.o)
 .debug_loc     0x00014192       0x2b ../RedeFFTHW_bsp\libucosii_bsp.a(alt_do_dtors.o)
 .debug_loc     0x000141bd       0x2b ../RedeFFTHW_bsp\libucosii_bsp.a(alt_find_dev.o)
 .debug_loc     0x000141e8       0x2b ../RedeFFTHW_bsp\libucosii_bsp.a(alt_icache_flush_all.o)
 .debug_loc     0x00014213       0xac ../RedeFFTHW_bsp\libucosii_bsp.a(alt_iic.o)
 .debug_loc     0x000142bf       0x2b ../RedeFFTHW_bsp\libucosii_bsp.a(alt_iic_isr_register.o)
 .debug_loc     0x000142ea       0x56 ../RedeFFTHW_bsp\libucosii_bsp.a(alt_io_redirect.o)
 .debug_loc     0x00014340       0x2b ../RedeFFTHW_bsp\libucosii_bsp.a(alt_irq_handler.o)
 .debug_loc     0x0001436b       0x81 ../RedeFFTHW_bsp\libucosii_bsp.a(alt_open.o)
 .debug_loc     0x000143ec       0x56 ../RedeFFTHW_bsp\libucosii_bsp.a(alt_read.o)
 .debug_loc     0x00014442       0x2b ../RedeFFTHW_bsp\libucosii_bsp.a(alt_release_fd.o)
 .debug_loc     0x0001446d       0x56 ../RedeFFTHW_bsp\libucosii_bsp.a(alt_write.o)
 .debug_loc     0x000144c3       0x2b ../RedeFFTHW_bsp\libucosii_bsp.a(altera_nios2_irq.o)
 .debug_loc     0x000144ee      0x1ae ../RedeFFTHW_bsp\libucosii_bsp.a(os_cpu_c.o)
 .debug_loc     0x0001469c       0xd7 ../RedeFFTHW_bsp\libucosii_bsp.a(altera_avalon_performance_counter.o)
 .debug_loc     0x00014773      0x73e ../RedeFFTHW_bsp\libucosii_bsp.a(altera_avalon_tse.o)
 .debug_loc     0x00014eb1      0x12d ../RedeFFTHW_bsp\libucosii_bsp.a(allports.o)
 .debug_loc     0x00014fde       0xac ../RedeFFTHW_bsp\libucosii_bsp.a(timeouts.o)
 .debug_loc     0x0001508a       0x56 ../RedeFFTHW_bsp\libucosii_bsp.a(tk_misc.o)
 .debug_loc     0x000150e0       0x2b ../RedeFFTHW_bsp\libucosii_bsp.a(alt_iniche_fcntl.o)
 .debug_loc     0x0001510b      0x204 ../RedeFFTHW_bsp\libucosii_bsp.a(et_arp.o)
 .debug_loc     0x0001530f       0xac ../RedeFFTHW_bsp\libucosii_bsp.a(iface.o)
 .debug_loc     0x000153bb      0x207 ../RedeFFTHW_bsp\libucosii_bsp.a(ip.o)
 .debug_loc     0x000155c2      0x2b2 ../RedeFFTHW_bsp\libucosii_bsp.a(ip_reasm.o)
 .debug_loc     0x00015874       0x81 ../RedeFFTHW_bsp\libucosii_bsp.a(ipdemux.o)
 .debug_loc     0x000158f5       0x81 ../RedeFFTHW_bsp\libucosii_bsp.a(ipmc.o)
 .debug_loc     0x00015976       0x81 ../RedeFFTHW_bsp\libucosii_bsp.a(ipport.o)
 .debug_loc     0x000159f7      0x102 ../RedeFFTHW_bsp\libucosii_bsp.a(ipraw.o)
 .debug_loc     0x00015af9       0x81 ../RedeFFTHW_bsp\libucosii_bsp.a(iproute.o)
 .debug_loc     0x00015b7a      0x12f ../RedeFFTHW_bsp\libucosii_bsp.a(udp.o)
 .debug_loc     0x00015ca9       0x2b ../RedeFFTHW_bsp\libucosii_bsp.a(igmp.o)
 .debug_loc     0x00015cd4       0xd7 ../RedeFFTHW_bsp\libucosii_bsp.a(igmp2.o)
 .debug_loc     0x00015dab       0xac ../RedeFFTHW_bsp\libucosii_bsp.a(ipopt.o)
 .debug_loc     0x00015e57       0x57 ../RedeFFTHW_bsp\libucosii_bsp.a(u_mctest.o)
 .debug_loc     0x00015eae       0x56 ../RedeFFTHW_bsp\libucosii_bsp.a(dhcsetup.o)
 .debug_loc     0x00015f04      0x183 ../RedeFFTHW_bsp\libucosii_bsp.a(memdev.o)
 .debug_loc     0x00016087      0x183 ../RedeFFTHW_bsp\libucosii_bsp.a(parseip.o)
 .debug_loc     0x0001620a       0x2b ../RedeFFTHW_bsp\libucosii_bsp.a(tcpcksum.o)
 .debug_loc     0x00016235      0x158 ../RedeFFTHW_bsp\libucosii_bsp.a(in_pcb.o)
 .debug_loc     0x0001638d      0x4b4 ../RedeFFTHW_bsp\libucosii_bsp.a(vfsfiles.o)
 .debug_loc     0x00016841       0x2b ../RedeFFTHW_bsp\libucosii_bsp.a(vfsport.o)
 .debug_loc     0x0001686c       0x56 ../RedeFFTHW_bsp\libucosii_bsp.a(alt_fcntl.o)
 .debug_loc     0x000168c2       0x2b ../RedeFFTHW_bsp\libucosii_bsp.a(alt_find_file.o)
 .debug_loc     0x000168ed       0x2b ../RedeFFTHW_bsp\libucosii_bsp.a(alt_get_fd.o)
 .debug_loc     0x00016918       0xad ../RedeFFTHW_bsp\libucosii_bsp.a(icmp.o)
 .debug_loc     0x000169c5       0x1e c:/altera/10.1sp1/nios2eds/bin/gnu/h-i686-mingw32/bin/../lib/gcc/nios2-elf/4.1.2/../../../../nios2-elf/lib/mno-hw-mul\libc.a(lib_a-atexit.o)
 .debug_loc     0x000169e3       0x39 c:/altera/10.1sp1/nios2eds/bin/gnu/h-i686-mingw32/bin/../lib/gcc/nios2-elf/4.1.2/../../../../nios2-elf/lib/mno-hw-mul\libc.a(lib_a-atoi.o)
 .debug_loc     0x00016a1c       0x3c c:/altera/10.1sp1/nios2eds/bin/gnu/h-i686-mingw32/bin/../lib/gcc/nios2-elf/4.1.2/../../../../nios2-elf/lib/mno-hw-mul\libc.a(lib_a-calloc.o)
 .debug_loc     0x00016a58       0x3d c:/altera/10.1sp1/nios2eds/bin/gnu/h-i686-mingw32/bin/../lib/gcc/nios2-elf/4.1.2/../../../../nios2-elf/lib/mno-hw-mul\libc.a(lib_a-exit.o)
 .debug_loc     0x00016a95      0x114 c:/altera/10.1sp1/nios2eds/bin/gnu/h-i686-mingw32/bin/../lib/gcc/nios2-elf/4.1.2/../../../../nios2-elf/lib/mno-hw-mul\libc.a(lib_a-memcmp.o)
 .debug_loc     0x00016ba9       0xf3 c:/altera/10.1sp1/nios2eds/bin/gnu/h-i686-mingw32/bin/../lib/gcc/nios2-elf/4.1.2/../../../../nios2-elf/lib/mno-hw-mul\libc.a(lib_a-strchr.o)
 .debug_loc     0x00016c9c       0x78 c:/altera/10.1sp1/nios2eds/bin/gnu/h-i686-mingw32/bin/../lib/gcc/nios2-elf/4.1.2/../../../../nios2-elf/lib/mno-hw-mul\libc.a(lib_a-strncmp.o)
 .debug_loc     0x00016d14       0xeb c:/altera/10.1sp1/nios2eds/bin/gnu/h-i686-mingw32/bin/../lib/gcc/nios2-elf/4.1.2/../../../../nios2-elf/lib/mno-hw-mul\libc.a(lib_a-strncpy.o)
 .debug_loc     0x00016dff      0x327 c:/altera/10.1sp1/nios2eds/bin/gnu/h-i686-mingw32/bin/../lib/gcc/nios2-elf/4.1.2/../../../../nios2-elf/lib/mno-hw-mul\libc.a(lib_a-strtol.o)
 .debug_loc     0x00017126       0x8b c:/altera/10.1sp1/nios2eds/bin/gnu/h-i686-mingw32/bin/../lib/gcc/nios2-elf/4.1.2/../../../../nios2-elf/lib/mno-hw-mul\libc.a(lib_a-vprintf.o)
 .debug_loc     0x000171b1       0xd1 c:/altera/10.1sp1/nios2eds/bin/gnu/h-i686-mingw32/bin/../lib/gcc/nios2-elf/4.1.2/../../../../nios2-elf/lib/mno-hw-mul\libc.a(lib_a-vsprintf.o)
 .debug_loc     0x00017282      0x120 c:/altera/10.1sp1/nios2eds/bin/gnu/h-i686-mingw32/bin/../lib/gcc/nios2-elf/4.1.2/../../../../nios2-elf/lib/mno-hw-mul\libc.a(lib_a-__atexit.o)
 .debug_loc     0x000173a2      0x1cb c:/altera/10.1sp1/nios2eds/bin/gnu/h-i686-mingw32/bin/../lib/gcc/nios2-elf/4.1.2/../../../../nios2-elf/lib/mno-hw-mul\libc.a(lib_a-__call_atexit.o)
 .debug_loc     0x0001756d       0x5f c:/altera/10.1sp1/nios2eds/bin/gnu/h-i686-mingw32/bin/../lib/gcc/nios2-elf/4.1.2/mno-hw-mul\libgcc.a(_floatundidf.o)
 .debug_loc     0x000175cc       0x56 ../RedeFFTHW_bsp\libucosii_bsp.a(alt_exit.o)

.debug_macinfo
 *(.debug_macinfo)

.debug_weaknames
 *(.debug_weaknames)

.debug_funcnames
 *(.debug_funcnames)

.debug_typenames
 *(.debug_typenames)

.debug_varnames
 *(.debug_varnames)

.debug_alt_sim_info
                0x00000000       0x40
 *(.debug_alt_sim_info)
 .debug_alt_sim_info
                0x00000000       0x10 ../RedeFFTHW_bsp/obj/HAL/src/crt0.o
 .debug_alt_sim_info
                0x00000010       0x30 ../RedeFFTHW_bsp\libucosii_bsp.a(alt_busy_sleep.o)
                0x02000000                __alt_data_end = 0x2000000
                0x02000000                PROVIDE (__alt_stack_pointer, __alt_data_end)
                0x0019695c                PROVIDE (__alt_stack_limit, __alt_stack_base)
                0x0019695c                PROVIDE (__alt_heap_start, end)
                0x02000000                PROVIDE (__alt_heap_limit, 0x2000000)
OUTPUT(RedeFFTHW.elf elf32-littlenios2)

.debug_ranges   0x00000000      0xc08
 .debug_ranges  0x00000000       0x20 ../RedeFFTHW_bsp/obj/HAL/src/crt0.o
 .debug_ranges  0x00000020       0x40 c:/altera/10.1sp1/nios2eds/bin/gnu/h-i686-mingw32/bin/../lib/gcc/nios2-elf/4.1.2/../../../../nios2-elf/lib/mno-hw-mul\libm.a(lib_a-e_rem_pio2.o)
 .debug_ranges  0x00000060       0x28 c:/altera/10.1sp1/nios2eds/bin/gnu/h-i686-mingw32/bin/../lib/gcc/nios2-elf/4.1.2/../../../../nios2-elf/lib/mno-hw-mul\libm.a(lib_a-e_sqrt.o)
 .debug_ranges  0x00000088       0x38 c:/altera/10.1sp1/nios2eds/bin/gnu/h-i686-mingw32/bin/../lib/gcc/nios2-elf/4.1.2/../../../../nios2-elf/lib/mno-hw-mul\libm.a(lib_a-ef_sqrt.o)
 .debug_ranges  0x000000c0       0x18 c:/altera/10.1sp1/nios2eds/bin/gnu/h-i686-mingw32/bin/../lib/gcc/nios2-elf/4.1.2/../../../../nios2-elf/lib/mno-hw-mul\libm.a(lib_a-s_fabs.o)
 .debug_ranges  0x000000d8       0x20 c:/altera/10.1sp1/nios2eds/bin/gnu/h-i686-mingw32/bin/../lib/gcc/nios2-elf/4.1.2/../../../../nios2-elf/lib/mno-hw-mul\libm.a(lib_a-s_scalbn.o)
 .debug_ranges  0x000000f8       0x18 c:/altera/10.1sp1/nios2eds/bin/gnu/h-i686-mingw32/bin/../lib/gcc/nios2-elf/4.1.2/../../../../nios2-elf/lib/mno-hw-mul\libm.a(lib_a-s_copysign.o)
 .debug_ranges  0x00000110       0x88 c:/altera/10.1sp1/nios2eds/bin/gnu/h-i686-mingw32/bin/../lib/gcc/nios2-elf/4.1.2/mno-hw-mul\libgcc.a(_muldi3.o)
 .debug_ranges  0x00000198       0x28 c:/altera/10.1sp1/nios2eds/bin/gnu/h-i686-mingw32/bin/../lib/gcc/nios2-elf/4.1.2/mno-hw-mul\libgcc.a(_addsub_sf.o)
 .debug_ranges  0x000001c0       0x80 c:/altera/10.1sp1/nios2eds/bin/gnu/h-i686-mingw32/bin/../lib/gcc/nios2-elf/4.1.2/mno-hw-mul\libgcc.a(_mul_sf.o)
 .debug_ranges  0x00000240       0x60 c:/altera/10.1sp1/nios2eds/bin/gnu/h-i686-mingw32/bin/../lib/gcc/nios2-elf/4.1.2/mno-hw-mul\libgcc.a(_div_sf.o)
 .debug_ranges  0x000002a0       0x18 c:/altera/10.1sp1/nios2eds/bin/gnu/h-i686-mingw32/bin/../lib/gcc/nios2-elf/4.1.2/mno-hw-mul\libgcc.a(_si_to_sf.o)
 .debug_ranges  0x000002b8       0x30 c:/altera/10.1sp1/nios2eds/bin/gnu/h-i686-mingw32/bin/../lib/gcc/nios2-elf/4.1.2/mno-hw-mul\libgcc.a(_addsub_df.o)
 .debug_ranges  0x000002e8       0x88 c:/altera/10.1sp1/nios2eds/bin/gnu/h-i686-mingw32/bin/../lib/gcc/nios2-elf/4.1.2/mno-hw-mul\libgcc.a(_mul_df.o)
 .debug_ranges  0x00000370       0x50 c:/altera/10.1sp1/nios2eds/bin/gnu/h-i686-mingw32/bin/../lib/gcc/nios2-elf/4.1.2/mno-hw-mul\libgcc.a(_div_df.o)
 .debug_ranges  0x000003c0       0x18 c:/altera/10.1sp1/nios2eds/bin/gnu/h-i686-mingw32/bin/../lib/gcc/nios2-elf/4.1.2/mno-hw-mul\libgcc.a(_usi_to_df.o)
 .debug_ranges  0x000003d8       0x28 c:/altera/10.1sp1/nios2eds/bin/gnu/h-i686-mingw32/bin/../lib/gcc/nios2-elf/4.1.2/mno-hw-mul\libgcc.a(_clzsi2.o)
 .debug_ranges  0x00000400       0x28 c:/altera/10.1sp1/nios2eds/bin/gnu/h-i686-mingw32/bin/../lib/gcc/nios2-elf/4.1.2/mno-hw-mul\libgcc.a(_pack_df.o)
 .debug_ranges  0x00000428       0x70 c:/altera/10.1sp1/nios2eds/bin/gnu/h-i686-mingw32/bin/../lib/gcc/nios2-elf/4.1.2/../../../../nios2-elf/lib/mno-hw-mul\libc.a(lib_a-mallocr.o)
 .debug_ranges  0x00000498      0x168 c:/altera/10.1sp1/nios2eds/bin/gnu/h-i686-mingw32/bin/../lib/gcc/nios2-elf/4.1.2/../../../../nios2-elf/lib/mno-hw-mul\libc.a(lib_a-vfprintf.o)
 .debug_ranges  0x00000600       0x20 c:/altera/10.1sp1/nios2eds/bin/gnu/h-i686-mingw32/bin/../lib/gcc/nios2-elf/4.1.2/../../../../nios2-elf/lib/mno-hw-mul\libc.a(lib_a-fflush.o)
 .debug_ranges  0x00000620       0x28 c:/altera/10.1sp1/nios2eds/bin/gnu/h-i686-mingw32/bin/../lib/gcc/nios2-elf/4.1.2/../../../../nios2-elf/lib/mno-hw-mul\libc.a(lib_a-fvwrite.o)
 .debug_ranges  0x00000648       0xa0 c:/altera/10.1sp1/nios2eds/bin/gnu/h-i686-mingw32/bin/../lib/gcc/nios2-elf/4.1.2/../../../../nios2-elf/lib/mno-hw-mul\libc.a(lib_a-fwalk.o)
 .debug_ranges  0x000006e8      0x110 c:/altera/10.1sp1/nios2eds/bin/gnu/h-i686-mingw32/bin/../lib/gcc/nios2-elf/4.1.2/../../../../nios2-elf/lib/mno-hw-mul\libc.a(lib_a-reallocr.o)
 .debug_ranges  0x000007f8       0x38 c:/altera/10.1sp1/nios2eds/bin/gnu/h-i686-mingw32/bin/../lib/gcc/nios2-elf/4.1.2/../../../../nios2-elf/lib/mno-hw-mul\libc.a(lib_a-callocr.o)
 .debug_ranges  0x00000830      0x190 c:/altera/10.1sp1/nios2eds/bin/gnu/h-i686-mingw32/bin/../lib/gcc/nios2-elf/4.1.2/mno-hw-mul\libgcc.a(_udivdi3.o)
 .debug_ranges  0x000009c0      0x1c0 c:/altera/10.1sp1/nios2eds/bin/gnu/h-i686-mingw32/bin/../lib/gcc/nios2-elf/4.1.2/mno-hw-mul\libgcc.a(_umoddi3.o)
 .debug_ranges  0x00000b80       0x18 ../RedeFFTHW_bsp\libucosii_bsp.a(altera_avalon_jtag_uart_init.o)
 .debug_ranges  0x00000b98       0x28 ../RedeFFTHW_bsp\libucosii_bsp.a(alt_irq_entry.o)
 .debug_ranges  0x00000bc0       0x30 ../RedeFFTHW_bsp\libucosii_bsp.a(alt_exception_entry.o)
 .debug_ranges  0x00000bf0       0x18 c:/altera/10.1sp1/nios2eds/bin/gnu/h-i686-mingw32/bin/../lib/gcc/nios2-elf/4.1.2/../../../../nios2-elf/lib/mno-hw-mul\libc.a(lib_a-__call_atexit.o)
